ARM GAS  C:\Users\xiaofei\AppData\Local\Temp\ccowmEjG.s 			page 1


   1              		.syntax unified
   2              		.cpu cortex-m7
   3              		.eabi_attribute 28, 1
   4              		.fpu fpv5-d16
   5              		.eabi_attribute 20, 1
   6              		.eabi_attribute 21, 1
   7              		.eabi_attribute 23, 3
   8              		.eabi_attribute 24, 1
   9              		.eabi_attribute 25, 1
  10              		.eabi_attribute 26, 1
  11              		.eabi_attribute 30, 1
  12              		.eabi_attribute 34, 1
  13              		.eabi_attribute 18, 4
  14              		.thumb
  15              		.syntax unified
  16              		.file	"heap_4.c"
  17              		.section	.text.prvHeapInit,"ax",%progbits
  18              		.align	2
  19              		.thumb
  20              		.thumb_func
  22              	prvHeapInit:
  23              		@ args = 0, pretend = 0, frame = 0
  24              		@ frame_needed = 0, uses_anonymous_args = 0
  25              		@ link register save eliminated.
  26 0000 124A     		ldr	r2, .L4
  27 0002 12F0070F 		tst	r2, #7
  28 0006 07D0     		beq	.L3
  29 0008 D11D     		adds	r1, r2, #7
  30 000a 21F00701 		bic	r1, r1, #7
  31 000e C1F57053 		rsb	r3, r1, #15360
  32 0012 1344     		add	r3, r3, r2
  33 0014 0A46     		mov	r2, r1
  34 0016 01E0     		b	.L2
  35              	.L3:
  36 0018 4FF47053 		mov	r3, #15360
  37              	.L2:
  38 001c 0C48     		ldr	r0, .L4+4
  39 001e 0260     		str	r2, [r0]
  40 0020 0021     		movs	r1, #0
  41 0022 4160     		str	r1, [r0, #4]
  42 0024 1344     		add	r3, r3, r2
  43 0026 083B     		subs	r3, r3, #8
  44 0028 23F00703 		bic	r3, r3, #7
  45 002c 0948     		ldr	r0, .L4+8
  46 002e 0360     		str	r3, [r0]
  47 0030 5960     		str	r1, [r3, #4]
  48 0032 1960     		str	r1, [r3]
  49 0034 991A     		subs	r1, r3, r2
  50 0036 5160     		str	r1, [r2, #4]
  51 0038 1360     		str	r3, [r2]
  52 003a 074B     		ldr	r3, .L4+12
  53 003c 1960     		str	r1, [r3]
  54 003e 074B     		ldr	r3, .L4+16
  55 0040 1960     		str	r1, [r3]
  56 0042 4FF00042 		mov	r2, #-2147483648
  57 0046 064B     		ldr	r3, .L4+20
  58 0048 1A60     		str	r2, [r3]
ARM GAS  C:\Users\xiaofei\AppData\Local\Temp\ccowmEjG.s 			page 2


  59 004a 7047     		bx	lr
  60              	.L5:
  61              		.align	2
  62              	.L4:
  63 004c 00000000 		.word	.LANCHOR0
  64 0050 00000000 		.word	.LANCHOR1
  65 0054 00000000 		.word	.LANCHOR2
  66 0058 00000000 		.word	.LANCHOR3
  67 005c 00000000 		.word	.LANCHOR4
  68 0060 00000000 		.word	.LANCHOR5
  70              		.section	.text.prvInsertBlockIntoFreeList,"ax",%progbits
  71              		.align	2
  72              		.thumb
  73              		.thumb_func
  75              	prvInsertBlockIntoFreeList:
  76              		@ args = 0, pretend = 0, frame = 0
  77              		@ frame_needed = 0, uses_anonymous_args = 0
  78              		@ link register save eliminated.
  79 0000 134B     		ldr	r3, .L15
  80 0002 00E0     		b	.L7
  81              	.L13:
  82 0004 1346     		mov	r3, r2
  83              	.L7:
  84 0006 1A68     		ldr	r2, [r3]
  85 0008 8242     		cmp	r2, r0
  86 000a FBD3     		bcc	.L13
  87 000c 10B4     		push	{r4}
  88 000e 5C68     		ldr	r4, [r3, #4]
  89 0010 1919     		adds	r1, r3, r4
  90 0012 8842     		cmp	r0, r1
  91 0014 03D1     		bne	.L8
  92 0016 4168     		ldr	r1, [r0, #4]
  93 0018 2144     		add	r1, r1, r4
  94 001a 5960     		str	r1, [r3, #4]
  95 001c 1846     		mov	r0, r3
  96              	.L8:
  97 001e 4468     		ldr	r4, [r0, #4]
  98 0020 0119     		adds	r1, r0, r4
  99 0022 8A42     		cmp	r2, r1
 100 0024 0CD1     		bne	.L9
 101 0026 0B49     		ldr	r1, .L15+4
 102 0028 0968     		ldr	r1, [r1]
 103 002a 8A42     		cmp	r2, r1
 104 002c 06D0     		beq	.L10
 105 002e 5268     		ldr	r2, [r2, #4]
 106 0030 2244     		add	r2, r2, r4
 107 0032 4260     		str	r2, [r0, #4]
 108 0034 1A68     		ldr	r2, [r3]
 109 0036 1268     		ldr	r2, [r2]
 110 0038 0260     		str	r2, [r0]
 111 003a 02E0     		b	.L11
 112              	.L10:
 113 003c 0160     		str	r1, [r0]
 114 003e 00E0     		b	.L11
 115              	.L9:
 116 0040 0260     		str	r2, [r0]
 117              	.L11:
ARM GAS  C:\Users\xiaofei\AppData\Local\Temp\ccowmEjG.s 			page 3


 118 0042 9842     		cmp	r0, r3
 119 0044 00D0     		beq	.L6
 120 0046 1860     		str	r0, [r3]
 121              	.L6:
 122 0048 5DF8044B 		ldr	r4, [sp], #4
 123 004c 7047     		bx	lr
 124              	.L16:
 125 004e 00BF     		.align	2
 126              	.L15:
 127 0050 00000000 		.word	.LANCHOR1
 128 0054 00000000 		.word	.LANCHOR2
 130              		.section	.text.pvPortMalloc,"ax",%progbits
 131              		.align	2
 132              		.global	pvPortMalloc
 133              		.thumb
 134              		.thumb_func
 136              	pvPortMalloc:
 137              		@ args = 0, pretend = 0, frame = 0
 138              		@ frame_needed = 0, uses_anonymous_args = 0
 139 0000 70B5     		push	{r4, r5, r6, lr}
 140 0002 0446     		mov	r4, r0
 141 0004 FFF7FEFF 		bl	vTaskSuspendAll
 142 0008 394B     		ldr	r3, .L36
 143 000a 1B68     		ldr	r3, [r3]
 144 000c 0BB9     		cbnz	r3, .L18
 145 000e FFF7FEFF 		bl	prvHeapInit
 146              	.L18:
 147 0012 384B     		ldr	r3, .L36+4
 148 0014 1B68     		ldr	r3, [r3]
 149 0016 1C42     		tst	r4, r3
 150 0018 53D1     		bne	.L30
 151 001a 94B1     		cbz	r4, .L20
 152 001c 0834     		adds	r4, r4, #8
 153 001e 14F0070F 		tst	r4, #7
 154 0022 0ED0     		beq	.L20
 155 0024 24F00704 		bic	r4, r4, #7
 156 0028 0834     		adds	r4, r4, #8
 157 002a 04F00703 		and	r3, r4, #7
 158 002e 43B1     		cbz	r3, .L20
 159              		.syntax unified
 160              	@ 195 "Middlewares/Third_Party/FreeRTOS/Source/portable/GCC/ARM_CM4F/portmacro.h" 1
 161 0030 4FF05003 			mov r3, #80												
 162 0034 83F31188 		msr basepri, r3											
 163 0038 BFF36F8F 		isb														
 164 003c BFF34F8F 		dsb														
 165              	
 166              	@ 0 "" 2
 167              		.thumb
 168              		.syntax unified
 169              	.L21:
 170 0040 FEE7     		b	.L21
 171              	.L20:
 172 0042 002C     		cmp	r4, #0
 173 0044 3FD0     		beq	.L31
 174 0046 2C4B     		ldr	r3, .L36+8
 175 0048 1B68     		ldr	r3, [r3]
 176 004a 9C42     		cmp	r4, r3
ARM GAS  C:\Users\xiaofei\AppData\Local\Temp\ccowmEjG.s 			page 4


 177 004c 3DD8     		bhi	.L32
 178 004e 2B4B     		ldr	r3, .L36+12
 179 0050 1D68     		ldr	r5, [r3]
 180 0052 01E0     		b	.L23
 181              	.L33:
 182 0054 2B46     		mov	r3, r5
 183 0056 1546     		mov	r5, r2
 184              	.L23:
 185 0058 6A68     		ldr	r2, [r5, #4]
 186 005a 9442     		cmp	r4, r2
 187 005c 02D9     		bls	.L22
 188 005e 2A68     		ldr	r2, [r5]
 189 0060 002A     		cmp	r2, #0
 190 0062 F7D1     		bne	.L33
 191              	.L22:
 192 0064 224A     		ldr	r2, .L36
 193 0066 1268     		ldr	r2, [r2]
 194 0068 9542     		cmp	r5, r2
 195 006a 30D0     		beq	.L34
 196 006c 1E68     		ldr	r6, [r3]
 197 006e 0836     		adds	r6, r6, #8
 198 0070 2A68     		ldr	r2, [r5]
 199 0072 1A60     		str	r2, [r3]
 200 0074 6B68     		ldr	r3, [r5, #4]
 201 0076 1B1B     		subs	r3, r3, r4
 202 0078 102B     		cmp	r3, #16
 203 007a 10D9     		bls	.L24
 204 007c 2819     		adds	r0, r5, r4
 205 007e 10F0070F 		tst	r0, #7
 206 0082 08D0     		beq	.L25
 207              		.syntax unified
 208              	@ 195 "Middlewares/Third_Party/FreeRTOS/Source/portable/GCC/ARM_CM4F/portmacro.h" 1
 209 0084 4FF05003 			mov r3, #80												
 210 0088 83F31188 		msr basepri, r3											
 211 008c BFF36F8F 		isb														
 212 0090 BFF34F8F 		dsb														
 213              	
 214              	@ 0 "" 2
 215              		.thumb
 216              		.syntax unified
 217              	.L26:
 218 0094 FEE7     		b	.L26
 219              	.L25:
 220 0096 4360     		str	r3, [r0, #4]
 221 0098 6C60     		str	r4, [r5, #4]
 222 009a FFF7FEFF 		bl	prvInsertBlockIntoFreeList
 223              	.L24:
 224 009e 6A68     		ldr	r2, [r5, #4]
 225 00a0 1549     		ldr	r1, .L36+8
 226 00a2 0B68     		ldr	r3, [r1]
 227 00a4 9B1A     		subs	r3, r3, r2
 228 00a6 0B60     		str	r3, [r1]
 229 00a8 1549     		ldr	r1, .L36+16
 230 00aa 0968     		ldr	r1, [r1]
 231 00ac 8B42     		cmp	r3, r1
 232 00ae 01D2     		bcs	.L27
 233 00b0 1349     		ldr	r1, .L36+16
ARM GAS  C:\Users\xiaofei\AppData\Local\Temp\ccowmEjG.s 			page 5


 234 00b2 0B60     		str	r3, [r1]
 235              	.L27:
 236 00b4 0F4B     		ldr	r3, .L36+4
 237 00b6 1B68     		ldr	r3, [r3]
 238 00b8 1A43     		orrs	r2, r2, r3
 239 00ba 6A60     		str	r2, [r5, #4]
 240 00bc 0023     		movs	r3, #0
 241 00be 2B60     		str	r3, [r5]
 242 00c0 06E0     		b	.L19
 243              	.L30:
 244 00c2 0026     		movs	r6, #0
 245 00c4 04E0     		b	.L19
 246              	.L31:
 247 00c6 0026     		movs	r6, #0
 248 00c8 02E0     		b	.L19
 249              	.L32:
 250 00ca 0026     		movs	r6, #0
 251 00cc 00E0     		b	.L19
 252              	.L34:
 253 00ce 0026     		movs	r6, #0
 254              	.L19:
 255 00d0 FFF7FEFF 		bl	xTaskResumeAll
 256 00d4 16F0070F 		tst	r6, #7
 257 00d8 08D0     		beq	.L28
 258              		.syntax unified
 259              	@ 195 "Middlewares/Third_Party/FreeRTOS/Source/portable/GCC/ARM_CM4F/portmacro.h" 1
 260 00da 4FF05003 			mov r3, #80												
 261 00de 83F31188 		msr basepri, r3											
 262 00e2 BFF36F8F 		isb														
 263 00e6 BFF34F8F 		dsb														
 264              	
 265              	@ 0 "" 2
 266              		.thumb
 267              		.syntax unified
 268              	.L29:
 269 00ea FEE7     		b	.L29
 270              	.L28:
 271 00ec 3046     		mov	r0, r6
 272 00ee 70BD     		pop	{r4, r5, r6, pc}
 273              	.L37:
 274              		.align	2
 275              	.L36:
 276 00f0 00000000 		.word	.LANCHOR2
 277 00f4 00000000 		.word	.LANCHOR5
 278 00f8 00000000 		.word	.LANCHOR4
 279 00fc 00000000 		.word	.LANCHOR1
 280 0100 00000000 		.word	.LANCHOR3
 282              		.section	.text.vPortFree,"ax",%progbits
 283              		.align	2
 284              		.global	vPortFree
 285              		.thumb
 286              		.thumb_func
 288              	vPortFree:
 289              		@ args = 0, pretend = 0, frame = 0
 290              		@ frame_needed = 0, uses_anonymous_args = 0
 291 0000 A0B3     		cbz	r0, .L45
 292 0002 38B5     		push	{r3, r4, r5, lr}
ARM GAS  C:\Users\xiaofei\AppData\Local\Temp\ccowmEjG.s 			page 6


 293 0004 0346     		mov	r3, r0
 294 0006 A0F10805 		sub	r5, r0, #8
 295 000a 50F8042C 		ldr	r2, [r0, #-4]
 296 000e 1849     		ldr	r1, .L46
 297 0010 0968     		ldr	r1, [r1]
 298 0012 12EA0104 		ands	r4, r2, r1
 299 0016 08D1     		bne	.L40
 300              		.syntax unified
 301              	@ 195 "Middlewares/Third_Party/FreeRTOS/Source/portable/GCC/ARM_CM4F/portmacro.h" 1
 302 0018 4FF05003 			mov r3, #80												
 303 001c 83F31188 		msr basepri, r3											
 304 0020 BFF36F8F 		isb														
 305 0024 BFF34F8F 		dsb														
 306              	
 307              	@ 0 "" 2
 308              		.thumb
 309              		.syntax unified
 310              	.L41:
 311 0028 FEE7     		b	.L41
 312              	.L40:
 313 002a 50F8080C 		ldr	r0, [r0, #-8]
 314 002e 40B1     		cbz	r0, .L42
 315              		.syntax unified
 316              	@ 195 "Middlewares/Third_Party/FreeRTOS/Source/portable/GCC/ARM_CM4F/portmacro.h" 1
 317 0030 4FF05003 			mov r3, #80												
 318 0034 83F31188 		msr basepri, r3											
 319 0038 BFF36F8F 		isb														
 320 003c BFF34F8F 		dsb														
 321              	
 322              	@ 0 "" 2
 323              		.thumb
 324              		.syntax unified
 325              	.L43:
 326 0040 FEE7     		b	.L43
 327              	.L42:
 328 0042 94B1     		cbz	r4, .L38
 329 0044 88B9     		cbnz	r0, .L38
 330 0046 1C46     		mov	r4, r3
 331 0048 22EA0102 		bic	r2, r2, r1
 332 004c 43F8042C 		str	r2, [r3, #-4]
 333 0050 FFF7FEFF 		bl	vTaskSuspendAll
 334 0054 54F8043C 		ldr	r3, [r4, #-4]
 335 0058 064A     		ldr	r2, .L46+4
 336 005a 1168     		ldr	r1, [r2]
 337 005c 0B44     		add	r3, r3, r1
 338 005e 1360     		str	r3, [r2]
 339 0060 2846     		mov	r0, r5
 340 0062 FFF7FEFF 		bl	prvInsertBlockIntoFreeList
 341 0066 FFF7FEFF 		bl	xTaskResumeAll
 342              	.L38:
 343 006a 38BD     		pop	{r3, r4, r5, pc}
 344              	.L45:
 345 006c 7047     		bx	lr
 346              	.L47:
 347 006e 00BF     		.align	2
 348              	.L46:
 349 0070 00000000 		.word	.LANCHOR5
ARM GAS  C:\Users\xiaofei\AppData\Local\Temp\ccowmEjG.s 			page 7


 350 0074 00000000 		.word	.LANCHOR4
 352              		.section	.text.xPortGetFreeHeapSize,"ax",%progbits
 353              		.align	2
 354              		.global	xPortGetFreeHeapSize
 355              		.thumb
 356              		.thumb_func
 358              	xPortGetFreeHeapSize:
 359              		@ args = 0, pretend = 0, frame = 0
 360              		@ frame_needed = 0, uses_anonymous_args = 0
 361              		@ link register save eliminated.
 362 0000 014B     		ldr	r3, .L49
 363 0002 1868     		ldr	r0, [r3]
 364 0004 7047     		bx	lr
 365              	.L50:
 366 0006 00BF     		.align	2
 367              	.L49:
 368 0008 00000000 		.word	.LANCHOR4
 370              		.section	.text.xPortGetMinimumEverFreeHeapSize,"ax",%progbits
 371              		.align	2
 372              		.global	xPortGetMinimumEverFreeHeapSize
 373              		.thumb
 374              		.thumb_func
 376              	xPortGetMinimumEverFreeHeapSize:
 377              		@ args = 0, pretend = 0, frame = 0
 378              		@ frame_needed = 0, uses_anonymous_args = 0
 379              		@ link register save eliminated.
 380 0000 014B     		ldr	r3, .L52
 381 0002 1868     		ldr	r0, [r3]
 382 0004 7047     		bx	lr
 383              	.L53:
 384 0006 00BF     		.align	2
 385              	.L52:
 386 0008 00000000 		.word	.LANCHOR3
 388              		.section	.text.vPortInitialiseBlocks,"ax",%progbits
 389              		.align	2
 390              		.global	vPortInitialiseBlocks
 391              		.thumb
 392              		.thumb_func
 394              	vPortInitialiseBlocks:
 395              		@ args = 0, pretend = 0, frame = 0
 396              		@ frame_needed = 0, uses_anonymous_args = 0
 397              		@ link register save eliminated.
 398 0000 7047     		bx	lr
 400 0002 00BF     		.section	.bss.xFreeBytesRemaining,"aw",%nobits
 401              		.align	2
 402              		.set	.LANCHOR4,. + 0
 405              	xFreeBytesRemaining:
 406 0000 00000000 		.space	4
 407              		.section	.bss.pxEnd,"aw",%nobits
 408              		.align	2
 409              		.set	.LANCHOR2,. + 0
 412              	pxEnd:
 413 0000 00000000 		.space	4
 414              		.section	.bss.xStart,"aw",%nobits
 415              		.align	2
 416              		.set	.LANCHOR1,. + 0
 419              	xStart:
ARM GAS  C:\Users\xiaofei\AppData\Local\Temp\ccowmEjG.s 			page 8


 420 0000 00000000 		.space	8
 420      00000000 
 421              		.section	.bss.ucHeap,"aw",%nobits
 422              		.align	2
 423              		.set	.LANCHOR0,. + 0
 426              	ucHeap:
 427 0000 00000000 		.space	15360
 427      00000000 
 427      00000000 
 427      00000000 
 427      00000000 
 428              		.section	.bss.xBlockAllocatedBit,"aw",%nobits
 429              		.align	2
 430              		.set	.LANCHOR5,. + 0
 433              	xBlockAllocatedBit:
 434 0000 00000000 		.space	4
 435              		.section	.bss.xMinimumEverFreeBytesRemaining,"aw",%nobits
 436              		.align	2
 437              		.set	.LANCHOR3,. + 0
 440              	xMinimumEverFreeBytesRemaining:
 441 0000 00000000 		.space	4
 442              		.ident	"GCC: (GNU Tools for ARM Embedded Processors) 5.4.1 20160919 (release) [ARM/embedded-5-bran
ARM GAS  C:\Users\xiaofei\AppData\Local\Temp\ccowmEjG.s 			page 9

