ARM GAS  C:\Users\xiaofei\AppData\Local\Temp\cc7pPSE1.s 			page 1


   1              		.syntax unified
   2              		.cpu cortex-m7
   3              		.eabi_attribute 28, 1
   4              		.fpu fpv5-d16
   5              		.eabi_attribute 20, 1
   6              		.eabi_attribute 21, 1
   7              		.eabi_attribute 23, 3
   8              		.eabi_attribute 24, 1
   9              		.eabi_attribute 25, 1
  10              		.eabi_attribute 26, 1
  11              		.eabi_attribute 30, 1
  12              		.eabi_attribute 34, 1
  13              		.eabi_attribute 18, 4
  14              		.thumb
  15              		.syntax unified
  16              		.file	"list.c"
  17              		.section	.text.vListInitialise,"ax",%progbits
  18              		.align	2
  19              		.global	vListInitialise
  20              		.thumb
  21              		.thumb_func
  23              	vListInitialise:
  24              		@ args = 0, pretend = 0, frame = 0
  25              		@ frame_needed = 0, uses_anonymous_args = 0
  26              		@ link register save eliminated.
  27 0000 00F10803 		add	r3, r0, #8
  28 0004 4360     		str	r3, [r0, #4]
  29 0006 4FF0FF32 		mov	r2, #-1
  30 000a 8260     		str	r2, [r0, #8]
  31 000c C360     		str	r3, [r0, #12]
  32 000e 0361     		str	r3, [r0, #16]
  33 0010 0023     		movs	r3, #0
  34 0012 0360     		str	r3, [r0]
  35 0014 7047     		bx	lr
  37 0016 00BF     		.section	.text.vListInitialiseItem,"ax",%progbits
  38              		.align	2
  39              		.global	vListInitialiseItem
  40              		.thumb
  41              		.thumb_func
  43              	vListInitialiseItem:
  44              		@ args = 0, pretend = 0, frame = 0
  45              		@ frame_needed = 0, uses_anonymous_args = 0
  46              		@ link register save eliminated.
  47 0000 0023     		movs	r3, #0
  48 0002 0361     		str	r3, [r0, #16]
  49 0004 7047     		bx	lr
  51 0006 00BF     		.section	.text.vListInsertEnd,"ax",%progbits
  52              		.align	2
  53              		.global	vListInsertEnd
  54              		.thumb
  55              		.thumb_func
  57              	vListInsertEnd:
  58              		@ args = 0, pretend = 0, frame = 0
  59              		@ frame_needed = 0, uses_anonymous_args = 0
  60              		@ link register save eliminated.
  61 0000 4368     		ldr	r3, [r0, #4]
  62 0002 4B60     		str	r3, [r1, #4]
ARM GAS  C:\Users\xiaofei\AppData\Local\Temp\cc7pPSE1.s 			page 2


  63 0004 9A68     		ldr	r2, [r3, #8]
  64 0006 8A60     		str	r2, [r1, #8]
  65 0008 9A68     		ldr	r2, [r3, #8]
  66 000a 5160     		str	r1, [r2, #4]
  67 000c 9960     		str	r1, [r3, #8]
  68 000e 0861     		str	r0, [r1, #16]
  69 0010 0368     		ldr	r3, [r0]
  70 0012 0133     		adds	r3, r3, #1
  71 0014 0360     		str	r3, [r0]
  72 0016 7047     		bx	lr
  74              		.section	.text.vListInsert,"ax",%progbits
  75              		.align	2
  76              		.global	vListInsert
  77              		.thumb
  78              		.thumb_func
  80              	vListInsert:
  81              		@ args = 0, pretend = 0, frame = 0
  82              		@ frame_needed = 0, uses_anonymous_args = 0
  83              		@ link register save eliminated.
  84 0000 30B4     		push	{r4, r5}
  85 0002 0D68     		ldr	r5, [r1]
  86 0004 B5F1FF3F 		cmp	r5, #-1
  87 0008 01D1     		bne	.L5
  88 000a 0269     		ldr	r2, [r0, #16]
  89 000c 07E0     		b	.L6
  90              	.L5:
  91 000e 00F10802 		add	r2, r0, #8
  92 0012 00E0     		b	.L7
  93              	.L8:
  94 0014 1A46     		mov	r2, r3
  95              	.L7:
  96 0016 5368     		ldr	r3, [r2, #4]
  97 0018 1C68     		ldr	r4, [r3]
  98 001a A542     		cmp	r5, r4
  99 001c FAD2     		bcs	.L8
 100              	.L6:
 101 001e 5368     		ldr	r3, [r2, #4]
 102 0020 4B60     		str	r3, [r1, #4]
 103 0022 9960     		str	r1, [r3, #8]
 104 0024 8A60     		str	r2, [r1, #8]
 105 0026 5160     		str	r1, [r2, #4]
 106 0028 0861     		str	r0, [r1, #16]
 107 002a 0368     		ldr	r3, [r0]
 108 002c 0133     		adds	r3, r3, #1
 109 002e 0360     		str	r3, [r0]
 110 0030 30BC     		pop	{r4, r5}
 111 0032 7047     		bx	lr
 113              		.section	.text.uxListRemove,"ax",%progbits
 114              		.align	2
 115              		.global	uxListRemove
 116              		.thumb
 117              		.thumb_func
 119              	uxListRemove:
 120              		@ args = 0, pretend = 0, frame = 0
 121              		@ frame_needed = 0, uses_anonymous_args = 0
 122              		@ link register save eliminated.
 123 0000 0369     		ldr	r3, [r0, #16]
ARM GAS  C:\Users\xiaofei\AppData\Local\Temp\cc7pPSE1.s 			page 3


 124 0002 4268     		ldr	r2, [r0, #4]
 125 0004 8168     		ldr	r1, [r0, #8]
 126 0006 9160     		str	r1, [r2, #8]
 127 0008 8268     		ldr	r2, [r0, #8]
 128 000a 4168     		ldr	r1, [r0, #4]
 129 000c 5160     		str	r1, [r2, #4]
 130 000e 5A68     		ldr	r2, [r3, #4]
 131 0010 9042     		cmp	r0, r2
 132 0012 01D1     		bne	.L11
 133 0014 8268     		ldr	r2, [r0, #8]
 134 0016 5A60     		str	r2, [r3, #4]
 135              	.L11:
 136 0018 0022     		movs	r2, #0
 137 001a 0261     		str	r2, [r0, #16]
 138 001c 1A68     		ldr	r2, [r3]
 139 001e 013A     		subs	r2, r2, #1
 140 0020 1A60     		str	r2, [r3]
 141 0022 1868     		ldr	r0, [r3]
 142 0024 7047     		bx	lr
 144 0026 00BF     		.ident	"GCC: (GNU Tools for ARM Embedded Processors) 5.4.1 20160919 (release) [ARM/embedded-5-bran
ARM GAS  C:\Users\xiaofei\AppData\Local\Temp\cc7pPSE1.s 			page 4

