ARM GAS  C:\Users\xiaofei\AppData\Local\Temp\ccPY5Cl3.s 			page 1


   1              		.syntax unified
   2              		.cpu cortex-m7
   3              		.eabi_attribute 28, 1
   4              		.fpu fpv5-d16
   5              		.eabi_attribute 20, 1
   6              		.eabi_attribute 21, 1
   7              		.eabi_attribute 23, 3
   8              		.eabi_attribute 24, 1
   9              		.eabi_attribute 25, 1
  10              		.eabi_attribute 26, 1
  11              		.eabi_attribute 30, 1
  12              		.eabi_attribute 34, 1
  13              		.eabi_attribute 18, 4
  14              		.thumb
  15              		.syntax unified
  16              		.file	"queue.c"
  17              		.section	.text.prvGetDisinheritPriorityAfterTimeout,"ax",%progbits
  18              		.align	2
  19              		.thumb
  20              		.thumb_func
  22              	prvGetDisinheritPriorityAfterTimeout:
  23              		@ args = 0, pretend = 0, frame = 0
  24              		@ frame_needed = 0, uses_anonymous_args = 0
  25              		@ link register save eliminated.
  26 0000 436A     		ldr	r3, [r0, #36]
  27 0002 23B1     		cbz	r3, .L3
  28 0004 036B     		ldr	r3, [r0, #48]
  29 0006 1868     		ldr	r0, [r3]
  30 0008 C0F10700 		rsb	r0, r0, #7
  31 000c 7047     		bx	lr
  32              	.L3:
  33 000e 0020     		movs	r0, #0
  34 0010 7047     		bx	lr
  36 0012 00BF     		.section	.text.prvIsQueueFull,"ax",%progbits
  37              		.align	2
  38              		.thumb
  39              		.thumb_func
  41              	prvIsQueueFull:
  42              		@ args = 0, pretend = 0, frame = 0
  43              		@ frame_needed = 0, uses_anonymous_args = 0
  44 0000 10B5     		push	{r4, lr}
  45 0002 0446     		mov	r4, r0
  46 0004 FFF7FEFF 		bl	vPortEnterCritical
  47 0008 A26B     		ldr	r2, [r4, #56]
  48 000a E36B     		ldr	r3, [r4, #60]
  49 000c 9A42     		cmp	r2, r3
  50 000e 01D1     		bne	.L6
  51 0010 0124     		movs	r4, #1
  52 0012 00E0     		b	.L5
  53              	.L6:
  54 0014 0024     		movs	r4, #0
  55              	.L5:
  56 0016 FFF7FEFF 		bl	vPortExitCritical
  57 001a 2046     		mov	r0, r4
  58 001c 10BD     		pop	{r4, pc}
  60 001e 00BF     		.section	.text.prvIsQueueEmpty,"ax",%progbits
  61              		.align	2
ARM GAS  C:\Users\xiaofei\AppData\Local\Temp\ccPY5Cl3.s 			page 2


  62              		.thumb
  63              		.thumb_func
  65              	prvIsQueueEmpty:
  66              		@ args = 0, pretend = 0, frame = 0
  67              		@ frame_needed = 0, uses_anonymous_args = 0
  68 0000 10B5     		push	{r4, lr}
  69 0002 0446     		mov	r4, r0
  70 0004 FFF7FEFF 		bl	vPortEnterCritical
  71 0008 A36B     		ldr	r3, [r4, #56]
  72 000a 0BB9     		cbnz	r3, .L10
  73 000c 0124     		movs	r4, #1
  74 000e 00E0     		b	.L9
  75              	.L10:
  76 0010 0024     		movs	r4, #0
  77              	.L9:
  78 0012 FFF7FEFF 		bl	vPortExitCritical
  79 0016 2046     		mov	r0, r4
  80 0018 10BD     		pop	{r4, pc}
  82 001a 00BF     		.section	.text.prvCopyDataToQueue,"ax",%progbits
  83              		.align	2
  84              		.thumb
  85              		.thumb_func
  87              	prvCopyDataToQueue:
  88              		@ args = 0, pretend = 0, frame = 0
  89              		@ frame_needed = 0, uses_anonymous_args = 0
  90 0000 70B5     		push	{r4, r5, r6, lr}
  91 0002 0446     		mov	r4, r0
  92 0004 1646     		mov	r6, r2
  93 0006 856B     		ldr	r5, [r0, #56]
  94 0008 026C     		ldr	r2, [r0, #64]
  95 000a 3AB9     		cbnz	r2, .L13
  96 000c 0368     		ldr	r3, [r0]
  97 000e 43BB     		cbnz	r3, .L17
  98 0010 8068     		ldr	r0, [r0, #8]
  99 0012 FFF7FEFF 		bl	xTaskPriorityDisinherit
 100 0016 0023     		movs	r3, #0
 101 0018 A360     		str	r3, [r4, #8]
 102 001a 29E0     		b	.L14
 103              	.L13:
 104 001c 6EB9     		cbnz	r6, .L15
 105 001e 4068     		ldr	r0, [r0, #4]
 106 0020 FFF7FEFF 		bl	memcpy
 107 0024 6268     		ldr	r2, [r4, #4]
 108 0026 236C     		ldr	r3, [r4, #64]
 109 0028 1344     		add	r3, r3, r2
 110 002a 6360     		str	r3, [r4, #4]
 111 002c A268     		ldr	r2, [r4, #8]
 112 002e 9342     		cmp	r3, r2
 113 0030 19D3     		bcc	.L18
 114 0032 2368     		ldr	r3, [r4]
 115 0034 6360     		str	r3, [r4, #4]
 116 0036 0020     		movs	r0, #0
 117 0038 1AE0     		b	.L14
 118              	.L15:
 119 003a C068     		ldr	r0, [r0, #12]
 120 003c FFF7FEFF 		bl	memcpy
 121 0040 236C     		ldr	r3, [r4, #64]
ARM GAS  C:\Users\xiaofei\AppData\Local\Temp\ccPY5Cl3.s 			page 3


 122 0042 5B42     		negs	r3, r3
 123 0044 E268     		ldr	r2, [r4, #12]
 124 0046 1A44     		add	r2, r2, r3
 125 0048 E260     		str	r2, [r4, #12]
 126 004a 2168     		ldr	r1, [r4]
 127 004c 8A42     		cmp	r2, r1
 128 004e 02D2     		bcs	.L16
 129 0050 A268     		ldr	r2, [r4, #8]
 130 0052 1344     		add	r3, r3, r2
 131 0054 E360     		str	r3, [r4, #12]
 132              	.L16:
 133 0056 022E     		cmp	r6, #2
 134 0058 07D1     		bne	.L19
 135 005a 45B1     		cbz	r5, .L20
 136 005c 013D     		subs	r5, r5, #1
 137 005e 0020     		movs	r0, #0
 138 0060 06E0     		b	.L14
 139              	.L17:
 140 0062 0020     		movs	r0, #0
 141 0064 04E0     		b	.L14
 142              	.L18:
 143 0066 0020     		movs	r0, #0
 144 0068 02E0     		b	.L14
 145              	.L19:
 146 006a 0020     		movs	r0, #0
 147 006c 00E0     		b	.L14
 148              	.L20:
 149 006e 0020     		movs	r0, #0
 150              	.L14:
 151 0070 0135     		adds	r5, r5, #1
 152 0072 A563     		str	r5, [r4, #56]
 153 0074 70BD     		pop	{r4, r5, r6, pc}
 155 0076 00BF     		.section	.text.prvCopyDataFromQueue,"ax",%progbits
 156              		.align	2
 157              		.thumb
 158              		.thumb_func
 160              	prvCopyDataFromQueue:
 161              		@ args = 0, pretend = 0, frame = 0
 162              		@ frame_needed = 0, uses_anonymous_args = 0
 163 0000 026C     		ldr	r2, [r0, #64]
 164 0002 72B1     		cbz	r2, .L26
 165 0004 10B5     		push	{r4, lr}
 166 0006 0346     		mov	r3, r0
 167 0008 C468     		ldr	r4, [r0, #12]
 168 000a 1444     		add	r4, r4, r2
 169 000c C460     		str	r4, [r0, #12]
 170 000e 8068     		ldr	r0, [r0, #8]
 171 0010 8442     		cmp	r4, r0
 172 0012 01D3     		bcc	.L24
 173 0014 1868     		ldr	r0, [r3]
 174 0016 D860     		str	r0, [r3, #12]
 175              	.L24:
 176 0018 0846     		mov	r0, r1
 177 001a D968     		ldr	r1, [r3, #12]
 178 001c FFF7FEFF 		bl	memcpy
 179 0020 10BD     		pop	{r4, pc}
 180              	.L26:
ARM GAS  C:\Users\xiaofei\AppData\Local\Temp\ccPY5Cl3.s 			page 4


 181 0022 7047     		bx	lr
 183              		.section	.text.prvUnlockQueue,"ax",%progbits
 184              		.align	2
 185              		.thumb
 186              		.thumb_func
 188              	prvUnlockQueue:
 189              		@ args = 0, pretend = 0, frame = 0
 190              		@ frame_needed = 0, uses_anonymous_args = 0
 191 0000 38B5     		push	{r3, r4, r5, lr}
 192 0002 0546     		mov	r5, r0
 193 0004 FFF7FEFF 		bl	vPortEnterCritical
 194 0008 95F84540 		ldrb	r4, [r5, #69]	@ zero_extendqisi2
 195 000c 64B2     		sxtb	r4, r4
 196 000e 0AE0     		b	.L28
 197              	.L31:
 198 0010 6B6A     		ldr	r3, [r5, #36]
 199 0012 53B1     		cbz	r3, .L29
 200 0014 05F12400 		add	r0, r5, #36
 201 0018 FFF7FEFF 		bl	xTaskRemoveFromEventList
 202 001c 08B1     		cbz	r0, .L30
 203 001e FFF7FEFF 		bl	vTaskMissedYield
 204              	.L30:
 205 0022 013C     		subs	r4, r4, #1
 206 0024 64B2     		sxtb	r4, r4
 207              	.L28:
 208 0026 002C     		cmp	r4, #0
 209 0028 F2DC     		bgt	.L31
 210              	.L29:
 211 002a FF23     		movs	r3, #255
 212 002c 85F84530 		strb	r3, [r5, #69]
 213 0030 FFF7FEFF 		bl	vPortExitCritical
 214 0034 FFF7FEFF 		bl	vPortEnterCritical
 215 0038 95F84440 		ldrb	r4, [r5, #68]	@ zero_extendqisi2
 216 003c 64B2     		sxtb	r4, r4
 217 003e 0AE0     		b	.L32
 218              	.L35:
 219 0040 2B69     		ldr	r3, [r5, #16]
 220 0042 53B1     		cbz	r3, .L33
 221 0044 05F11000 		add	r0, r5, #16
 222 0048 FFF7FEFF 		bl	xTaskRemoveFromEventList
 223 004c 08B1     		cbz	r0, .L34
 224 004e FFF7FEFF 		bl	vTaskMissedYield
 225              	.L34:
 226 0052 013C     		subs	r4, r4, #1
 227 0054 64B2     		sxtb	r4, r4
 228              	.L32:
 229 0056 002C     		cmp	r4, #0
 230 0058 F2DC     		bgt	.L35
 231              	.L33:
 232 005a FF23     		movs	r3, #255
 233 005c 85F84430 		strb	r3, [r5, #68]
 234 0060 FFF7FEFF 		bl	vPortExitCritical
 235 0064 38BD     		pop	{r3, r4, r5, pc}
 237 0066 00BF     		.section	.text.xQueueGenericReset,"ax",%progbits
 238              		.align	2
 239              		.global	xQueueGenericReset
 240              		.thumb
ARM GAS  C:\Users\xiaofei\AppData\Local\Temp\ccPY5Cl3.s 			page 5


 241              		.thumb_func
 243              	xQueueGenericReset:
 244              		@ args = 0, pretend = 0, frame = 0
 245              		@ frame_needed = 0, uses_anonymous_args = 0
 246 0000 38B5     		push	{r3, r4, r5, lr}
 247 0002 40B9     		cbnz	r0, .L38
 248              		.syntax unified
 249              	@ 195 "Middlewares/Third_Party/FreeRTOS/Source/portable/GCC/ARM_CM4F/portmacro.h" 1
 250 0004 4FF05003 			mov r3, #80												
 251 0008 83F31188 		msr basepri, r3											
 252 000c BFF36F8F 		isb														
 253 0010 BFF34F8F 		dsb														
 254              	
 255              	@ 0 "" 2
 256              		.thumb
 257              		.syntax unified
 258              	.L39:
 259 0014 FEE7     		b	.L39
 260              	.L38:
 261 0016 0446     		mov	r4, r0
 262 0018 0D46     		mov	r5, r1
 263 001a FFF7FEFF 		bl	vPortEnterCritical
 264 001e 2168     		ldr	r1, [r4]
 265 0020 E26B     		ldr	r2, [r4, #60]
 266 0022 236C     		ldr	r3, [r4, #64]
 267 0024 03FB0210 		mla	r0, r3, r2, r1
 268 0028 A060     		str	r0, [r4, #8]
 269 002a 0020     		movs	r0, #0
 270 002c A063     		str	r0, [r4, #56]
 271 002e 6160     		str	r1, [r4, #4]
 272 0030 013A     		subs	r2, r2, #1
 273 0032 02FB0313 		mla	r3, r2, r3, r1
 274 0036 E360     		str	r3, [r4, #12]
 275 0038 FF23     		movs	r3, #255
 276 003a 84F84430 		strb	r3, [r4, #68]
 277 003e 84F84530 		strb	r3, [r4, #69]
 278 0042 7DB9     		cbnz	r5, .L40
 279 0044 2369     		ldr	r3, [r4, #16]
 280 0046 ABB1     		cbz	r3, .L41
 281 0048 04F11000 		add	r0, r4, #16
 282 004c FFF7FEFF 		bl	xTaskRemoveFromEventList
 283 0050 80B1     		cbz	r0, .L41
 284 0052 4FF08052 		mov	r2, #268435456
 285 0056 094B     		ldr	r3, .L43
 286 0058 1A60     		str	r2, [r3]
 287              		.syntax unified
 288              	@ 281 "Middlewares/Third_Party/FreeRTOS/Source/queue.c" 1
 289 005a BFF34F8F 		dsb
 290              	@ 0 "" 2
 291              	@ 281 "Middlewares/Third_Party/FreeRTOS/Source/queue.c" 1
 292 005e BFF36F8F 		isb
 293              	@ 0 "" 2
 294              		.thumb
 295              		.syntax unified
 296 0062 07E0     		b	.L41
 297              	.L40:
 298 0064 04F11000 		add	r0, r4, #16
ARM GAS  C:\Users\xiaofei\AppData\Local\Temp\ccPY5Cl3.s 			page 6


 299 0068 FFF7FEFF 		bl	vListInitialise
 300 006c 04F12400 		add	r0, r4, #36
 301 0070 FFF7FEFF 		bl	vListInitialise
 302              	.L41:
 303 0074 FFF7FEFF 		bl	vPortExitCritical
 304 0078 0120     		movs	r0, #1
 305 007a 38BD     		pop	{r3, r4, r5, pc}
 306              	.L44:
 307              		.align	2
 308              	.L43:
 309 007c 04ED00E0 		.word	-536810236
 311              		.section	.text.prvInitialiseNewQueue,"ax",%progbits
 312              		.align	2
 313              		.thumb
 314              		.thumb_func
 316              	prvInitialiseNewQueue:
 317              		@ args = 4, pretend = 0, frame = 0
 318              		@ frame_needed = 0, uses_anonymous_args = 0
 319 0000 10B5     		push	{r4, lr}
 320 0002 029B     		ldr	r3, [sp, #8]
 321 0004 0C46     		mov	r4, r1
 322 0006 09B9     		cbnz	r1, .L46
 323 0008 1B60     		str	r3, [r3]
 324 000a 00E0     		b	.L47
 325              	.L46:
 326 000c 1A60     		str	r2, [r3]
 327              	.L47:
 328 000e D863     		str	r0, [r3, #60]
 329 0010 1C64     		str	r4, [r3, #64]
 330 0012 0121     		movs	r1, #1
 331 0014 1846     		mov	r0, r3
 332 0016 FFF7FEFF 		bl	xQueueGenericReset
 333 001a 10BD     		pop	{r4, pc}
 335              		.section	.text.xQueueGenericCreateStatic,"ax",%progbits
 336              		.align	2
 337              		.global	xQueueGenericCreateStatic
 338              		.thumb
 339              		.thumb_func
 341              	xQueueGenericCreateStatic:
 342              		@ args = 4, pretend = 0, frame = 8
 343              		@ frame_needed = 0, uses_anonymous_args = 0
 344 0000 40B9     		cbnz	r0, .L50
 345              		.syntax unified
 346              	@ 195 "Middlewares/Third_Party/FreeRTOS/Source/portable/GCC/ARM_CM4F/portmacro.h" 1
 347 0002 4FF05003 			mov r3, #80												
 348 0006 83F31188 		msr basepri, r3											
 349 000a BFF36F8F 		isb														
 350 000e BFF34F8F 		dsb														
 351              	
 352              	@ 0 "" 2
 353              		.thumb
 354              		.syntax unified
 355              	.L51:
 356 0012 FEE7     		b	.L51
 357              	.L50:
 358 0014 10B5     		push	{r4, lr}
 359 0016 84B0     		sub	sp, sp, #16
ARM GAS  C:\Users\xiaofei\AppData\Local\Temp\ccPY5Cl3.s 			page 7


 360 0018 0446     		mov	r4, r0
 361 001a 43B9     		cbnz	r3, .L52
 362              		.syntax unified
 363              	@ 195 "Middlewares/Third_Party/FreeRTOS/Source/portable/GCC/ARM_CM4F/portmacro.h" 1
 364 001c 4FF05003 			mov r3, #80												
 365 0020 83F31188 		msr basepri, r3											
 366 0024 BFF36F8F 		isb														
 367 0028 BFF34F8F 		dsb														
 368              	
 369              	@ 0 "" 2
 370              		.thumb
 371              		.syntax unified
 372              	.L53:
 373 002c FEE7     		b	.L53
 374              	.L52:
 375 002e 081C     		adds	r0, r1, #0
 376 0030 18BF     		it	ne
 377 0032 0120     		movne	r0, #1
 378 0034 002A     		cmp	r2, #0
 379 0036 08BF     		it	eq
 380 0038 40F00100 		orreq	r0, r0, #1
 381 003c 40B9     		cbnz	r0, .L54
 382              		.syntax unified
 383              	@ 195 "Middlewares/Third_Party/FreeRTOS/Source/portable/GCC/ARM_CM4F/portmacro.h" 1
 384 003e 4FF05003 			mov r3, #80												
 385 0042 83F31188 		msr basepri, r3											
 386 0046 BFF36F8F 		isb														
 387 004a BFF34F8F 		dsb														
 388              	
 389              	@ 0 "" 2
 390              		.thumb
 391              		.syntax unified
 392              	.L55:
 393 004e FEE7     		b	.L55
 394              	.L54:
 395 0050 B1FA81F0 		clz	r0, r1
 396 0054 4009     		lsrs	r0, r0, #5
 397 0056 002A     		cmp	r2, #0
 398 0058 18BF     		it	ne
 399 005a 40F00100 		orrne	r0, r0, #1
 400 005e 40B9     		cbnz	r0, .L56
 401              		.syntax unified
 402              	@ 195 "Middlewares/Third_Party/FreeRTOS/Source/portable/GCC/ARM_CM4F/portmacro.h" 1
 403 0060 4FF05003 			mov r3, #80												
 404 0064 83F31188 		msr basepri, r3											
 405 0068 BFF36F8F 		isb														
 406 006c BFF34F8F 		dsb														
 407              	
 408              	@ 0 "" 2
 409              		.thumb
 410              		.syntax unified
 411              	.L57:
 412 0070 FEE7     		b	.L57
 413              	.L56:
 414 0072 4820     		movs	r0, #72
 415 0074 0390     		str	r0, [sp, #12]
 416 0076 0398     		ldr	r0, [sp, #12]
ARM GAS  C:\Users\xiaofei\AppData\Local\Temp\ccPY5Cl3.s 			page 8


 417 0078 4828     		cmp	r0, #72
 418 007a 08D0     		beq	.L58
 419              		.syntax unified
 420              	@ 195 "Middlewares/Third_Party/FreeRTOS/Source/portable/GCC/ARM_CM4F/portmacro.h" 1
 421 007c 4FF05003 			mov r3, #80												
 422 0080 83F31188 		msr basepri, r3											
 423 0084 BFF36F8F 		isb														
 424 0088 BFF34F8F 		dsb														
 425              	
 426              	@ 0 "" 2
 427              		.thumb
 428              		.syntax unified
 429              	.L59:
 430 008c FEE7     		b	.L59
 431              	.L58:
 432 008e 2046     		mov	r0, r4
 433 0090 1C46     		mov	r4, r3
 434 0092 039B     		ldr	r3, [sp, #12]
 435 0094 3CB1     		cbz	r4, .L60
 436 0096 0123     		movs	r3, #1
 437 0098 84F84630 		strb	r3, [r4, #70]
 438 009c 0094     		str	r4, [sp]
 439 009e 9DF81830 		ldrb	r3, [sp, #24]	@ zero_extendqisi2
 440 00a2 FFF7FEFF 		bl	prvInitialiseNewQueue
 441              	.L60:
 442 00a6 2046     		mov	r0, r4
 443 00a8 04B0     		add	sp, sp, #16
 444              		@ sp needed
 445 00aa 10BD     		pop	{r4, pc}
 447              		.section	.text.xQueueGenericCreate,"ax",%progbits
 448              		.align	2
 449              		.global	xQueueGenericCreate
 450              		.thumb
 451              		.thumb_func
 453              	xQueueGenericCreate:
 454              		@ args = 0, pretend = 0, frame = 0
 455              		@ frame_needed = 0, uses_anonymous_args = 0
 456 0000 40B9     		cbnz	r0, .L63
 457              		.syntax unified
 458              	@ 195 "Middlewares/Third_Party/FreeRTOS/Source/portable/GCC/ARM_CM4F/portmacro.h" 1
 459 0002 4FF05003 			mov r3, #80												
 460 0006 83F31188 		msr basepri, r3											
 461 000a BFF36F8F 		isb														
 462 000e BFF34F8F 		dsb														
 463              	
 464              	@ 0 "" 2
 465              		.thumb
 466              		.syntax unified
 467              	.L64:
 468 0012 FEE7     		b	.L64
 469              	.L63:
 470 0014 F0B5     		push	{r4, r5, r6, r7, lr}
 471 0016 83B0     		sub	sp, sp, #12
 472 0018 0346     		mov	r3, r0
 473 001a 11B1     		cbz	r1, .L67
 474 001c 01FB00F0 		mul	r0, r1, r0
 475 0020 00E0     		b	.L65
ARM GAS  C:\Users\xiaofei\AppData\Local\Temp\ccPY5Cl3.s 			page 9


 476              	.L67:
 477 0022 0020     		movs	r0, #0
 478              	.L65:
 479 0024 1E46     		mov	r6, r3
 480 0026 1746     		mov	r7, r2
 481 0028 0C46     		mov	r4, r1
 482 002a 4830     		adds	r0, r0, #72
 483 002c FFF7FEFF 		bl	pvPortMalloc
 484 0030 0546     		mov	r5, r0
 485 0032 50B1     		cbz	r0, .L66
 486 0034 0023     		movs	r3, #0
 487 0036 80F84630 		strb	r3, [r0, #70]
 488 003a 0090     		str	r0, [sp]
 489 003c 3B46     		mov	r3, r7
 490 003e 00F14802 		add	r2, r0, #72
 491 0042 2146     		mov	r1, r4
 492 0044 3046     		mov	r0, r6
 493 0046 FFF7FEFF 		bl	prvInitialiseNewQueue
 494              	.L66:
 495 004a 2846     		mov	r0, r5
 496 004c 03B0     		add	sp, sp, #12
 497              		@ sp needed
 498 004e F0BD     		pop	{r4, r5, r6, r7, pc}
 500              		.section	.text.xQueueGenericSend,"ax",%progbits
 501              		.align	2
 502              		.global	xQueueGenericSend
 503              		.thumb
 504              		.thumb_func
 506              	xQueueGenericSend:
 507              		@ args = 0, pretend = 0, frame = 16
 508              		@ frame_needed = 0, uses_anonymous_args = 0
 509 0000 F0B5     		push	{r4, r5, r6, r7, lr}
 510 0002 85B0     		sub	sp, sp, #20
 511 0004 0192     		str	r2, [sp, #4]
 512 0006 40B9     		cbnz	r0, .L70
 513              		.syntax unified
 514              	@ 195 "Middlewares/Third_Party/FreeRTOS/Source/portable/GCC/ARM_CM4F/portmacro.h" 1
 515 0008 4FF05003 			mov r3, #80												
 516 000c 83F31188 		msr basepri, r3											
 517 0010 BFF36F8F 		isb														
 518 0014 BFF34F8F 		dsb														
 519              	
 520              	@ 0 "" 2
 521              		.thumb
 522              		.syntax unified
 523              	.L71:
 524 0018 FEE7     		b	.L71
 525              	.L70:
 526 001a 0446     		mov	r4, r0
 527 001c 19B9     		cbnz	r1, .L93
 528 001e 026C     		ldr	r2, [r0, #64]
 529 0020 1AB9     		cbnz	r2, .L94
 530 0022 0122     		movs	r2, #1
 531 0024 02E0     		b	.L72
 532              	.L93:
 533 0026 0122     		movs	r2, #1
 534 0028 00E0     		b	.L72
ARM GAS  C:\Users\xiaofei\AppData\Local\Temp\ccPY5Cl3.s 			page 10


 535              	.L94:
 536 002a 0022     		movs	r2, #0
 537              	.L72:
 538 002c 42B9     		cbnz	r2, .L73
 539              		.syntax unified
 540              	@ 195 "Middlewares/Third_Party/FreeRTOS/Source/portable/GCC/ARM_CM4F/portmacro.h" 1
 541 002e 4FF05003 			mov r3, #80												
 542 0032 83F31188 		msr basepri, r3											
 543 0036 BFF36F8F 		isb														
 544 003a BFF34F8F 		dsb														
 545              	
 546              	@ 0 "" 2
 547              		.thumb
 548              		.syntax unified
 549              	.L74:
 550 003e FEE7     		b	.L74
 551              	.L73:
 552 0040 022B     		cmp	r3, #2
 553 0042 03D1     		bne	.L95
 554 0044 E26B     		ldr	r2, [r4, #60]
 555 0046 012A     		cmp	r2, #1
 556 0048 02D1     		bne	.L96
 557 004a 02E0     		b	.L75
 558              	.L95:
 559 004c 0122     		movs	r2, #1
 560 004e 00E0     		b	.L75
 561              	.L96:
 562 0050 0022     		movs	r2, #0
 563              	.L75:
 564 0052 42B9     		cbnz	r2, .L76
 565              		.syntax unified
 566              	@ 195 "Middlewares/Third_Party/FreeRTOS/Source/portable/GCC/ARM_CM4F/portmacro.h" 1
 567 0054 4FF05003 			mov r3, #80												
 568 0058 83F31188 		msr basepri, r3											
 569 005c BFF36F8F 		isb														
 570 0060 BFF34F8F 		dsb														
 571              	
 572              	@ 0 "" 2
 573              		.thumb
 574              		.syntax unified
 575              	.L77:
 576 0064 FEE7     		b	.L77
 577              	.L76:
 578 0066 1D46     		mov	r5, r3
 579 0068 0E46     		mov	r6, r1
 580 006a FFF7FEFF 		bl	xTaskGetSchedulerState
 581 006e 18B9     		cbnz	r0, .L97
 582 0070 019B     		ldr	r3, [sp, #4]
 583 0072 1BB9     		cbnz	r3, .L98
 584 0074 0123     		movs	r3, #1
 585 0076 02E0     		b	.L78
 586              	.L97:
 587 0078 0123     		movs	r3, #1
 588 007a 00E0     		b	.L78
 589              	.L98:
 590 007c 0023     		movs	r3, #0
 591              	.L78:
ARM GAS  C:\Users\xiaofei\AppData\Local\Temp\ccPY5Cl3.s 			page 11


 592 007e 43B9     		cbnz	r3, .L99
 593              		.syntax unified
 594              	@ 195 "Middlewares/Third_Party/FreeRTOS/Source/portable/GCC/ARM_CM4F/portmacro.h" 1
 595 0080 4FF05003 			mov r3, #80												
 596 0084 83F31188 		msr basepri, r3											
 597 0088 BFF36F8F 		isb														
 598 008c BFF34F8F 		dsb														
 599              	
 600              	@ 0 "" 2
 601              		.thumb
 602              		.syntax unified
 603              	.L80:
 604 0090 FEE7     		b	.L80
 605              	.L99:
 606 0092 0027     		movs	r7, #0
 607              	.L79:
 608 0094 FFF7FEFF 		bl	vPortEnterCritical
 609 0098 A26B     		ldr	r2, [r4, #56]
 610 009a E36B     		ldr	r3, [r4, #60]
 611 009c 9A42     		cmp	r2, r3
 612 009e 01D3     		bcc	.L81
 613 00a0 022D     		cmp	r5, #2
 614 00a2 21D1     		bne	.L82
 615              	.L81:
 616 00a4 2A46     		mov	r2, r5
 617 00a6 3146     		mov	r1, r6
 618 00a8 2046     		mov	r0, r4
 619 00aa FFF7FEFF 		bl	prvCopyDataToQueue
 620 00ae 636A     		ldr	r3, [r4, #36]
 621 00b0 6BB1     		cbz	r3, .L83
 622 00b2 04F12400 		add	r0, r4, #36
 623 00b6 FFF7FEFF 		bl	xTaskRemoveFromEventList
 624 00ba 88B1     		cbz	r0, .L84
 625 00bc 4FF08052 		mov	r2, #268435456
 626 00c0 324B     		ldr	r3, .L101
 627 00c2 1A60     		str	r2, [r3]
 628              		.syntax unified
 629              	@ 852 "Middlewares/Third_Party/FreeRTOS/Source/queue.c" 1
 630 00c4 BFF34F8F 		dsb
 631              	@ 0 "" 2
 632              	@ 852 "Middlewares/Third_Party/FreeRTOS/Source/queue.c" 1
 633 00c8 BFF36F8F 		isb
 634              	@ 0 "" 2
 635              		.thumb
 636              		.syntax unified
 637 00cc 08E0     		b	.L84
 638              	.L83:
 639 00ce 38B1     		cbz	r0, .L84
 640 00d0 4FF08052 		mov	r2, #268435456
 641 00d4 2D4B     		ldr	r3, .L101
 642 00d6 1A60     		str	r2, [r3]
 643              		.syntax unified
 644              	@ 865 "Middlewares/Third_Party/FreeRTOS/Source/queue.c" 1
 645 00d8 BFF34F8F 		dsb
 646              	@ 0 "" 2
 647              	@ 865 "Middlewares/Third_Party/FreeRTOS/Source/queue.c" 1
 648 00dc BFF36F8F 		isb
ARM GAS  C:\Users\xiaofei\AppData\Local\Temp\ccPY5Cl3.s 			page 12


 649              	@ 0 "" 2
 650              		.thumb
 651              		.syntax unified
 652              	.L84:
 653 00e0 FFF7FEFF 		bl	vPortExitCritical
 654 00e4 0120     		movs	r0, #1
 655 00e6 4EE0     		b	.L85
 656              	.L82:
 657 00e8 019B     		ldr	r3, [sp, #4]
 658 00ea 1BB9     		cbnz	r3, .L86
 659 00ec FFF7FEFF 		bl	vPortExitCritical
 660 00f0 0020     		movs	r0, #0
 661 00f2 48E0     		b	.L85
 662              	.L86:
 663 00f4 1FB9     		cbnz	r7, .L87
 664 00f6 02A8     		add	r0, sp, #8
 665 00f8 FFF7FEFF 		bl	vTaskInternalSetTimeOutState
 666 00fc 0127     		movs	r7, #1
 667              	.L87:
 668 00fe FFF7FEFF 		bl	vPortExitCritical
 669 0102 FFF7FEFF 		bl	vTaskSuspendAll
 670 0106 FFF7FEFF 		bl	vPortEnterCritical
 671 010a 94F84430 		ldrb	r3, [r4, #68]	@ zero_extendqisi2
 672 010e 5BB2     		sxtb	r3, r3
 673 0110 B3F1FF3F 		cmp	r3, #-1
 674 0114 02D1     		bne	.L88
 675 0116 0023     		movs	r3, #0
 676 0118 84F84430 		strb	r3, [r4, #68]
 677              	.L88:
 678 011c 94F84530 		ldrb	r3, [r4, #69]	@ zero_extendqisi2
 679 0120 5BB2     		sxtb	r3, r3
 680 0122 B3F1FF3F 		cmp	r3, #-1
 681 0126 02D1     		bne	.L89
 682 0128 0023     		movs	r3, #0
 683 012a 84F84530 		strb	r3, [r4, #69]
 684              	.L89:
 685 012e FFF7FEFF 		bl	vPortExitCritical
 686 0132 01A9     		add	r1, sp, #4
 687 0134 02A8     		add	r0, sp, #8
 688 0136 FFF7FEFF 		bl	xTaskCheckForTimeOut
 689 013a F0B9     		cbnz	r0, .L90
 690 013c 2046     		mov	r0, r4
 691 013e FFF7FEFF 		bl	prvIsQueueFull
 692 0142 A0B1     		cbz	r0, .L91
 693 0144 0199     		ldr	r1, [sp, #4]
 694 0146 04F11000 		add	r0, r4, #16
 695 014a FFF7FEFF 		bl	vTaskPlaceOnEventList
 696 014e 2046     		mov	r0, r4
 697 0150 FFF7FEFF 		bl	prvUnlockQueue
 698 0154 FFF7FEFF 		bl	xTaskResumeAll
 699 0158 0028     		cmp	r0, #0
 700 015a 9BD1     		bne	.L79
 701 015c 4FF08052 		mov	r2, #268435456
 702 0160 0A4B     		ldr	r3, .L101
 703 0162 1A60     		str	r2, [r3]
 704              		.syntax unified
 705              	@ 934 "Middlewares/Third_Party/FreeRTOS/Source/queue.c" 1
ARM GAS  C:\Users\xiaofei\AppData\Local\Temp\ccPY5Cl3.s 			page 13


 706 0164 BFF34F8F 		dsb
 707              	@ 0 "" 2
 708              	@ 934 "Middlewares/Third_Party/FreeRTOS/Source/queue.c" 1
 709 0168 BFF36F8F 		isb
 710              	@ 0 "" 2
 711              		.thumb
 712              		.syntax unified
 713 016c 92E7     		b	.L79
 714              	.L91:
 715 016e 2046     		mov	r0, r4
 716 0170 FFF7FEFF 		bl	prvUnlockQueue
 717 0174 FFF7FEFF 		bl	xTaskResumeAll
 718 0178 8CE7     		b	.L79
 719              	.L90:
 720 017a 2046     		mov	r0, r4
 721 017c FFF7FEFF 		bl	prvUnlockQueue
 722 0180 FFF7FEFF 		bl	xTaskResumeAll
 723 0184 0020     		movs	r0, #0
 724              	.L85:
 725 0186 05B0     		add	sp, sp, #20
 726              		@ sp needed
 727 0188 F0BD     		pop	{r4, r5, r6, r7, pc}
 728              	.L102:
 729 018a 00BF     		.align	2
 730              	.L101:
 731 018c 04ED00E0 		.word	-536810236
 733              		.section	.text.prvInitialiseMutex,"ax",%progbits
 734              		.align	2
 735              		.thumb
 736              		.thumb_func
 738              	prvInitialiseMutex:
 739              		@ args = 0, pretend = 0, frame = 0
 740              		@ frame_needed = 0, uses_anonymous_args = 0
 741 0000 48B1     		cbz	r0, .L106
 742 0002 08B5     		push	{r3, lr}
 743 0004 0021     		movs	r1, #0
 744 0006 8160     		str	r1, [r0, #8]
 745 0008 0160     		str	r1, [r0]
 746 000a C160     		str	r1, [r0, #12]
 747 000c 0B46     		mov	r3, r1
 748 000e 0A46     		mov	r2, r1
 749 0010 FFF7FEFF 		bl	xQueueGenericSend
 750 0014 08BD     		pop	{r3, pc}
 751              	.L106:
 752 0016 7047     		bx	lr
 754              		.section	.text.xQueueCreateMutex,"ax",%progbits
 755              		.align	2
 756              		.global	xQueueCreateMutex
 757              		.thumb
 758              		.thumb_func
 760              	xQueueCreateMutex:
 761              		@ args = 0, pretend = 0, frame = 0
 762              		@ frame_needed = 0, uses_anonymous_args = 0
 763 0000 10B5     		push	{r4, lr}
 764 0002 0246     		mov	r2, r0
 765 0004 0021     		movs	r1, #0
 766 0006 0120     		movs	r0, #1
ARM GAS  C:\Users\xiaofei\AppData\Local\Temp\ccPY5Cl3.s 			page 14


 767 0008 FFF7FEFF 		bl	xQueueGenericCreate
 768 000c 0446     		mov	r4, r0
 769 000e FFF7FEFF 		bl	prvInitialiseMutex
 770 0012 2046     		mov	r0, r4
 771 0014 10BD     		pop	{r4, pc}
 773 0016 00BF     		.section	.text.xQueueCreateMutexStatic,"ax",%progbits
 774              		.align	2
 775              		.global	xQueueCreateMutexStatic
 776              		.thumb
 777              		.thumb_func
 779              	xQueueCreateMutexStatic:
 780              		@ args = 0, pretend = 0, frame = 0
 781              		@ frame_needed = 0, uses_anonymous_args = 0
 782 0000 10B5     		push	{r4, lr}
 783 0002 82B0     		sub	sp, sp, #8
 784 0004 0090     		str	r0, [sp]
 785 0006 0B46     		mov	r3, r1
 786 0008 0022     		movs	r2, #0
 787 000a 1146     		mov	r1, r2
 788 000c 0120     		movs	r0, #1
 789 000e FFF7FEFF 		bl	xQueueGenericCreateStatic
 790 0012 0446     		mov	r4, r0
 791 0014 FFF7FEFF 		bl	prvInitialiseMutex
 792 0018 2046     		mov	r0, r4
 793 001a 02B0     		add	sp, sp, #8
 794              		@ sp needed
 795 001c 10BD     		pop	{r4, pc}
 797 001e 00BF     		.section	.text.xQueueGenericSendFromISR,"ax",%progbits
 798              		.align	2
 799              		.global	xQueueGenericSendFromISR
 800              		.thumb
 801              		.thumb_func
 803              	xQueueGenericSendFromISR:
 804              		@ args = 0, pretend = 0, frame = 0
 805              		@ frame_needed = 0, uses_anonymous_args = 0
 806 0000 2DE9F843 		push	{r3, r4, r5, r6, r7, r8, r9, lr}
 807 0004 40B9     		cbnz	r0, .L112
 808              		.syntax unified
 809              	@ 195 "Middlewares/Third_Party/FreeRTOS/Source/portable/GCC/ARM_CM4F/portmacro.h" 1
 810 0006 4FF05003 			mov r3, #80												
 811 000a 83F31188 		msr basepri, r3											
 812 000e BFF36F8F 		isb														
 813 0012 BFF34F8F 		dsb														
 814              	
 815              	@ 0 "" 2
 816              		.thumb
 817              		.syntax unified
 818              	.L113:
 819 0016 FEE7     		b	.L113
 820              	.L112:
 821 0018 0446     		mov	r4, r0
 822 001a 19B9     		cbnz	r1, .L123
 823 001c 006C     		ldr	r0, [r0, #64]
 824 001e 18B9     		cbnz	r0, .L124
 825 0020 0120     		movs	r0, #1
 826 0022 02E0     		b	.L114
 827              	.L123:
ARM GAS  C:\Users\xiaofei\AppData\Local\Temp\ccPY5Cl3.s 			page 15


 828 0024 0120     		movs	r0, #1
 829 0026 00E0     		b	.L114
 830              	.L124:
 831 0028 0020     		movs	r0, #0
 832              	.L114:
 833 002a 40B9     		cbnz	r0, .L115
 834              		.syntax unified
 835              	@ 195 "Middlewares/Third_Party/FreeRTOS/Source/portable/GCC/ARM_CM4F/portmacro.h" 1
 836 002c 4FF05003 			mov r3, #80												
 837 0030 83F31188 		msr basepri, r3											
 838 0034 BFF36F8F 		isb														
 839 0038 BFF34F8F 		dsb														
 840              	
 841              	@ 0 "" 2
 842              		.thumb
 843              		.syntax unified
 844              	.L116:
 845 003c FEE7     		b	.L116
 846              	.L115:
 847 003e 022B     		cmp	r3, #2
 848 0040 03D1     		bne	.L125
 849 0042 E06B     		ldr	r0, [r4, #60]
 850 0044 0128     		cmp	r0, #1
 851 0046 02D1     		bne	.L126
 852 0048 02E0     		b	.L117
 853              	.L125:
 854 004a 0120     		movs	r0, #1
 855 004c 00E0     		b	.L117
 856              	.L126:
 857 004e 0020     		movs	r0, #0
 858              	.L117:
 859 0050 40B9     		cbnz	r0, .L118
 860              		.syntax unified
 861              	@ 195 "Middlewares/Third_Party/FreeRTOS/Source/portable/GCC/ARM_CM4F/portmacro.h" 1
 862 0052 4FF05003 			mov r3, #80												
 863 0056 83F31188 		msr basepri, r3											
 864 005a BFF36F8F 		isb														
 865 005e BFF34F8F 		dsb														
 866              	
 867              	@ 0 "" 2
 868              		.thumb
 869              		.syntax unified
 870              	.L119:
 871 0062 FEE7     		b	.L119
 872              	.L118:
 873 0064 1F46     		mov	r7, r3
 874 0066 9046     		mov	r8, r2
 875 0068 8946     		mov	r9, r1
 876 006a FFF7FEFF 		bl	vPortValidateInterruptPriority
 877              		.syntax unified
 878              	@ 211 "Middlewares/Third_Party/FreeRTOS/Source/portable/GCC/ARM_CM4F/portmacro.h" 1
 879 006e EFF31186 			mrs r6, basepri											
 880 0072 4FF05003 		mov r3, #80												
 881 0076 83F31188 		msr basepri, r3											
 882 007a BFF36F8F 		isb														
 883 007e BFF34F8F 		dsb														
 884              	
ARM GAS  C:\Users\xiaofei\AppData\Local\Temp\ccPY5Cl3.s 			page 16


 885              	@ 0 "" 2
 886              		.thumb
 887              		.syntax unified
 888 0082 A26B     		ldr	r2, [r4, #56]
 889 0084 E36B     		ldr	r3, [r4, #60]
 890 0086 9A42     		cmp	r2, r3
 891 0088 01D3     		bcc	.L120
 892 008a 022F     		cmp	r7, #2
 893 008c 1ED1     		bne	.L127
 894              	.L120:
 895 008e 94F84550 		ldrb	r5, [r4, #69]	@ zero_extendqisi2
 896 0092 6DB2     		sxtb	r5, r5
 897 0094 3A46     		mov	r2, r7
 898 0096 4946     		mov	r1, r9
 899 0098 2046     		mov	r0, r4
 900 009a FFF7FEFF 		bl	prvCopyDataToQueue
 901 009e B5F1FF3F 		cmp	r5, #-1
 902 00a2 0DD1     		bne	.L122
 903 00a4 636A     		ldr	r3, [r4, #36]
 904 00a6 9BB1     		cbz	r3, .L128
 905 00a8 04F12400 		add	r0, r4, #36
 906 00ac FFF7FEFF 		bl	xTaskRemoveFromEventList
 907 00b0 80B1     		cbz	r0, .L129
 908 00b2 B8F1000F 		cmp	r8, #0
 909 00b6 0FD0     		beq	.L130
 910 00b8 0120     		movs	r0, #1
 911 00ba C8F80000 		str	r0, [r8]
 912 00be 0CE0     		b	.L121
 913              	.L122:
 914 00c0 6B1C     		adds	r3, r5, #1
 915 00c2 5BB2     		sxtb	r3, r3
 916 00c4 84F84530 		strb	r3, [r4, #69]
 917 00c8 0120     		movs	r0, #1
 918 00ca 06E0     		b	.L121
 919              	.L127:
 920 00cc 0020     		movs	r0, #0
 921 00ce 04E0     		b	.L121
 922              	.L128:
 923 00d0 0120     		movs	r0, #1
 924 00d2 02E0     		b	.L121
 925              	.L129:
 926 00d4 0120     		movs	r0, #1
 927 00d6 00E0     		b	.L121
 928              	.L130:
 929 00d8 0120     		movs	r0, #1
 930              	.L121:
 931              		.syntax unified
 932              	@ 229 "Middlewares/Third_Party/FreeRTOS/Source/portable/GCC/ARM_CM4F/portmacro.h" 1
 933 00da 86F31188 			msr basepri, r6	
 934              	@ 0 "" 2
 935              		.thumb
 936              		.syntax unified
 937 00de BDE8F883 		pop	{r3, r4, r5, r6, r7, r8, r9, pc}
 939 00e2 00BF     		.section	.text.xQueueGiveFromISR,"ax",%progbits
 940              		.align	2
 941              		.global	xQueueGiveFromISR
 942              		.thumb
ARM GAS  C:\Users\xiaofei\AppData\Local\Temp\ccPY5Cl3.s 			page 17


 943              		.thumb_func
 945              	xQueueGiveFromISR:
 946              		@ args = 0, pretend = 0, frame = 0
 947              		@ frame_needed = 0, uses_anonymous_args = 0
 948 0000 40B9     		cbnz	r0, .L133
 949              		.syntax unified
 950              	@ 195 "Middlewares/Third_Party/FreeRTOS/Source/portable/GCC/ARM_CM4F/portmacro.h" 1
 951 0002 4FF05003 			mov r3, #80												
 952 0006 83F31188 		msr basepri, r3											
 953 000a BFF36F8F 		isb														
 954 000e BFF34F8F 		dsb														
 955              	
 956              	@ 0 "" 2
 957              		.thumb
 958              		.syntax unified
 959              	.L134:
 960 0012 FEE7     		b	.L134
 961              	.L133:
 962 0014 70B5     		push	{r4, r5, r6, lr}
 963 0016 0446     		mov	r4, r0
 964 0018 036C     		ldr	r3, [r0, #64]
 965 001a 43B1     		cbz	r3, .L135
 966              		.syntax unified
 967              	@ 195 "Middlewares/Third_Party/FreeRTOS/Source/portable/GCC/ARM_CM4F/portmacro.h" 1
 968 001c 4FF05003 			mov r3, #80												
 969 0020 83F31188 		msr basepri, r3											
 970 0024 BFF36F8F 		isb														
 971 0028 BFF34F8F 		dsb														
 972              	
 973              	@ 0 "" 2
 974              		.thumb
 975              		.syntax unified
 976              	.L136:
 977 002c FEE7     		b	.L136
 978              	.L135:
 979 002e 0368     		ldr	r3, [r0]
 980 0030 1BB9     		cbnz	r3, .L142
 981 0032 8368     		ldr	r3, [r0, #8]
 982 0034 1BB9     		cbnz	r3, .L143
 983 0036 0123     		movs	r3, #1
 984 0038 02E0     		b	.L137
 985              	.L142:
 986 003a 0123     		movs	r3, #1
 987 003c 00E0     		b	.L137
 988              	.L143:
 989 003e 0023     		movs	r3, #0
 990              	.L137:
 991 0040 43B9     		cbnz	r3, .L138
 992              		.syntax unified
 993              	@ 195 "Middlewares/Third_Party/FreeRTOS/Source/portable/GCC/ARM_CM4F/portmacro.h" 1
 994 0042 4FF05003 			mov r3, #80												
 995 0046 83F31188 		msr basepri, r3											
 996 004a BFF36F8F 		isb														
 997 004e BFF34F8F 		dsb														
 998              	
 999              	@ 0 "" 2
 1000              		.thumb
ARM GAS  C:\Users\xiaofei\AppData\Local\Temp\ccPY5Cl3.s 			page 18


 1001              		.syntax unified
 1002              	.L139:
 1003 0052 FEE7     		b	.L139
 1004              	.L138:
 1005 0054 0E46     		mov	r6, r1
 1006 0056 FFF7FEFF 		bl	vPortValidateInterruptPriority
 1007              		.syntax unified
 1008              	@ 211 "Middlewares/Third_Party/FreeRTOS/Source/portable/GCC/ARM_CM4F/portmacro.h" 1
 1009 005a EFF31185 			mrs r5, basepri											
 1010 005e 4FF05003 		mov r3, #80												
 1011 0062 83F31188 		msr basepri, r3											
 1012 0066 BFF36F8F 		isb														
 1013 006a BFF34F8F 		dsb														
 1014              	
 1015              	@ 0 "" 2
 1016              		.thumb
 1017              		.syntax unified
 1018 006e A26B     		ldr	r2, [r4, #56]
 1019 0070 E36B     		ldr	r3, [r4, #60]
 1020 0072 9A42     		cmp	r2, r3
 1021 0074 18D2     		bcs	.L144
 1022 0076 94F84530 		ldrb	r3, [r4, #69]	@ zero_extendqisi2
 1023 007a 5BB2     		sxtb	r3, r3
 1024 007c 0132     		adds	r2, r2, #1
 1025 007e A263     		str	r2, [r4, #56]
 1026 0080 B3F1FF3F 		cmp	r3, #-1
 1027 0084 0AD1     		bne	.L141
 1028 0086 636A     		ldr	r3, [r4, #36]
 1029 0088 83B1     		cbz	r3, .L145
 1030 008a 04F12400 		add	r0, r4, #36
 1031 008e FFF7FEFF 		bl	xTaskRemoveFromEventList
 1032 0092 68B1     		cbz	r0, .L146
 1033 0094 76B1     		cbz	r6, .L147
 1034 0096 0120     		movs	r0, #1
 1035 0098 3060     		str	r0, [r6]
 1036 009a 0CE0     		b	.L140
 1037              	.L141:
 1038 009c 0133     		adds	r3, r3, #1
 1039 009e 5BB2     		sxtb	r3, r3
 1040 00a0 84F84530 		strb	r3, [r4, #69]
 1041 00a4 0120     		movs	r0, #1
 1042 00a6 06E0     		b	.L140
 1043              	.L144:
 1044 00a8 0020     		movs	r0, #0
 1045 00aa 04E0     		b	.L140
 1046              	.L145:
 1047 00ac 0120     		movs	r0, #1
 1048 00ae 02E0     		b	.L140
 1049              	.L146:
 1050 00b0 0120     		movs	r0, #1
 1051 00b2 00E0     		b	.L140
 1052              	.L147:
 1053 00b4 0120     		movs	r0, #1
 1054              	.L140:
 1055              		.syntax unified
 1056              	@ 229 "Middlewares/Third_Party/FreeRTOS/Source/portable/GCC/ARM_CM4F/portmacro.h" 1
 1057 00b6 85F31188 			msr basepri, r5	
ARM GAS  C:\Users\xiaofei\AppData\Local\Temp\ccPY5Cl3.s 			page 19


 1058              	@ 0 "" 2
 1059              		.thumb
 1060              		.syntax unified
 1061 00ba 70BD     		pop	{r4, r5, r6, pc}
 1063              		.section	.text.xQueueReceive,"ax",%progbits
 1064              		.align	2
 1065              		.global	xQueueReceive
 1066              		.thumb
 1067              		.thumb_func
 1069              	xQueueReceive:
 1070              		@ args = 0, pretend = 0, frame = 16
 1071              		@ frame_needed = 0, uses_anonymous_args = 0
 1072 0000 F0B5     		push	{r4, r5, r6, r7, lr}
 1073 0002 85B0     		sub	sp, sp, #20
 1074 0004 0192     		str	r2, [sp, #4]
 1075 0006 40B9     		cbnz	r0, .L150
 1076              		.syntax unified
 1077              	@ 195 "Middlewares/Third_Party/FreeRTOS/Source/portable/GCC/ARM_CM4F/portmacro.h" 1
 1078 0008 4FF05003 			mov r3, #80												
 1079 000c 83F31188 		msr basepri, r3											
 1080 0010 BFF36F8F 		isb														
 1081 0014 BFF34F8F 		dsb														
 1082              	
 1083              	@ 0 "" 2
 1084              		.thumb
 1085              		.syntax unified
 1086              	.L151:
 1087 0018 FEE7     		b	.L151
 1088              	.L150:
 1089 001a 0446     		mov	r4, r0
 1090 001c 19B9     		cbnz	r1, .L168
 1091 001e 036C     		ldr	r3, [r0, #64]
 1092 0020 1BB9     		cbnz	r3, .L169
 1093 0022 0123     		movs	r3, #1
 1094 0024 02E0     		b	.L152
 1095              	.L168:
 1096 0026 0123     		movs	r3, #1
 1097 0028 00E0     		b	.L152
 1098              	.L169:
 1099 002a 0023     		movs	r3, #0
 1100              	.L152:
 1101 002c 43B9     		cbnz	r3, .L153
 1102              		.syntax unified
 1103              	@ 195 "Middlewares/Third_Party/FreeRTOS/Source/portable/GCC/ARM_CM4F/portmacro.h" 1
 1104 002e 4FF05003 			mov r3, #80												
 1105 0032 83F31188 		msr basepri, r3											
 1106 0036 BFF36F8F 		isb														
 1107 003a BFF34F8F 		dsb														
 1108              	
 1109              	@ 0 "" 2
 1110              		.thumb
 1111              		.syntax unified
 1112              	.L154:
 1113 003e FEE7     		b	.L154
 1114              	.L153:
 1115 0040 0E46     		mov	r6, r1
 1116 0042 FFF7FEFF 		bl	xTaskGetSchedulerState
ARM GAS  C:\Users\xiaofei\AppData\Local\Temp\ccPY5Cl3.s 			page 20


 1117 0046 18B9     		cbnz	r0, .L170
 1118 0048 019B     		ldr	r3, [sp, #4]
 1119 004a 1BB9     		cbnz	r3, .L171
 1120 004c 0123     		movs	r3, #1
 1121 004e 02E0     		b	.L155
 1122              	.L170:
 1123 0050 0123     		movs	r3, #1
 1124 0052 00E0     		b	.L155
 1125              	.L171:
 1126 0054 0023     		movs	r3, #0
 1127              	.L155:
 1128 0056 43B9     		cbnz	r3, .L172
 1129              		.syntax unified
 1130              	@ 195 "Middlewares/Third_Party/FreeRTOS/Source/portable/GCC/ARM_CM4F/portmacro.h" 1
 1131 0058 4FF05003 			mov r3, #80												
 1132 005c 83F31188 		msr basepri, r3											
 1133 0060 BFF36F8F 		isb														
 1134 0064 BFF34F8F 		dsb														
 1135              	
 1136              	@ 0 "" 2
 1137              		.thumb
 1138              		.syntax unified
 1139              	.L157:
 1140 0068 FEE7     		b	.L157
 1141              	.L172:
 1142 006a 0027     		movs	r7, #0
 1143              	.L156:
 1144 006c FFF7FEFF 		bl	vPortEnterCritical
 1145 0070 A56B     		ldr	r5, [r4, #56]
 1146 0072 C5B1     		cbz	r5, .L158
 1147 0074 3146     		mov	r1, r6
 1148 0076 2046     		mov	r0, r4
 1149 0078 FFF7FEFF 		bl	prvCopyDataFromQueue
 1150 007c 013D     		subs	r5, r5, #1
 1151 007e A563     		str	r5, [r4, #56]
 1152 0080 2369     		ldr	r3, [r4, #16]
 1153 0082 63B1     		cbz	r3, .L159
 1154 0084 04F11000 		add	r0, r4, #16
 1155 0088 FFF7FEFF 		bl	xTaskRemoveFromEventList
 1156 008c 38B1     		cbz	r0, .L159
 1157 008e 4FF08052 		mov	r2, #268435456
 1158 0092 304B     		ldr	r3, .L174
 1159 0094 1A60     		str	r2, [r3]
 1160              		.syntax unified
 1161              	@ 1319 "Middlewares/Third_Party/FreeRTOS/Source/queue.c" 1
 1162 0096 BFF34F8F 		dsb
 1163              	@ 0 "" 2
 1164              	@ 1319 "Middlewares/Third_Party/FreeRTOS/Source/queue.c" 1
 1165 009a BFF36F8F 		isb
 1166              	@ 0 "" 2
 1167              		.thumb
 1168              		.syntax unified
 1169              	.L159:
 1170 009e FFF7FEFF 		bl	vPortExitCritical
 1171 00a2 0120     		movs	r0, #1
 1172 00a4 53E0     		b	.L160
 1173              	.L158:
ARM GAS  C:\Users\xiaofei\AppData\Local\Temp\ccPY5Cl3.s 			page 21


 1174 00a6 019B     		ldr	r3, [sp, #4]
 1175 00a8 1BB9     		cbnz	r3, .L161
 1176 00aa FFF7FEFF 		bl	vPortExitCritical
 1177 00ae 0020     		movs	r0, #0
 1178 00b0 4DE0     		b	.L160
 1179              	.L161:
 1180 00b2 1FB9     		cbnz	r7, .L162
 1181 00b4 02A8     		add	r0, sp, #8
 1182 00b6 FFF7FEFF 		bl	vTaskInternalSetTimeOutState
 1183 00ba 0127     		movs	r7, #1
 1184              	.L162:
 1185 00bc FFF7FEFF 		bl	vPortExitCritical
 1186 00c0 FFF7FEFF 		bl	vTaskSuspendAll
 1187 00c4 FFF7FEFF 		bl	vPortEnterCritical
 1188 00c8 94F84430 		ldrb	r3, [r4, #68]	@ zero_extendqisi2
 1189 00cc 5BB2     		sxtb	r3, r3
 1190 00ce B3F1FF3F 		cmp	r3, #-1
 1191 00d2 02D1     		bne	.L163
 1192 00d4 0023     		movs	r3, #0
 1193 00d6 84F84430 		strb	r3, [r4, #68]
 1194              	.L163:
 1195 00da 94F84530 		ldrb	r3, [r4, #69]	@ zero_extendqisi2
 1196 00de 5BB2     		sxtb	r3, r3
 1197 00e0 B3F1FF3F 		cmp	r3, #-1
 1198 00e4 02D1     		bne	.L164
 1199 00e6 0023     		movs	r3, #0
 1200 00e8 84F84530 		strb	r3, [r4, #69]
 1201              	.L164:
 1202 00ec FFF7FEFF 		bl	vPortExitCritical
 1203 00f0 01A9     		add	r1, sp, #4
 1204 00f2 02A8     		add	r0, sp, #8
 1205 00f4 FFF7FEFF 		bl	xTaskCheckForTimeOut
 1206 00f8 F0B9     		cbnz	r0, .L165
 1207 00fa 2046     		mov	r0, r4
 1208 00fc FFF7FEFF 		bl	prvIsQueueEmpty
 1209 0100 A0B1     		cbz	r0, .L166
 1210 0102 0199     		ldr	r1, [sp, #4]
 1211 0104 04F12400 		add	r0, r4, #36
 1212 0108 FFF7FEFF 		bl	vTaskPlaceOnEventList
 1213 010c 2046     		mov	r0, r4
 1214 010e FFF7FEFF 		bl	prvUnlockQueue
 1215 0112 FFF7FEFF 		bl	xTaskResumeAll
 1216 0116 0028     		cmp	r0, #0
 1217 0118 A8D1     		bne	.L156
 1218 011a 4FF08052 		mov	r2, #268435456
 1219 011e 0D4B     		ldr	r3, .L174
 1220 0120 1A60     		str	r2, [r3]
 1221              		.syntax unified
 1222              	@ 1378 "Middlewares/Third_Party/FreeRTOS/Source/queue.c" 1
 1223 0122 BFF34F8F 		dsb
 1224              	@ 0 "" 2
 1225              	@ 1378 "Middlewares/Third_Party/FreeRTOS/Source/queue.c" 1
 1226 0126 BFF36F8F 		isb
 1227              	@ 0 "" 2
 1228              		.thumb
 1229              		.syntax unified
 1230 012a 9FE7     		b	.L156
ARM GAS  C:\Users\xiaofei\AppData\Local\Temp\ccPY5Cl3.s 			page 22


 1231              	.L166:
 1232 012c 2046     		mov	r0, r4
 1233 012e FFF7FEFF 		bl	prvUnlockQueue
 1234 0132 FFF7FEFF 		bl	xTaskResumeAll
 1235 0136 99E7     		b	.L156
 1236              	.L165:
 1237 0138 2046     		mov	r0, r4
 1238 013a FFF7FEFF 		bl	prvUnlockQueue
 1239 013e FFF7FEFF 		bl	xTaskResumeAll
 1240 0142 2046     		mov	r0, r4
 1241 0144 FFF7FEFF 		bl	prvIsQueueEmpty
 1242 0148 0028     		cmp	r0, #0
 1243 014a 8FD0     		beq	.L156
 1244 014c 0020     		movs	r0, #0
 1245              	.L160:
 1246 014e 05B0     		add	sp, sp, #20
 1247              		@ sp needed
 1248 0150 F0BD     		pop	{r4, r5, r6, r7, pc}
 1249              	.L175:
 1250 0152 00BF     		.align	2
 1251              	.L174:
 1252 0154 04ED00E0 		.word	-536810236
 1254              		.section	.text.xQueueSemaphoreTake,"ax",%progbits
 1255              		.align	2
 1256              		.global	xQueueSemaphoreTake
 1257              		.thumb
 1258              		.thumb_func
 1260              	xQueueSemaphoreTake:
 1261              		@ args = 0, pretend = 0, frame = 16
 1262              		@ frame_needed = 0, uses_anonymous_args = 0
 1263 0000 70B5     		push	{r4, r5, r6, lr}
 1264 0002 84B0     		sub	sp, sp, #16
 1265 0004 0191     		str	r1, [sp, #4]
 1266 0006 40B9     		cbnz	r0, .L177
 1267              		.syntax unified
 1268              	@ 195 "Middlewares/Third_Party/FreeRTOS/Source/portable/GCC/ARM_CM4F/portmacro.h" 1
 1269 0008 4FF05003 			mov r3, #80												
 1270 000c 83F31188 		msr basepri, r3											
 1271 0010 BFF36F8F 		isb														
 1272 0014 BFF34F8F 		dsb														
 1273              	
 1274              	@ 0 "" 2
 1275              		.thumb
 1276              		.syntax unified
 1277              	.L178:
 1278 0018 FEE7     		b	.L178
 1279              	.L177:
 1280 001a 0446     		mov	r4, r0
 1281 001c 036C     		ldr	r3, [r0, #64]
 1282 001e 43B1     		cbz	r3, .L179
 1283              		.syntax unified
 1284              	@ 195 "Middlewares/Third_Party/FreeRTOS/Source/portable/GCC/ARM_CM4F/portmacro.h" 1
 1285 0020 4FF05003 			mov r3, #80												
 1286 0024 83F31188 		msr basepri, r3											
 1287 0028 BFF36F8F 		isb														
 1288 002c BFF34F8F 		dsb														
 1289              	
ARM GAS  C:\Users\xiaofei\AppData\Local\Temp\ccPY5Cl3.s 			page 23


 1290              	@ 0 "" 2
 1291              		.thumb
 1292              		.syntax unified
 1293              	.L180:
 1294 0030 FEE7     		b	.L180
 1295              	.L179:
 1296 0032 FFF7FEFF 		bl	xTaskGetSchedulerState
 1297 0036 18B9     		cbnz	r0, .L198
 1298 0038 019B     		ldr	r3, [sp, #4]
 1299 003a 1BB9     		cbnz	r3, .L199
 1300 003c 0123     		movs	r3, #1
 1301 003e 02E0     		b	.L181
 1302              	.L198:
 1303 0040 0123     		movs	r3, #1
 1304 0042 00E0     		b	.L181
 1305              	.L199:
 1306 0044 0023     		movs	r3, #0
 1307              	.L181:
 1308 0046 43B9     		cbnz	r3, .L200
 1309              		.syntax unified
 1310              	@ 195 "Middlewares/Third_Party/FreeRTOS/Source/portable/GCC/ARM_CM4F/portmacro.h" 1
 1311 0048 4FF05003 			mov r3, #80												
 1312 004c 83F31188 		msr basepri, r3											
 1313 0050 BFF36F8F 		isb														
 1314 0054 BFF34F8F 		dsb														
 1315              	
 1316              	@ 0 "" 2
 1317              		.thumb
 1318              		.syntax unified
 1319              	.L183:
 1320 0058 FEE7     		b	.L183
 1321              	.L200:
 1322 005a 0025     		movs	r5, #0
 1323 005c 2E46     		mov	r6, r5
 1324              	.L182:
 1325 005e FFF7FEFF 		bl	vPortEnterCritical
 1326 0062 A36B     		ldr	r3, [r4, #56]
 1327 0064 CBB1     		cbz	r3, .L184
 1328 0066 013B     		subs	r3, r3, #1
 1329 0068 A363     		str	r3, [r4, #56]
 1330 006a 2368     		ldr	r3, [r4]
 1331 006c 13B9     		cbnz	r3, .L185
 1332 006e FFF7FEFF 		bl	pvTaskIncrementMutexHeldCount
 1333 0072 A060     		str	r0, [r4, #8]
 1334              	.L185:
 1335 0074 2369     		ldr	r3, [r4, #16]
 1336 0076 63B1     		cbz	r3, .L186
 1337 0078 04F11000 		add	r0, r4, #16
 1338 007c FFF7FEFF 		bl	xTaskRemoveFromEventList
 1339 0080 38B1     		cbz	r0, .L186
 1340 0082 4FF08052 		mov	r2, #268435456
 1341 0086 414B     		ldr	r3, .L203
 1342 0088 1A60     		str	r2, [r3]
 1343              		.syntax unified
 1344              	@ 1481 "Middlewares/Third_Party/FreeRTOS/Source/queue.c" 1
 1345 008a BFF34F8F 		dsb
 1346              	@ 0 "" 2
ARM GAS  C:\Users\xiaofei\AppData\Local\Temp\ccPY5Cl3.s 			page 24


 1347              	@ 1481 "Middlewares/Third_Party/FreeRTOS/Source/queue.c" 1
 1348 008e BFF36F8F 		isb
 1349              	@ 0 "" 2
 1350              		.thumb
 1351              		.syntax unified
 1352              	.L186:
 1353 0092 FFF7FEFF 		bl	vPortExitCritical
 1354 0096 0120     		movs	r0, #1
 1355 0098 76E0     		b	.L187
 1356              	.L184:
 1357 009a 019B     		ldr	r3, [sp, #4]
 1358 009c 6BB9     		cbnz	r3, .L188
 1359 009e 45B1     		cbz	r5, .L189
 1360              		.syntax unified
 1361              	@ 195 "Middlewares/Third_Party/FreeRTOS/Source/portable/GCC/ARM_CM4F/portmacro.h" 1
 1362 00a0 4FF05003 			mov r3, #80												
 1363 00a4 83F31188 		msr basepri, r3											
 1364 00a8 BFF36F8F 		isb														
 1365 00ac BFF34F8F 		dsb														
 1366              	
 1367              	@ 0 "" 2
 1368              		.thumb
 1369              		.syntax unified
 1370              	.L190:
 1371 00b0 FEE7     		b	.L190
 1372              	.L189:
 1373 00b2 FFF7FEFF 		bl	vPortExitCritical
 1374 00b6 0020     		movs	r0, #0
 1375 00b8 66E0     		b	.L187
 1376              	.L188:
 1377 00ba 1EB9     		cbnz	r6, .L191
 1378 00bc 02A8     		add	r0, sp, #8
 1379 00be FFF7FEFF 		bl	vTaskInternalSetTimeOutState
 1380 00c2 0126     		movs	r6, #1
 1381              	.L191:
 1382 00c4 FFF7FEFF 		bl	vPortExitCritical
 1383 00c8 FFF7FEFF 		bl	vTaskSuspendAll
 1384 00cc FFF7FEFF 		bl	vPortEnterCritical
 1385 00d0 94F84430 		ldrb	r3, [r4, #68]	@ zero_extendqisi2
 1386 00d4 5BB2     		sxtb	r3, r3
 1387 00d6 B3F1FF3F 		cmp	r3, #-1
 1388 00da 02D1     		bne	.L192
 1389 00dc 0023     		movs	r3, #0
 1390 00de 84F84430 		strb	r3, [r4, #68]
 1391              	.L192:
 1392 00e2 94F84530 		ldrb	r3, [r4, #69]	@ zero_extendqisi2
 1393 00e6 5BB2     		sxtb	r3, r3
 1394 00e8 B3F1FF3F 		cmp	r3, #-1
 1395 00ec 02D1     		bne	.L193
 1396 00ee 0023     		movs	r3, #0
 1397 00f0 84F84530 		strb	r3, [r4, #69]
 1398              	.L193:
 1399 00f4 FFF7FEFF 		bl	vPortExitCritical
 1400 00f8 01A9     		add	r1, sp, #4
 1401 00fa 02A8     		add	r0, sp, #8
 1402 00fc FFF7FEFF 		bl	xTaskCheckForTimeOut
 1403 0100 40BB     		cbnz	r0, .L194
ARM GAS  C:\Users\xiaofei\AppData\Local\Temp\ccPY5Cl3.s 			page 25


 1404 0102 2046     		mov	r0, r4
 1405 0104 FFF7FEFF 		bl	prvIsQueueEmpty
 1406 0108 F0B1     		cbz	r0, .L195
 1407 010a 2368     		ldr	r3, [r4]
 1408 010c 3BB9     		cbnz	r3, .L196
 1409 010e FFF7FEFF 		bl	vPortEnterCritical
 1410 0112 A068     		ldr	r0, [r4, #8]
 1411 0114 FFF7FEFF 		bl	xTaskPriorityInherit
 1412 0118 0546     		mov	r5, r0
 1413 011a FFF7FEFF 		bl	vPortExitCritical
 1414              	.L196:
 1415 011e 0199     		ldr	r1, [sp, #4]
 1416 0120 04F12400 		add	r0, r4, #36
 1417 0124 FFF7FEFF 		bl	vTaskPlaceOnEventList
 1418 0128 2046     		mov	r0, r4
 1419 012a FFF7FEFF 		bl	prvUnlockQueue
 1420 012e FFF7FEFF 		bl	xTaskResumeAll
 1421 0132 0028     		cmp	r0, #0
 1422 0134 93D1     		bne	.L182
 1423 0136 4FF08052 		mov	r2, #268435456
 1424 013a 144B     		ldr	r3, .L203
 1425 013c 1A60     		str	r2, [r3]
 1426              		.syntax unified
 1427              	@ 1569 "Middlewares/Third_Party/FreeRTOS/Source/queue.c" 1
 1428 013e BFF34F8F 		dsb
 1429              	@ 0 "" 2
 1430              	@ 1569 "Middlewares/Third_Party/FreeRTOS/Source/queue.c" 1
 1431 0142 BFF36F8F 		isb
 1432              	@ 0 "" 2
 1433              		.thumb
 1434              		.syntax unified
 1435 0146 8AE7     		b	.L182
 1436              	.L195:
 1437 0148 2046     		mov	r0, r4
 1438 014a FFF7FEFF 		bl	prvUnlockQueue
 1439 014e FFF7FEFF 		bl	xTaskResumeAll
 1440 0152 84E7     		b	.L182
 1441              	.L194:
 1442 0154 2046     		mov	r0, r4
 1443 0156 FFF7FEFF 		bl	prvUnlockQueue
 1444 015a FFF7FEFF 		bl	xTaskResumeAll
 1445 015e 2046     		mov	r0, r4
 1446 0160 FFF7FEFF 		bl	prvIsQueueEmpty
 1447 0164 0028     		cmp	r0, #0
 1448 0166 3FF47AAF 		beq	.L182
 1449 016a 65B1     		cbz	r5, .L201
 1450 016c FFF7FEFF 		bl	vPortEnterCritical
 1451 0170 2046     		mov	r0, r4
 1452 0172 FFF7FEFF 		bl	prvGetDisinheritPriorityAfterTimeout
 1453 0176 0146     		mov	r1, r0
 1454 0178 A068     		ldr	r0, [r4, #8]
 1455 017a FFF7FEFF 		bl	vTaskPriorityDisinheritAfterTimeout
 1456 017e FFF7FEFF 		bl	vPortExitCritical
 1457 0182 0020     		movs	r0, #0
 1458 0184 00E0     		b	.L187
 1459              	.L201:
 1460 0186 0020     		movs	r0, #0
ARM GAS  C:\Users\xiaofei\AppData\Local\Temp\ccPY5Cl3.s 			page 26


 1461              	.L187:
 1462 0188 04B0     		add	sp, sp, #16
 1463              		@ sp needed
 1464 018a 70BD     		pop	{r4, r5, r6, pc}
 1465              	.L204:
 1466              		.align	2
 1467              	.L203:
 1468 018c 04ED00E0 		.word	-536810236
 1470              		.section	.text.xQueuePeek,"ax",%progbits
 1471              		.align	2
 1472              		.global	xQueuePeek
 1473              		.thumb
 1474              		.thumb_func
 1476              	xQueuePeek:
 1477              		@ args = 0, pretend = 0, frame = 16
 1478              		@ frame_needed = 0, uses_anonymous_args = 0
 1479 0000 70B5     		push	{r4, r5, r6, lr}
 1480 0002 84B0     		sub	sp, sp, #16
 1481 0004 0192     		str	r2, [sp, #4]
 1482 0006 40B9     		cbnz	r0, .L206
 1483              		.syntax unified
 1484              	@ 195 "Middlewares/Third_Party/FreeRTOS/Source/portable/GCC/ARM_CM4F/portmacro.h" 1
 1485 0008 4FF05003 			mov r3, #80												
 1486 000c 83F31188 		msr basepri, r3											
 1487 0010 BFF36F8F 		isb														
 1488 0014 BFF34F8F 		dsb														
 1489              	
 1490              	@ 0 "" 2
 1491              		.thumb
 1492              		.syntax unified
 1493              	.L207:
 1494 0018 FEE7     		b	.L207
 1495              	.L206:
 1496 001a 0446     		mov	r4, r0
 1497 001c 19B9     		cbnz	r1, .L224
 1498 001e 036C     		ldr	r3, [r0, #64]
 1499 0020 1BB9     		cbnz	r3, .L225
 1500 0022 0123     		movs	r3, #1
 1501 0024 02E0     		b	.L208
 1502              	.L224:
 1503 0026 0123     		movs	r3, #1
 1504 0028 00E0     		b	.L208
 1505              	.L225:
 1506 002a 0023     		movs	r3, #0
 1507              	.L208:
 1508 002c 43B9     		cbnz	r3, .L209
 1509              		.syntax unified
 1510              	@ 195 "Middlewares/Third_Party/FreeRTOS/Source/portable/GCC/ARM_CM4F/portmacro.h" 1
 1511 002e 4FF05003 			mov r3, #80												
 1512 0032 83F31188 		msr basepri, r3											
 1513 0036 BFF36F8F 		isb														
 1514 003a BFF34F8F 		dsb														
 1515              	
 1516              	@ 0 "" 2
 1517              		.thumb
 1518              		.syntax unified
 1519              	.L210:
ARM GAS  C:\Users\xiaofei\AppData\Local\Temp\ccPY5Cl3.s 			page 27


 1520 003e FEE7     		b	.L210
 1521              	.L209:
 1522 0040 0E46     		mov	r6, r1
 1523 0042 FFF7FEFF 		bl	xTaskGetSchedulerState
 1524 0046 18B9     		cbnz	r0, .L226
 1525 0048 019B     		ldr	r3, [sp, #4]
 1526 004a 1BB9     		cbnz	r3, .L227
 1527 004c 0123     		movs	r3, #1
 1528 004e 02E0     		b	.L211
 1529              	.L226:
 1530 0050 0123     		movs	r3, #1
 1531 0052 00E0     		b	.L211
 1532              	.L227:
 1533 0054 0023     		movs	r3, #0
 1534              	.L211:
 1535 0056 43B9     		cbnz	r3, .L228
 1536              		.syntax unified
 1537              	@ 195 "Middlewares/Third_Party/FreeRTOS/Source/portable/GCC/ARM_CM4F/portmacro.h" 1
 1538 0058 4FF05003 			mov r3, #80												
 1539 005c 83F31188 		msr basepri, r3											
 1540 0060 BFF36F8F 		isb														
 1541 0064 BFF34F8F 		dsb														
 1542              	
 1543              	@ 0 "" 2
 1544              		.thumb
 1545              		.syntax unified
 1546              	.L213:
 1547 0068 FEE7     		b	.L213
 1548              	.L228:
 1549 006a 0025     		movs	r5, #0
 1550              	.L212:
 1551 006c FFF7FEFF 		bl	vPortEnterCritical
 1552 0070 A36B     		ldr	r3, [r4, #56]
 1553 0072 C3B1     		cbz	r3, .L214
 1554 0074 E568     		ldr	r5, [r4, #12]
 1555 0076 3146     		mov	r1, r6
 1556 0078 2046     		mov	r0, r4
 1557 007a FFF7FEFF 		bl	prvCopyDataFromQueue
 1558 007e E560     		str	r5, [r4, #12]
 1559 0080 636A     		ldr	r3, [r4, #36]
 1560 0082 63B1     		cbz	r3, .L215
 1561 0084 04F12400 		add	r0, r4, #36
 1562 0088 FFF7FEFF 		bl	xTaskRemoveFromEventList
 1563 008c 38B1     		cbz	r0, .L215
 1564 008e 4FF08052 		mov	r2, #268435456
 1565 0092 304B     		ldr	r3, .L230
 1566 0094 1A60     		str	r2, [r3]
 1567              		.syntax unified
 1568              	@ 1685 "Middlewares/Third_Party/FreeRTOS/Source/queue.c" 1
 1569 0096 BFF34F8F 		dsb
 1570              	@ 0 "" 2
 1571              	@ 1685 "Middlewares/Third_Party/FreeRTOS/Source/queue.c" 1
 1572 009a BFF36F8F 		isb
 1573              	@ 0 "" 2
 1574              		.thumb
 1575              		.syntax unified
 1576              	.L215:
ARM GAS  C:\Users\xiaofei\AppData\Local\Temp\ccPY5Cl3.s 			page 28


 1577 009e FFF7FEFF 		bl	vPortExitCritical
 1578 00a2 0120     		movs	r0, #1
 1579 00a4 53E0     		b	.L216
 1580              	.L214:
 1581 00a6 019B     		ldr	r3, [sp, #4]
 1582 00a8 1BB9     		cbnz	r3, .L217
 1583 00aa FFF7FEFF 		bl	vPortExitCritical
 1584 00ae 0020     		movs	r0, #0
 1585 00b0 4DE0     		b	.L216
 1586              	.L217:
 1587 00b2 1DB9     		cbnz	r5, .L218
 1588 00b4 02A8     		add	r0, sp, #8
 1589 00b6 FFF7FEFF 		bl	vTaskInternalSetTimeOutState
 1590 00ba 0125     		movs	r5, #1
 1591              	.L218:
 1592 00bc FFF7FEFF 		bl	vPortExitCritical
 1593 00c0 FFF7FEFF 		bl	vTaskSuspendAll
 1594 00c4 FFF7FEFF 		bl	vPortEnterCritical
 1595 00c8 94F84430 		ldrb	r3, [r4, #68]	@ zero_extendqisi2
 1596 00cc 5BB2     		sxtb	r3, r3
 1597 00ce B3F1FF3F 		cmp	r3, #-1
 1598 00d2 02D1     		bne	.L219
 1599 00d4 0023     		movs	r3, #0
 1600 00d6 84F84430 		strb	r3, [r4, #68]
 1601              	.L219:
 1602 00da 94F84530 		ldrb	r3, [r4, #69]	@ zero_extendqisi2
 1603 00de 5BB2     		sxtb	r3, r3
 1604 00e0 B3F1FF3F 		cmp	r3, #-1
 1605 00e4 02D1     		bne	.L220
 1606 00e6 0023     		movs	r3, #0
 1607 00e8 84F84530 		strb	r3, [r4, #69]
 1608              	.L220:
 1609 00ec FFF7FEFF 		bl	vPortExitCritical
 1610 00f0 01A9     		add	r1, sp, #4
 1611 00f2 02A8     		add	r0, sp, #8
 1612 00f4 FFF7FEFF 		bl	xTaskCheckForTimeOut
 1613 00f8 F0B9     		cbnz	r0, .L221
 1614 00fa 2046     		mov	r0, r4
 1615 00fc FFF7FEFF 		bl	prvIsQueueEmpty
 1616 0100 A0B1     		cbz	r0, .L222
 1617 0102 0199     		ldr	r1, [sp, #4]
 1618 0104 04F12400 		add	r0, r4, #36
 1619 0108 FFF7FEFF 		bl	vTaskPlaceOnEventList
 1620 010c 2046     		mov	r0, r4
 1621 010e FFF7FEFF 		bl	prvUnlockQueue
 1622 0112 FFF7FEFF 		bl	xTaskResumeAll
 1623 0116 0028     		cmp	r0, #0
 1624 0118 A8D1     		bne	.L212
 1625 011a 4FF08052 		mov	r2, #268435456
 1626 011e 0D4B     		ldr	r3, .L230
 1627 0120 1A60     		str	r2, [r3]
 1628              		.syntax unified
 1629              	@ 1745 "Middlewares/Third_Party/FreeRTOS/Source/queue.c" 1
 1630 0122 BFF34F8F 		dsb
 1631              	@ 0 "" 2
 1632              	@ 1745 "Middlewares/Third_Party/FreeRTOS/Source/queue.c" 1
 1633 0126 BFF36F8F 		isb
ARM GAS  C:\Users\xiaofei\AppData\Local\Temp\ccPY5Cl3.s 			page 29


 1634              	@ 0 "" 2
 1635              		.thumb
 1636              		.syntax unified
 1637 012a 9FE7     		b	.L212
 1638              	.L222:
 1639 012c 2046     		mov	r0, r4
 1640 012e FFF7FEFF 		bl	prvUnlockQueue
 1641 0132 FFF7FEFF 		bl	xTaskResumeAll
 1642 0136 99E7     		b	.L212
 1643              	.L221:
 1644 0138 2046     		mov	r0, r4
 1645 013a FFF7FEFF 		bl	prvUnlockQueue
 1646 013e FFF7FEFF 		bl	xTaskResumeAll
 1647 0142 2046     		mov	r0, r4
 1648 0144 FFF7FEFF 		bl	prvIsQueueEmpty
 1649 0148 0028     		cmp	r0, #0
 1650 014a 8FD0     		beq	.L212
 1651 014c 0020     		movs	r0, #0
 1652              	.L216:
 1653 014e 04B0     		add	sp, sp, #16
 1654              		@ sp needed
 1655 0150 70BD     		pop	{r4, r5, r6, pc}
 1656              	.L231:
 1657 0152 00BF     		.align	2
 1658              	.L230:
 1659 0154 04ED00E0 		.word	-536810236
 1661              		.section	.text.xQueueReceiveFromISR,"ax",%progbits
 1662              		.align	2
 1663              		.global	xQueueReceiveFromISR
 1664              		.thumb
 1665              		.thumb_func
 1667              	xQueueReceiveFromISR:
 1668              		@ args = 0, pretend = 0, frame = 0
 1669              		@ frame_needed = 0, uses_anonymous_args = 0
 1670 0000 2DE9F843 		push	{r3, r4, r5, r6, r7, r8, r9, lr}
 1671 0004 40B9     		cbnz	r0, .L233
 1672              		.syntax unified
 1673              	@ 195 "Middlewares/Third_Party/FreeRTOS/Source/portable/GCC/ARM_CM4F/portmacro.h" 1
 1674 0006 4FF05003 			mov r3, #80												
 1675 000a 83F31188 		msr basepri, r3											
 1676 000e BFF36F8F 		isb														
 1677 0012 BFF34F8F 		dsb														
 1678              	
 1679              	@ 0 "" 2
 1680              		.thumb
 1681              		.syntax unified
 1682              	.L234:
 1683 0016 FEE7     		b	.L234
 1684              	.L233:
 1685 0018 0446     		mov	r4, r0
 1686 001a 19B9     		cbnz	r1, .L240
 1687 001c 036C     		ldr	r3, [r0, #64]
 1688 001e 1BB9     		cbnz	r3, .L241
 1689 0020 0123     		movs	r3, #1
 1690 0022 02E0     		b	.L235
 1691              	.L240:
 1692 0024 0123     		movs	r3, #1
ARM GAS  C:\Users\xiaofei\AppData\Local\Temp\ccPY5Cl3.s 			page 30


 1693 0026 00E0     		b	.L235
 1694              	.L241:
 1695 0028 0023     		movs	r3, #0
 1696              	.L235:
 1697 002a 43B9     		cbnz	r3, .L236
 1698              		.syntax unified
 1699              	@ 195 "Middlewares/Third_Party/FreeRTOS/Source/portable/GCC/ARM_CM4F/portmacro.h" 1
 1700 002c 4FF05003 			mov r3, #80												
 1701 0030 83F31188 		msr basepri, r3											
 1702 0034 BFF36F8F 		isb														
 1703 0038 BFF34F8F 		dsb														
 1704              	
 1705              	@ 0 "" 2
 1706              		.thumb
 1707              		.syntax unified
 1708              	.L237:
 1709 003c FEE7     		b	.L237
 1710              	.L236:
 1711 003e 1746     		mov	r7, r2
 1712 0040 8946     		mov	r9, r1
 1713 0042 FFF7FEFF 		bl	vPortValidateInterruptPriority
 1714              		.syntax unified
 1715              	@ 211 "Middlewares/Third_Party/FreeRTOS/Source/portable/GCC/ARM_CM4F/portmacro.h" 1
 1716 0046 EFF31186 			mrs r6, basepri											
 1717 004a 4FF05003 		mov r3, #80												
 1718 004e 83F31188 		msr basepri, r3											
 1719 0052 BFF36F8F 		isb														
 1720 0056 BFF34F8F 		dsb														
 1721              	
 1722              	@ 0 "" 2
 1723              		.thumb
 1724              		.syntax unified
 1725 005a D4F83880 		ldr	r8, [r4, #56]
 1726 005e B8F1000F 		cmp	r8, #0
 1727 0062 1DD0     		beq	.L242
 1728 0064 94F84450 		ldrb	r5, [r4, #68]	@ zero_extendqisi2
 1729 0068 6DB2     		sxtb	r5, r5
 1730 006a 4946     		mov	r1, r9
 1731 006c 2046     		mov	r0, r4
 1732 006e FFF7FEFF 		bl	prvCopyDataFromQueue
 1733 0072 08F1FF33 		add	r3, r8, #-1
 1734 0076 A363     		str	r3, [r4, #56]
 1735 0078 B5F1FF3F 		cmp	r5, #-1
 1736 007c 0AD1     		bne	.L239
 1737 007e 2369     		ldr	r3, [r4, #16]
 1738 0080 83B1     		cbz	r3, .L243
 1739 0082 04F11000 		add	r0, r4, #16
 1740 0086 FFF7FEFF 		bl	xTaskRemoveFromEventList
 1741 008a 68B1     		cbz	r0, .L244
 1742 008c 77B1     		cbz	r7, .L245
 1743 008e 0120     		movs	r0, #1
 1744 0090 3860     		str	r0, [r7]
 1745 0092 0CE0     		b	.L238
 1746              	.L239:
 1747 0094 6B1C     		adds	r3, r5, #1
 1748 0096 5BB2     		sxtb	r3, r3
 1749 0098 84F84430 		strb	r3, [r4, #68]
ARM GAS  C:\Users\xiaofei\AppData\Local\Temp\ccPY5Cl3.s 			page 31


 1750 009c 0120     		movs	r0, #1
 1751 009e 06E0     		b	.L238
 1752              	.L242:
 1753 00a0 0020     		movs	r0, #0
 1754 00a2 04E0     		b	.L238
 1755              	.L243:
 1756 00a4 0120     		movs	r0, #1
 1757 00a6 02E0     		b	.L238
 1758              	.L244:
 1759 00a8 0120     		movs	r0, #1
 1760 00aa 00E0     		b	.L238
 1761              	.L245:
 1762 00ac 0120     		movs	r0, #1
 1763              	.L238:
 1764              		.syntax unified
 1765              	@ 229 "Middlewares/Third_Party/FreeRTOS/Source/portable/GCC/ARM_CM4F/portmacro.h" 1
 1766 00ae 86F31188 			msr basepri, r6	
 1767              	@ 0 "" 2
 1768              		.thumb
 1769              		.syntax unified
 1770 00b2 BDE8F883 		pop	{r3, r4, r5, r6, r7, r8, r9, pc}
 1772 00b6 00BF     		.section	.text.xQueuePeekFromISR,"ax",%progbits
 1773              		.align	2
 1774              		.global	xQueuePeekFromISR
 1775              		.thumb
 1776              		.thumb_func
 1778              	xQueuePeekFromISR:
 1779              		@ args = 0, pretend = 0, frame = 0
 1780              		@ frame_needed = 0, uses_anonymous_args = 0
 1781 0000 F8B5     		push	{r3, r4, r5, r6, r7, lr}
 1782 0002 40B9     		cbnz	r0, .L248
 1783              		.syntax unified
 1784              	@ 195 "Middlewares/Third_Party/FreeRTOS/Source/portable/GCC/ARM_CM4F/portmacro.h" 1
 1785 0004 4FF05003 			mov r3, #80												
 1786 0008 83F31188 		msr basepri, r3											
 1787 000c BFF36F8F 		isb														
 1788 0010 BFF34F8F 		dsb														
 1789              	
 1790              	@ 0 "" 2
 1791              		.thumb
 1792              		.syntax unified
 1793              	.L249:
 1794 0014 FEE7     		b	.L249
 1795              	.L248:
 1796 0016 0446     		mov	r4, r0
 1797 0018 19B9     		cbnz	r1, .L256
 1798 001a 036C     		ldr	r3, [r0, #64]
 1799 001c 1BB9     		cbnz	r3, .L257
 1800 001e 0123     		movs	r3, #1
 1801 0020 02E0     		b	.L250
 1802              	.L256:
 1803 0022 0123     		movs	r3, #1
 1804 0024 00E0     		b	.L250
 1805              	.L257:
 1806 0026 0023     		movs	r3, #0
 1807              	.L250:
 1808 0028 43B9     		cbnz	r3, .L251
ARM GAS  C:\Users\xiaofei\AppData\Local\Temp\ccPY5Cl3.s 			page 32


 1809              		.syntax unified
 1810              	@ 195 "Middlewares/Third_Party/FreeRTOS/Source/portable/GCC/ARM_CM4F/portmacro.h" 1
 1811 002a 4FF05003 			mov r3, #80												
 1812 002e 83F31188 		msr basepri, r3											
 1813 0032 BFF36F8F 		isb														
 1814 0036 BFF34F8F 		dsb														
 1815              	
 1816              	@ 0 "" 2
 1817              		.thumb
 1818              		.syntax unified
 1819              	.L252:
 1820 003a FEE7     		b	.L252
 1821              	.L251:
 1822 003c 236C     		ldr	r3, [r4, #64]
 1823 003e 43B9     		cbnz	r3, .L253
 1824              		.syntax unified
 1825              	@ 195 "Middlewares/Third_Party/FreeRTOS/Source/portable/GCC/ARM_CM4F/portmacro.h" 1
 1826 0040 4FF05003 			mov r3, #80												
 1827 0044 83F31188 		msr basepri, r3											
 1828 0048 BFF36F8F 		isb														
 1829 004c BFF34F8F 		dsb														
 1830              	
 1831              	@ 0 "" 2
 1832              		.thumb
 1833              		.syntax unified
 1834              	.L254:
 1835 0050 FEE7     		b	.L254
 1836              	.L253:
 1837 0052 0D46     		mov	r5, r1
 1838 0054 FFF7FEFF 		bl	vPortValidateInterruptPriority
 1839              		.syntax unified
 1840              	@ 211 "Middlewares/Third_Party/FreeRTOS/Source/portable/GCC/ARM_CM4F/portmacro.h" 1
 1841 0058 EFF31186 			mrs r6, basepri											
 1842 005c 4FF05003 		mov r3, #80												
 1843 0060 83F31188 		msr basepri, r3											
 1844 0064 BFF36F8F 		isb														
 1845 0068 BFF34F8F 		dsb														
 1846              	
 1847              	@ 0 "" 2
 1848              		.thumb
 1849              		.syntax unified
 1850 006c A36B     		ldr	r3, [r4, #56]
 1851 006e 3BB1     		cbz	r3, .L258
 1852 0070 E768     		ldr	r7, [r4, #12]
 1853 0072 2946     		mov	r1, r5
 1854 0074 2046     		mov	r0, r4
 1855 0076 FFF7FEFF 		bl	prvCopyDataFromQueue
 1856 007a E760     		str	r7, [r4, #12]
 1857 007c 0120     		movs	r0, #1
 1858 007e 00E0     		b	.L255
 1859              	.L258:
 1860 0080 0020     		movs	r0, #0
 1861              	.L255:
 1862              		.syntax unified
 1863              	@ 229 "Middlewares/Third_Party/FreeRTOS/Source/portable/GCC/ARM_CM4F/portmacro.h" 1
 1864 0082 86F31188 			msr basepri, r6	
 1865              	@ 0 "" 2
ARM GAS  C:\Users\xiaofei\AppData\Local\Temp\ccPY5Cl3.s 			page 33


 1866              		.thumb
 1867              		.syntax unified
 1868 0086 F8BD     		pop	{r3, r4, r5, r6, r7, pc}
 1870              		.section	.text.uxQueueMessagesWaiting,"ax",%progbits
 1871              		.align	2
 1872              		.global	uxQueueMessagesWaiting
 1873              		.thumb
 1874              		.thumb_func
 1876              	uxQueueMessagesWaiting:
 1877              		@ args = 0, pretend = 0, frame = 0
 1878              		@ frame_needed = 0, uses_anonymous_args = 0
 1879 0000 40B9     		cbnz	r0, .L261
 1880              		.syntax unified
 1881              	@ 195 "Middlewares/Third_Party/FreeRTOS/Source/portable/GCC/ARM_CM4F/portmacro.h" 1
 1882 0002 4FF05003 			mov r3, #80												
 1883 0006 83F31188 		msr basepri, r3											
 1884 000a BFF36F8F 		isb														
 1885 000e BFF34F8F 		dsb														
 1886              	
 1887              	@ 0 "" 2
 1888              		.thumb
 1889              		.syntax unified
 1890              	.L262:
 1891 0012 FEE7     		b	.L262
 1892              	.L261:
 1893 0014 10B5     		push	{r4, lr}
 1894 0016 0446     		mov	r4, r0
 1895 0018 FFF7FEFF 		bl	vPortEnterCritical
 1896 001c A46B     		ldr	r4, [r4, #56]
 1897 001e FFF7FEFF 		bl	vPortExitCritical
 1898 0022 2046     		mov	r0, r4
 1899 0024 10BD     		pop	{r4, pc}
 1901 0026 00BF     		.section	.text.uxQueueSpacesAvailable,"ax",%progbits
 1902              		.align	2
 1903              		.global	uxQueueSpacesAvailable
 1904              		.thumb
 1905              		.thumb_func
 1907              	uxQueueSpacesAvailable:
 1908              		@ args = 0, pretend = 0, frame = 0
 1909              		@ frame_needed = 0, uses_anonymous_args = 0
 1910 0000 40B9     		cbnz	r0, .L265
 1911              		.syntax unified
 1912              	@ 195 "Middlewares/Third_Party/FreeRTOS/Source/portable/GCC/ARM_CM4F/portmacro.h" 1
 1913 0002 4FF05003 			mov r3, #80												
 1914 0006 83F31188 		msr basepri, r3											
 1915 000a BFF36F8F 		isb														
 1916 000e BFF34F8F 		dsb														
 1917              	
 1918              	@ 0 "" 2
 1919              		.thumb
 1920              		.syntax unified
 1921              	.L266:
 1922 0012 FEE7     		b	.L266
 1923              	.L265:
 1924 0014 10B5     		push	{r4, lr}
 1925 0016 0446     		mov	r4, r0
 1926 0018 FFF7FEFF 		bl	vPortEnterCritical
ARM GAS  C:\Users\xiaofei\AppData\Local\Temp\ccPY5Cl3.s 			page 34


 1927 001c E36B     		ldr	r3, [r4, #60]
 1928 001e A46B     		ldr	r4, [r4, #56]
 1929 0020 1C1B     		subs	r4, r3, r4
 1930 0022 FFF7FEFF 		bl	vPortExitCritical
 1931 0026 2046     		mov	r0, r4
 1932 0028 10BD     		pop	{r4, pc}
 1934 002a 00BF     		.section	.text.uxQueueMessagesWaitingFromISR,"ax",%progbits
 1935              		.align	2
 1936              		.global	uxQueueMessagesWaitingFromISR
 1937              		.thumb
 1938              		.thumb_func
 1940              	uxQueueMessagesWaitingFromISR:
 1941              		@ args = 0, pretend = 0, frame = 0
 1942              		@ frame_needed = 0, uses_anonymous_args = 0
 1943              		@ link register save eliminated.
 1944 0000 40B9     		cbnz	r0, .L269
 1945              		.syntax unified
 1946              	@ 195 "Middlewares/Third_Party/FreeRTOS/Source/portable/GCC/ARM_CM4F/portmacro.h" 1
 1947 0002 4FF05003 			mov r3, #80												
 1948 0006 83F31188 		msr basepri, r3											
 1949 000a BFF36F8F 		isb														
 1950 000e BFF34F8F 		dsb														
 1951              	
 1952              	@ 0 "" 2
 1953              		.thumb
 1954              		.syntax unified
 1955              	.L270:
 1956 0012 FEE7     		b	.L270
 1957              	.L269:
 1958 0014 806B     		ldr	r0, [r0, #56]
 1959 0016 7047     		bx	lr
 1961              		.section	.text.xQueueIsQueueEmptyFromISR,"ax",%progbits
 1962              		.align	2
 1963              		.global	xQueueIsQueueEmptyFromISR
 1964              		.thumb
 1965              		.thumb_func
 1967              	xQueueIsQueueEmptyFromISR:
 1968              		@ args = 0, pretend = 0, frame = 0
 1969              		@ frame_needed = 0, uses_anonymous_args = 0
 1970              		@ link register save eliminated.
 1971 0000 40B9     		cbnz	r0, .L272
 1972              		.syntax unified
 1973              	@ 195 "Middlewares/Third_Party/FreeRTOS/Source/portable/GCC/ARM_CM4F/portmacro.h" 1
 1974 0002 4FF05003 			mov r3, #80												
 1975 0006 83F31188 		msr basepri, r3											
 1976 000a BFF36F8F 		isb														
 1977 000e BFF34F8F 		dsb														
 1978              	
 1979              	@ 0 "" 2
 1980              		.thumb
 1981              		.syntax unified
 1982              	.L273:
 1983 0012 FEE7     		b	.L273
 1984              	.L272:
 1985 0014 836B     		ldr	r3, [r0, #56]
 1986 0016 0BB9     		cbnz	r3, .L275
 1987 0018 0120     		movs	r0, #1
ARM GAS  C:\Users\xiaofei\AppData\Local\Temp\ccPY5Cl3.s 			page 35


 1988 001a 7047     		bx	lr
 1989              	.L275:
 1990 001c 0020     		movs	r0, #0
 1991 001e 7047     		bx	lr
 1993              		.section	.text.xQueueIsQueueFullFromISR,"ax",%progbits
 1994              		.align	2
 1995              		.global	xQueueIsQueueFullFromISR
 1996              		.thumb
 1997              		.thumb_func
 1999              	xQueueIsQueueFullFromISR:
 2000              		@ args = 0, pretend = 0, frame = 0
 2001              		@ frame_needed = 0, uses_anonymous_args = 0
 2002              		@ link register save eliminated.
 2003 0000 40B9     		cbnz	r0, .L277
 2004              		.syntax unified
 2005              	@ 195 "Middlewares/Third_Party/FreeRTOS/Source/portable/GCC/ARM_CM4F/portmacro.h" 1
 2006 0002 4FF05003 			mov r3, #80												
 2007 0006 83F31188 		msr basepri, r3											
 2008 000a BFF36F8F 		isb														
 2009 000e BFF34F8F 		dsb														
 2010              	
 2011              	@ 0 "" 2
 2012              		.thumb
 2013              		.syntax unified
 2014              	.L278:
 2015 0012 FEE7     		b	.L278
 2016              	.L277:
 2017 0014 826B     		ldr	r2, [r0, #56]
 2018 0016 C36B     		ldr	r3, [r0, #60]
 2019 0018 9A42     		cmp	r2, r3
 2020 001a 01D1     		bne	.L280
 2021 001c 0120     		movs	r0, #1
 2022 001e 7047     		bx	lr
 2023              	.L280:
 2024 0020 0020     		movs	r0, #0
 2025 0022 7047     		bx	lr
 2027              		.section	.text.vQueueAddToRegistry,"ax",%progbits
 2028              		.align	2
 2029              		.global	vQueueAddToRegistry
 2030              		.thumb
 2031              		.thumb_func
 2033              	vQueueAddToRegistry:
 2034              		@ args = 0, pretend = 0, frame = 0
 2035              		@ frame_needed = 0, uses_anonymous_args = 0
 2036              		@ link register save eliminated.
 2037 0000 0023     		movs	r3, #0
 2038 0002 0BE0     		b	.L282
 2039              	.L285:
 2040 0004 074A     		ldr	r2, .L286
 2041 0006 52F83320 		ldr	r2, [r2, r3, lsl #3]
 2042 000a 32B9     		cbnz	r2, .L283
 2043 000c 054A     		ldr	r2, .L286
 2044 000e 42F83310 		str	r1, [r2, r3, lsl #3]
 2045 0012 02EBC303 		add	r3, r2, r3, lsl #3
 2046 0016 5860     		str	r0, [r3, #4]
 2047 0018 7047     		bx	lr
 2048              	.L283:
ARM GAS  C:\Users\xiaofei\AppData\Local\Temp\ccPY5Cl3.s 			page 36


 2049 001a 0133     		adds	r3, r3, #1
 2050              	.L282:
 2051 001c 072B     		cmp	r3, #7
 2052 001e F1D9     		bls	.L285
 2053 0020 7047     		bx	lr
 2054              	.L287:
 2055 0022 00BF     		.align	2
 2056              	.L286:
 2057 0024 00000000 		.word	xQueueRegistry
 2059              		.section	.text.pcQueueGetName,"ax",%progbits
 2060              		.align	2
 2061              		.global	pcQueueGetName
 2062              		.thumb
 2063              		.thumb_func
 2065              	pcQueueGetName:
 2066              		@ args = 0, pretend = 0, frame = 0
 2067              		@ frame_needed = 0, uses_anonymous_args = 0
 2068              		@ link register save eliminated.
 2069 0000 0023     		movs	r3, #0
 2070 0002 0AE0     		b	.L289
 2071              	.L292:
 2072 0004 074A     		ldr	r2, .L293
 2073 0006 02EBC302 		add	r2, r2, r3, lsl #3
 2074 000a 5268     		ldr	r2, [r2, #4]
 2075 000c 8242     		cmp	r2, r0
 2076 000e 03D1     		bne	.L290
 2077 0010 044A     		ldr	r2, .L293
 2078 0012 52F83300 		ldr	r0, [r2, r3, lsl #3]
 2079 0016 7047     		bx	lr
 2080              	.L290:
 2081 0018 0133     		adds	r3, r3, #1
 2082              	.L289:
 2083 001a 072B     		cmp	r3, #7
 2084 001c F2D9     		bls	.L292
 2085 001e 0020     		movs	r0, #0
 2086 0020 7047     		bx	lr
 2087              	.L294:
 2088 0022 00BF     		.align	2
 2089              	.L293:
 2090 0024 00000000 		.word	xQueueRegistry
 2092              		.section	.text.vQueueUnregisterQueue,"ax",%progbits
 2093              		.align	2
 2094              		.global	vQueueUnregisterQueue
 2095              		.thumb
 2096              		.thumb_func
 2098              	vQueueUnregisterQueue:
 2099              		@ args = 0, pretend = 0, frame = 0
 2100              		@ frame_needed = 0, uses_anonymous_args = 0
 2101              		@ link register save eliminated.
 2102 0000 0023     		movs	r3, #0
 2103 0002 0EE0     		b	.L296
 2104              	.L299:
 2105 0004 084A     		ldr	r2, .L300
 2106 0006 02EBC302 		add	r2, r2, r3, lsl #3
 2107 000a 5268     		ldr	r2, [r2, #4]
 2108 000c 8242     		cmp	r2, r0
 2109 000e 07D1     		bne	.L297
ARM GAS  C:\Users\xiaofei\AppData\Local\Temp\ccPY5Cl3.s 			page 37


 2110 0010 054A     		ldr	r2, .L300
 2111 0012 0021     		movs	r1, #0
 2112 0014 42F83310 		str	r1, [r2, r3, lsl #3]
 2113 0018 02EBC303 		add	r3, r2, r3, lsl #3
 2114 001c 5960     		str	r1, [r3, #4]
 2115 001e 7047     		bx	lr
 2116              	.L297:
 2117 0020 0133     		adds	r3, r3, #1
 2118              	.L296:
 2119 0022 072B     		cmp	r3, #7
 2120 0024 EED9     		bls	.L299
 2121 0026 7047     		bx	lr
 2122              	.L301:
 2123              		.align	2
 2124              	.L300:
 2125 0028 00000000 		.word	xQueueRegistry
 2127              		.section	.text.vQueueDelete,"ax",%progbits
 2128              		.align	2
 2129              		.global	vQueueDelete
 2130              		.thumb
 2131              		.thumb_func
 2133              	vQueueDelete:
 2134              		@ args = 0, pretend = 0, frame = 0
 2135              		@ frame_needed = 0, uses_anonymous_args = 0
 2136 0000 40B9     		cbnz	r0, .L303
 2137              		.syntax unified
 2138              	@ 195 "Middlewares/Third_Party/FreeRTOS/Source/portable/GCC/ARM_CM4F/portmacro.h" 1
 2139 0002 4FF05003 			mov r3, #80												
 2140 0006 83F31188 		msr basepri, r3											
 2141 000a BFF36F8F 		isb														
 2142 000e BFF34F8F 		dsb														
 2143              	
 2144              	@ 0 "" 2
 2145              		.thumb
 2146              		.syntax unified
 2147              	.L304:
 2148 0012 FEE7     		b	.L304
 2149              	.L303:
 2150 0014 10B5     		push	{r4, lr}
 2151 0016 0446     		mov	r4, r0
 2152 0018 FFF7FEFF 		bl	vQueueUnregisterQueue
 2153 001c 94F84630 		ldrb	r3, [r4, #70]	@ zero_extendqisi2
 2154 0020 13B9     		cbnz	r3, .L302
 2155 0022 2046     		mov	r0, r4
 2156 0024 FFF7FEFF 		bl	vPortFree
 2157              	.L302:
 2158 0028 10BD     		pop	{r4, pc}
 2160              		.comm	xQueueRegistry,64,4
 2161 002a 00BF     		.ident	"GCC: (GNU Tools for ARM Embedded Processors) 5.4.1 20160919 (release) [ARM/embedded-5-bran
ARM GAS  C:\Users\xiaofei\AppData\Local\Temp\ccPY5Cl3.s 			page 38

