ARM GAS  C:\Users\xiaofei\AppData\Local\Temp\ccrFn3n8.s 			page 1


   1              		.syntax unified
   2              		.cpu cortex-m7
   3              		.eabi_attribute 28, 1
   4              		.fpu fpv5-d16
   5              		.eabi_attribute 20, 1
   6              		.eabi_attribute 21, 1
   7              		.eabi_attribute 23, 3
   8              		.eabi_attribute 24, 1
   9              		.eabi_attribute 25, 1
  10              		.eabi_attribute 26, 1
  11              		.eabi_attribute 30, 1
  12              		.eabi_attribute 34, 1
  13              		.eabi_attribute 18, 4
  14              		.thumb
  15              		.syntax unified
  16              		.file	"stm32h7xx_hal_rcc.c"
  17              		.section	.text.HAL_RCC_DeInit,"ax",%progbits
  18              		.align	2
  19              		.global	HAL_RCC_DeInit
  20              		.thumb
  21              		.thumb_func
  23              	HAL_RCC_DeInit:
  24              		@ args = 0, pretend = 0, frame = 0
  25              		@ frame_needed = 0, uses_anonymous_args = 0
  26 0000 38B5     		push	{r3, r4, r5, lr}
  27 0002 6D4B     		ldr	r3, .L25
  28 0004 1B68     		ldr	r3, [r3]
  29 0006 03F00F03 		and	r3, r3, #15
  30 000a 062B     		cmp	r3, #6
  31 000c 0CD8     		bhi	.L2
  32 000e 6A4A     		ldr	r2, .L25
  33 0010 1368     		ldr	r3, [r2]
  34 0012 23F00F03 		bic	r3, r3, #15
  35 0016 43F00703 		orr	r3, r3, #7
  36 001a 1360     		str	r3, [r2]
  37 001c 1368     		ldr	r3, [r2]
  38 001e 03F00F03 		and	r3, r3, #15
  39 0022 072B     		cmp	r3, #7
  40 0024 40F0B780 		bne	.L16
  41              	.L2:
  42 0028 FFF7FEFF 		bl	HAL_GetTick
  43 002c 0446     		mov	r4, r0
  44 002e 634A     		ldr	r2, .L25+4
  45 0030 1368     		ldr	r3, [r2]
  46 0032 43F00103 		orr	r3, r3, #1
  47 0036 1360     		str	r3, [r2]
  48 0038 05E0     		b	.L4
  49              	.L5:
  50 003a FFF7FEFF 		bl	HAL_GetTick
  51 003e 001B     		subs	r0, r0, r4
  52 0040 0228     		cmp	r0, #2
  53 0042 00F2AA80 		bhi	.L17
  54              	.L4:
  55 0046 5D4B     		ldr	r3, .L25+4
  56 0048 1B68     		ldr	r3, [r3]
  57 004a 13F0040F 		tst	r3, #4
  58 004e F4D0     		beq	.L5
ARM GAS  C:\Users\xiaofei\AppData\Local\Temp\ccrFn3n8.s 			page 2


  59 0050 5A4B     		ldr	r3, .L25+4
  60 0052 5A68     		ldr	r2, [r3, #4]
  61 0054 42F08042 		orr	r2, r2, #1073741824
  62 0058 5A60     		str	r2, [r3, #4]
  63 005a 0022     		movs	r2, #0
  64 005c 1A61     		str	r2, [r3, #16]
  65 005e 584B     		ldr	r3, .L25+8
  66 0060 584A     		ldr	r2, .L25+12
  67 0062 1360     		str	r3, [r2]
  68 0064 584A     		ldr	r2, .L25+16
  69 0066 1360     		str	r3, [r2]
  70 0068 584B     		ldr	r3, .L25+20
  71 006a 1868     		ldr	r0, [r3]
  72 006c FFF7FEFF 		bl	HAL_InitTick
  73 0070 0446     		mov	r4, r0
  74 0072 0028     		cmp	r0, #0
  75 0074 40F09380 		bne	.L18
  76 0078 FFF7FEFF 		bl	HAL_GetTick
  77 007c 0546     		mov	r5, r0
  78 007e 07E0     		b	.L6
  79              	.L7:
  80 0080 FFF7FEFF 		bl	HAL_GetTick
  81 0084 401B     		subs	r0, r0, r5
  82 0086 41F28833 		movw	r3, #5000
  83 008a 9842     		cmp	r0, r3
  84 008c 00F28980 		bhi	.L19
  85              	.L6:
  86 0090 4A4B     		ldr	r3, .L25+4
  87 0092 1B69     		ldr	r3, [r3, #16]
  88 0094 13F0380F 		tst	r3, #56
  89 0098 F2D1     		bne	.L7
  90 009a FFF7FEFF 		bl	HAL_GetTick
  91 009e 0546     		mov	r5, r0
  92 00a0 464A     		ldr	r2, .L25+4
  93 00a2 1168     		ldr	r1, [r2]
  94 00a4 4A4B     		ldr	r3, .L25+24
  95 00a6 0B40     		ands	r3, r3, r1
  96 00a8 1360     		str	r3, [r2]
  97 00aa 04E0     		b	.L8
  98              	.L9:
  99 00ac FFF7FEFF 		bl	HAL_GetTick
 100 00b0 401B     		subs	r0, r0, r5
 101 00b2 6428     		cmp	r0, #100
 102 00b4 77D8     		bhi	.L20
 103              	.L8:
 104 00b6 414B     		ldr	r3, .L25+4
 105 00b8 1B68     		ldr	r3, [r3]
 106 00ba 13F4003F 		tst	r3, #131072
 107 00be F5D1     		bne	.L9
 108 00c0 FFF7FEFF 		bl	HAL_GetTick
 109 00c4 0546     		mov	r5, r0
 110 00c6 3D4A     		ldr	r2, .L25+4
 111 00c8 1368     		ldr	r3, [r2]
 112 00ca 23F08073 		bic	r3, r3, #16777216
 113 00ce 1360     		str	r3, [r2]
 114 00d0 04E0     		b	.L10
 115              	.L11:
ARM GAS  C:\Users\xiaofei\AppData\Local\Temp\ccrFn3n8.s 			page 3


 116 00d2 FFF7FEFF 		bl	HAL_GetTick
 117 00d6 401B     		subs	r0, r0, r5
 118 00d8 0228     		cmp	r0, #2
 119 00da 66D8     		bhi	.L21
 120              	.L10:
 121 00dc 374B     		ldr	r3, .L25+4
 122 00de 1B68     		ldr	r3, [r3]
 123 00e0 13F0007F 		tst	r3, #33554432
 124 00e4 F5D1     		bne	.L11
 125 00e6 FFF7FEFF 		bl	HAL_GetTick
 126 00ea 0546     		mov	r5, r0
 127 00ec 334A     		ldr	r2, .L25+4
 128 00ee 1368     		ldr	r3, [r2]
 129 00f0 23F08063 		bic	r3, r3, #67108864
 130 00f4 1360     		str	r3, [r2]
 131 00f6 04E0     		b	.L12
 132              	.L13:
 133 00f8 FFF7FEFF 		bl	HAL_GetTick
 134 00fc 401B     		subs	r0, r0, r5
 135 00fe 0228     		cmp	r0, #2
 136 0100 55D8     		bhi	.L22
 137              	.L12:
 138 0102 2E4B     		ldr	r3, .L25+4
 139 0104 1B68     		ldr	r3, [r3]
 140 0106 13F0006F 		tst	r3, #134217728
 141 010a F5D1     		bne	.L13
 142 010c FFF7FEFF 		bl	HAL_GetTick
 143 0110 0546     		mov	r5, r0
 144 0112 2A4A     		ldr	r2, .L25+4
 145 0114 1368     		ldr	r3, [r2]
 146 0116 23F08053 		bic	r3, r3, #268435456
 147 011a 1360     		str	r3, [r2]
 148 011c 04E0     		b	.L14
 149              	.L15:
 150 011e FFF7FEFF 		bl	HAL_GetTick
 151 0122 401B     		subs	r0, r0, r5
 152 0124 0228     		cmp	r0, #2
 153 0126 44D8     		bhi	.L23
 154              	.L14:
 155 0128 244B     		ldr	r3, .L25+4
 156 012a 1B68     		ldr	r3, [r3]
 157 012c 13F0005F 		tst	r3, #536870912
 158 0130 F5D1     		bne	.L15
 159 0132 224B     		ldr	r3, .L25+4
 160 0134 0022     		movs	r2, #0
 161 0136 9A61     		str	r2, [r3, #24]
 162 0138 DA61     		str	r2, [r3, #28]
 163 013a 1A62     		str	r2, [r3, #32]
 164 013c 2549     		ldr	r1, .L25+28
 165 013e 9962     		str	r1, [r3, #40]
 166 0140 2549     		ldr	r1, .L25+32
 167 0142 D962     		str	r1, [r3, #44]
 168 0144 2549     		ldr	r1, .L25+36
 169 0146 1963     		str	r1, [r3, #48]
 170 0148 5A63     		str	r2, [r3, #52]
 171 014a 9963     		str	r1, [r3, #56]
 172 014c DA63     		str	r2, [r3, #60]
ARM GAS  C:\Users\xiaofei\AppData\Local\Temp\ccrFn3n8.s 			page 4


 173 014e 1964     		str	r1, [r3, #64]
 174 0150 5A64     		str	r2, [r3, #68]
 175 0152 1968     		ldr	r1, [r3]
 176 0154 21F48021 		bic	r1, r1, #262144
 177 0158 1960     		str	r1, [r3]
 178 015a 1A66     		str	r2, [r3, #96]
 179 015c 4FF0FF32 		mov	r2, #-1
 180 0160 9A66     		str	r2, [r3, #104]
 181 0162 D3F8D020 		ldr	r2, [r3, #208]
 182 0166 42F48032 		orr	r2, r2, #65536
 183 016a C3F8D020 		str	r2, [r3, #208]
 184 016e 124B     		ldr	r3, .L25
 185 0170 1B68     		ldr	r3, [r3]
 186 0172 03F00F03 		and	r3, r3, #15
 187 0176 072B     		cmp	r3, #7
 188 0178 1CD9     		bls	.L3
 189 017a 0F4A     		ldr	r2, .L25
 190 017c 1368     		ldr	r3, [r2]
 191 017e 23F00F03 		bic	r3, r3, #15
 192 0182 43F00703 		orr	r3, r3, #7
 193 0186 1360     		str	r3, [r2]
 194 0188 1368     		ldr	r3, [r2]
 195 018a 03F00F03 		and	r3, r3, #15
 196 018e 072B     		cmp	r3, #7
 197 0190 10D0     		beq	.L3
 198 0192 0124     		movs	r4, #1
 199 0194 0EE0     		b	.L3
 200              	.L16:
 201 0196 0124     		movs	r4, #1
 202 0198 0CE0     		b	.L3
 203              	.L17:
 204 019a 0324     		movs	r4, #3
 205 019c 0AE0     		b	.L3
 206              	.L18:
 207 019e 0124     		movs	r4, #1
 208 01a0 08E0     		b	.L3
 209              	.L19:
 210 01a2 0324     		movs	r4, #3
 211 01a4 06E0     		b	.L3
 212              	.L20:
 213 01a6 0324     		movs	r4, #3
 214 01a8 04E0     		b	.L3
 215              	.L21:
 216 01aa 0324     		movs	r4, #3
 217 01ac 02E0     		b	.L3
 218              	.L22:
 219 01ae 0324     		movs	r4, #3
 220 01b0 00E0     		b	.L3
 221              	.L23:
 222 01b2 0324     		movs	r4, #3
 223              	.L3:
 224 01b4 2046     		mov	r0, r4
 225 01b6 38BD     		pop	{r3, r4, r5, pc}
 226              	.L26:
 227              		.align	2
 228              	.L25:
 229 01b8 00200052 		.word	1375739904
ARM GAS  C:\Users\xiaofei\AppData\Local\Temp\ccrFn3n8.s 			page 5


 230 01bc 00440258 		.word	1476543488
 231 01c0 0090D003 		.word	64000000
 232 01c4 00000000 		.word	SystemCoreClock
 233 01c8 00000000 		.word	SystemD2Clock
 234 01cc 00000000 		.word	uwTickPrio
 235 01d0 45EDF6FF 		.word	-594619
 236 01d4 00020202 		.word	33686016
 237 01d8 0000FF01 		.word	33488896
 238 01dc 80020101 		.word	16843392
 240              		.section	.text.HAL_RCC_OscConfig,"ax",%progbits
 241              		.align	2
 242              		.weak	HAL_RCC_OscConfig
 243              		.thumb
 244              		.thumb_func
 246              	HAL_RCC_OscConfig:
 247              		@ args = 0, pretend = 0, frame = 0
 248              		@ frame_needed = 0, uses_anonymous_args = 0
 249 0000 0028     		cmp	r0, #0
 250 0002 00F00583 		beq	.L99
 251 0006 38B5     		push	{r3, r4, r5, lr}
 252 0008 0446     		mov	r4, r0
 253 000a 0368     		ldr	r3, [r0]
 254 000c 13F0010F 		tst	r3, #1
 255 0010 61D0     		beq	.L29
 256 0012 AC4A     		ldr	r2, .L128
 257 0014 1369     		ldr	r3, [r2, #16]
 258 0016 03F03803 		and	r3, r3, #56
 259 001a 926A     		ldr	r2, [r2, #40]
 260 001c 102B     		cmp	r3, #16
 261 001e 05D0     		beq	.L30
 262 0020 182B     		cmp	r3, #24
 263 0022 0CD1     		bne	.L31
 264 0024 02F00302 		and	r2, r2, #3
 265 0028 022A     		cmp	r2, #2
 266 002a 08D1     		bne	.L31
 267              	.L30:
 268 002c A54B     		ldr	r3, .L128
 269 002e 1B68     		ldr	r3, [r3]
 270 0030 13F4003F 		tst	r3, #131072
 271 0034 4FD0     		beq	.L29
 272 0036 6368     		ldr	r3, [r4, #4]
 273 0038 002B     		cmp	r3, #0
 274 003a 4CD1     		bne	.L29
 275 003c EAE2     		b	.L100
 276              	.L31:
 277 003e 6368     		ldr	r3, [r4, #4]
 278 0040 B3F5803F 		cmp	r3, #65536
 279 0044 05D1     		bne	.L32
 280 0046 9F4A     		ldr	r2, .L128
 281 0048 1368     		ldr	r3, [r2]
 282 004a 43F48033 		orr	r3, r3, #65536
 283 004e 1360     		str	r3, [r2]
 284 0050 20E0     		b	.L33
 285              	.L32:
 286 0052 4BB9     		cbnz	r3, .L34
 287 0054 9B4B     		ldr	r3, .L128
 288 0056 1A68     		ldr	r2, [r3]
ARM GAS  C:\Users\xiaofei\AppData\Local\Temp\ccrFn3n8.s 			page 6


 289 0058 22F48032 		bic	r2, r2, #65536
 290 005c 1A60     		str	r2, [r3]
 291 005e 1A68     		ldr	r2, [r3]
 292 0060 22F48022 		bic	r2, r2, #262144
 293 0064 1A60     		str	r2, [r3]
 294 0066 15E0     		b	.L33
 295              	.L34:
 296 0068 B3F5A02F 		cmp	r3, #327680
 297 006c 09D1     		bne	.L35
 298 006e 954B     		ldr	r3, .L128
 299 0070 1A68     		ldr	r2, [r3]
 300 0072 42F48022 		orr	r2, r2, #262144
 301 0076 1A60     		str	r2, [r3]
 302 0078 1A68     		ldr	r2, [r3]
 303 007a 42F48032 		orr	r2, r2, #65536
 304 007e 1A60     		str	r2, [r3]
 305 0080 08E0     		b	.L33
 306              	.L35:
 307 0082 904B     		ldr	r3, .L128
 308 0084 1A68     		ldr	r2, [r3]
 309 0086 22F48032 		bic	r2, r2, #65536
 310 008a 1A60     		str	r2, [r3]
 311 008c 1A68     		ldr	r2, [r3]
 312 008e 22F48022 		bic	r2, r2, #262144
 313 0092 1A60     		str	r2, [r3]
 314              	.L33:
 315 0094 6368     		ldr	r3, [r4, #4]
 316 0096 7BB1     		cbz	r3, .L36
 317 0098 FFF7FEFF 		bl	HAL_GetTick
 318 009c 0546     		mov	r5, r0
 319 009e 05E0     		b	.L37
 320              	.L38:
 321 00a0 FFF7FEFF 		bl	HAL_GetTick
 322 00a4 401B     		subs	r0, r0, r5
 323 00a6 6428     		cmp	r0, #100
 324 00a8 00F2B682 		bhi	.L101
 325              	.L37:
 326 00ac 854B     		ldr	r3, .L128
 327 00ae 1B68     		ldr	r3, [r3]
 328 00b0 13F4003F 		tst	r3, #131072
 329 00b4 F4D0     		beq	.L38
 330 00b6 0EE0     		b	.L29
 331              	.L36:
 332 00b8 FFF7FEFF 		bl	HAL_GetTick
 333 00bc 0546     		mov	r5, r0
 334 00be 05E0     		b	.L39
 335              	.L40:
 336 00c0 FFF7FEFF 		bl	HAL_GetTick
 337 00c4 401B     		subs	r0, r0, r5
 338 00c6 6428     		cmp	r0, #100
 339 00c8 00F2A882 		bhi	.L102
 340              	.L39:
 341 00cc 7D4B     		ldr	r3, .L128
 342 00ce 1B68     		ldr	r3, [r3]
 343 00d0 13F4003F 		tst	r3, #131072
 344 00d4 F4D1     		bne	.L40
 345              	.L29:
ARM GAS  C:\Users\xiaofei\AppData\Local\Temp\ccrFn3n8.s 			page 7


 346 00d6 2368     		ldr	r3, [r4]
 347 00d8 13F0020F 		tst	r3, #2
 348 00dc 00F08480 		beq	.L41
 349 00e0 784A     		ldr	r2, .L128
 350 00e2 1369     		ldr	r3, [r2, #16]
 351 00e4 926A     		ldr	r2, [r2, #40]
 352 00e6 13F03803 		ands	r3, r3, #56
 353 00ea 04D0     		beq	.L42
 354 00ec 182B     		cmp	r3, #24
 355 00ee 2DD1     		bne	.L43
 356 00f0 12F0030F 		tst	r2, #3
 357 00f4 2AD1     		bne	.L43
 358              	.L42:
 359 00f6 734B     		ldr	r3, .L128
 360 00f8 1B68     		ldr	r3, [r3]
 361 00fa 13F0040F 		tst	r3, #4
 362 00fe 03D0     		beq	.L44
 363 0100 E368     		ldr	r3, [r4, #12]
 364 0102 002B     		cmp	r3, #0
 365 0104 00F08C82 		beq	.L103
 366              	.L44:
 367 0108 FFF7FEFF 		bl	HAL_GetREVID
 368 010c 41F20303 		movw	r3, #4099
 369 0110 9842     		cmp	r0, r3
 370 0112 12D8     		bhi	.L45
 371 0114 2269     		ldr	r2, [r4, #16]
 372 0116 402A     		cmp	r2, #64
 373 0118 07D1     		bne	.L46
 374 011a 6A4A     		ldr	r2, .L128
 375 011c 5368     		ldr	r3, [r2, #4]
 376 011e 23F47C33 		bic	r3, r3, #258048
 377 0122 43F40033 		orr	r3, r3, #131072
 378 0126 5360     		str	r3, [r2, #4]
 379 0128 5EE0     		b	.L41
 380              	.L46:
 381 012a 6649     		ldr	r1, .L128
 382 012c 4B68     		ldr	r3, [r1, #4]
 383 012e 23F47C33 		bic	r3, r3, #258048
 384 0132 43EA0233 		orr	r3, r3, r2, lsl #12
 385 0136 4B60     		str	r3, [r1, #4]
 386 0138 56E0     		b	.L41
 387              	.L45:
 388 013a 624A     		ldr	r2, .L128
 389 013c 5368     		ldr	r3, [r2, #4]
 390 013e 23F0FE43 		bic	r3, r3, #2130706432
 391 0142 2169     		ldr	r1, [r4, #16]
 392 0144 43EA0163 		orr	r3, r3, r1, lsl #24
 393 0148 5360     		str	r3, [r2, #4]
 394 014a 4DE0     		b	.L41
 395              	.L43:
 396 014c E268     		ldr	r2, [r4, #12]
 397 014e 002A     		cmp	r2, #0
 398 0150 36D0     		beq	.L47
 399 0152 5C49     		ldr	r1, .L128
 400 0154 0B68     		ldr	r3, [r1]
 401 0156 23F01903 		bic	r3, r3, #25
 402 015a 1343     		orrs	r3, r3, r2
ARM GAS  C:\Users\xiaofei\AppData\Local\Temp\ccrFn3n8.s 			page 8


 403 015c 0B60     		str	r3, [r1]
 404 015e FFF7FEFF 		bl	HAL_GetTick
 405 0162 0546     		mov	r5, r0
 406 0164 05E0     		b	.L48
 407              	.L49:
 408 0166 FFF7FEFF 		bl	HAL_GetTick
 409 016a 401B     		subs	r0, r0, r5
 410 016c 0228     		cmp	r0, #2
 411 016e 00F25982 		bhi	.L104
 412              	.L48:
 413 0172 544B     		ldr	r3, .L128
 414 0174 1B68     		ldr	r3, [r3]
 415 0176 13F0040F 		tst	r3, #4
 416 017a F4D0     		beq	.L49
 417 017c FFF7FEFF 		bl	HAL_GetREVID
 418 0180 41F20303 		movw	r3, #4099
 419 0184 9842     		cmp	r0, r3
 420 0186 12D8     		bhi	.L50
 421 0188 2269     		ldr	r2, [r4, #16]
 422 018a 402A     		cmp	r2, #64
 423 018c 07D1     		bne	.L51
 424 018e 4D4A     		ldr	r2, .L128
 425 0190 5368     		ldr	r3, [r2, #4]
 426 0192 23F47C33 		bic	r3, r3, #258048
 427 0196 43F40033 		orr	r3, r3, #131072
 428 019a 5360     		str	r3, [r2, #4]
 429 019c 24E0     		b	.L41
 430              	.L51:
 431 019e 4949     		ldr	r1, .L128
 432 01a0 4B68     		ldr	r3, [r1, #4]
 433 01a2 23F47C33 		bic	r3, r3, #258048
 434 01a6 43EA0233 		orr	r3, r3, r2, lsl #12
 435 01aa 4B60     		str	r3, [r1, #4]
 436 01ac 1CE0     		b	.L41
 437              	.L50:
 438 01ae 454A     		ldr	r2, .L128
 439 01b0 5368     		ldr	r3, [r2, #4]
 440 01b2 23F0FE43 		bic	r3, r3, #2130706432
 441 01b6 2169     		ldr	r1, [r4, #16]
 442 01b8 43EA0163 		orr	r3, r3, r1, lsl #24
 443 01bc 5360     		str	r3, [r2, #4]
 444 01be 13E0     		b	.L41
 445              	.L47:
 446 01c0 404A     		ldr	r2, .L128
 447 01c2 1368     		ldr	r3, [r2]
 448 01c4 23F00103 		bic	r3, r3, #1
 449 01c8 1360     		str	r3, [r2]
 450 01ca FFF7FEFF 		bl	HAL_GetTick
 451 01ce 0546     		mov	r5, r0
 452 01d0 05E0     		b	.L52
 453              	.L53:
 454 01d2 FFF7FEFF 		bl	HAL_GetTick
 455 01d6 401B     		subs	r0, r0, r5
 456 01d8 0228     		cmp	r0, #2
 457 01da 00F22582 		bhi	.L105
 458              	.L52:
 459 01de 394B     		ldr	r3, .L128
ARM GAS  C:\Users\xiaofei\AppData\Local\Temp\ccrFn3n8.s 			page 9


 460 01e0 1B68     		ldr	r3, [r3]
 461 01e2 13F0040F 		tst	r3, #4
 462 01e6 F4D1     		bne	.L53
 463              	.L41:
 464 01e8 2368     		ldr	r3, [r4]
 465 01ea 13F0100F 		tst	r3, #16
 466 01ee 00F08880 		beq	.L54
 467 01f2 344A     		ldr	r2, .L128
 468 01f4 1369     		ldr	r3, [r2, #16]
 469 01f6 03F03803 		and	r3, r3, #56
 470 01fa 926A     		ldr	r2, [r2, #40]
 471 01fc 082B     		cmp	r3, #8
 472 01fe 05D0     		beq	.L55
 473 0200 182B     		cmp	r3, #24
 474 0202 2ED1     		bne	.L56
 475 0204 02F00302 		and	r2, r2, #3
 476 0208 012A     		cmp	r2, #1
 477 020a 2AD1     		bne	.L56
 478              	.L55:
 479 020c 2D4B     		ldr	r3, .L128
 480 020e 1B68     		ldr	r3, [r3]
 481 0210 13F4807F 		tst	r3, #256
 482 0214 03D0     		beq	.L57
 483 0216 E369     		ldr	r3, [r4, #28]
 484 0218 802B     		cmp	r3, #128
 485 021a 40F00782 		bne	.L106
 486              	.L57:
 487 021e FFF7FEFF 		bl	HAL_GetREVID
 488 0222 41F20303 		movw	r3, #4099
 489 0226 9842     		cmp	r0, r3
 490 0228 12D8     		bhi	.L58
 491 022a 226A     		ldr	r2, [r4, #32]
 492 022c 202A     		cmp	r2, #32
 493 022e 07D1     		bne	.L59
 494 0230 244A     		ldr	r2, .L128
 495 0232 5368     		ldr	r3, [r2, #4]
 496 0234 23F0F843 		bic	r3, r3, #2080374784
 497 0238 43F08043 		orr	r3, r3, #1073741824
 498 023c 5360     		str	r3, [r2, #4]
 499 023e 60E0     		b	.L54
 500              	.L59:
 501 0240 2049     		ldr	r1, .L128
 502 0242 4B68     		ldr	r3, [r1, #4]
 503 0244 23F0F843 		bic	r3, r3, #2080374784
 504 0248 43EA8263 		orr	r3, r3, r2, lsl #26
 505 024c 4B60     		str	r3, [r1, #4]
 506 024e 58E0     		b	.L54
 507              	.L58:
 508 0250 1C4A     		ldr	r2, .L128
 509 0252 D368     		ldr	r3, [r2, #12]
 510 0254 23F07C53 		bic	r3, r3, #1056964608
 511 0258 216A     		ldr	r1, [r4, #32]
 512 025a 43EA0163 		orr	r3, r3, r1, lsl #24
 513 025e D360     		str	r3, [r2, #12]
 514 0260 4FE0     		b	.L54
 515              	.L56:
 516 0262 E369     		ldr	r3, [r4, #28]
ARM GAS  C:\Users\xiaofei\AppData\Local\Temp\ccrFn3n8.s 			page 10


 517 0264 002B     		cmp	r3, #0
 518 0266 38D0     		beq	.L60
 519 0268 164A     		ldr	r2, .L128
 520 026a 1368     		ldr	r3, [r2]
 521 026c 43F08003 		orr	r3, r3, #128
 522 0270 1360     		str	r3, [r2]
 523 0272 FFF7FEFF 		bl	HAL_GetTick
 524 0276 0546     		mov	r5, r0
 525 0278 05E0     		b	.L61
 526              	.L62:
 527 027a FFF7FEFF 		bl	HAL_GetTick
 528 027e 401B     		subs	r0, r0, r5
 529 0280 0228     		cmp	r0, #2
 530 0282 00F2D581 		bhi	.L107
 531              	.L61:
 532 0286 0F4B     		ldr	r3, .L128
 533 0288 1B68     		ldr	r3, [r3]
 534 028a 13F4807F 		tst	r3, #256
 535 028e F4D0     		beq	.L62
 536 0290 FFF7FEFF 		bl	HAL_GetREVID
 537 0294 41F20303 		movw	r3, #4099
 538 0298 9842     		cmp	r0, r3
 539 029a 15D8     		bhi	.L63
 540 029c 226A     		ldr	r2, [r4, #32]
 541 029e 202A     		cmp	r2, #32
 542 02a0 07D1     		bne	.L64
 543 02a2 084A     		ldr	r2, .L128
 544 02a4 5368     		ldr	r3, [r2, #4]
 545 02a6 23F0F843 		bic	r3, r3, #2080374784
 546 02aa 43F08043 		orr	r3, r3, #1073741824
 547 02ae 5360     		str	r3, [r2, #4]
 548 02b0 27E0     		b	.L54
 549              	.L64:
 550 02b2 0449     		ldr	r1, .L128
 551 02b4 4B68     		ldr	r3, [r1, #4]
 552 02b6 23F0F843 		bic	r3, r3, #2080374784
 553 02ba 43EA8263 		orr	r3, r3, r2, lsl #26
 554 02be 4B60     		str	r3, [r1, #4]
 555 02c0 1FE0     		b	.L54
 556              	.L129:
 557 02c2 00BF     		.align	2
 558              	.L128:
 559 02c4 00440258 		.word	1476543488
 560              	.L63:
 561 02c8 AE4A     		ldr	r2, .L130
 562 02ca D368     		ldr	r3, [r2, #12]
 563 02cc 23F07C53 		bic	r3, r3, #1056964608
 564 02d0 216A     		ldr	r1, [r4, #32]
 565 02d2 43EA0163 		orr	r3, r3, r1, lsl #24
 566 02d6 D360     		str	r3, [r2, #12]
 567 02d8 13E0     		b	.L54
 568              	.L60:
 569 02da AA4A     		ldr	r2, .L130
 570 02dc 1368     		ldr	r3, [r2]
 571 02de 23F08003 		bic	r3, r3, #128
 572 02e2 1360     		str	r3, [r2]
 573 02e4 FFF7FEFF 		bl	HAL_GetTick
ARM GAS  C:\Users\xiaofei\AppData\Local\Temp\ccrFn3n8.s 			page 11


 574 02e8 0546     		mov	r5, r0
 575 02ea 05E0     		b	.L65
 576              	.L66:
 577 02ec FFF7FEFF 		bl	HAL_GetTick
 578 02f0 401B     		subs	r0, r0, r5
 579 02f2 0228     		cmp	r0, #2
 580 02f4 00F29E81 		bhi	.L108
 581              	.L65:
 582 02f8 A24B     		ldr	r3, .L130
 583 02fa 1B68     		ldr	r3, [r3]
 584 02fc 13F4807F 		tst	r3, #256
 585 0300 F4D1     		bne	.L66
 586              	.L54:
 587 0302 2368     		ldr	r3, [r4]
 588 0304 13F0080F 		tst	r3, #8
 589 0308 2AD0     		beq	.L67
 590 030a 6369     		ldr	r3, [r4, #20]
 591 030c A3B1     		cbz	r3, .L68
 592 030e 9D4A     		ldr	r2, .L130
 593 0310 536F     		ldr	r3, [r2, #116]
 594 0312 43F00103 		orr	r3, r3, #1
 595 0316 5367     		str	r3, [r2, #116]
 596 0318 FFF7FEFF 		bl	HAL_GetTick
 597 031c 0546     		mov	r5, r0
 598 031e 05E0     		b	.L69
 599              	.L70:
 600 0320 FFF7FEFF 		bl	HAL_GetTick
 601 0324 401B     		subs	r0, r0, r5
 602 0326 0228     		cmp	r0, #2
 603 0328 00F28681 		bhi	.L109
 604              	.L69:
 605 032c 954B     		ldr	r3, .L130
 606 032e 5B6F     		ldr	r3, [r3, #116]
 607 0330 13F0020F 		tst	r3, #2
 608 0334 F4D0     		beq	.L70
 609 0336 13E0     		b	.L67
 610              	.L68:
 611 0338 924A     		ldr	r2, .L130
 612 033a 536F     		ldr	r3, [r2, #116]
 613 033c 23F00103 		bic	r3, r3, #1
 614 0340 5367     		str	r3, [r2, #116]
 615 0342 FFF7FEFF 		bl	HAL_GetTick
 616 0346 0546     		mov	r5, r0
 617 0348 05E0     		b	.L71
 618              	.L72:
 619 034a FFF7FEFF 		bl	HAL_GetTick
 620 034e 401B     		subs	r0, r0, r5
 621 0350 0228     		cmp	r0, #2
 622 0352 00F27381 		bhi	.L110
 623              	.L71:
 624 0356 8B4B     		ldr	r3, .L130
 625 0358 5B6F     		ldr	r3, [r3, #116]
 626 035a 13F0020F 		tst	r3, #2
 627 035e F4D1     		bne	.L72
 628              	.L67:
 629 0360 2368     		ldr	r3, [r4]
 630 0362 13F0200F 		tst	r3, #32
ARM GAS  C:\Users\xiaofei\AppData\Local\Temp\ccrFn3n8.s 			page 12


 631 0366 2AD0     		beq	.L73
 632 0368 A369     		ldr	r3, [r4, #24]
 633 036a A3B1     		cbz	r3, .L74
 634 036c 854A     		ldr	r2, .L130
 635 036e 1368     		ldr	r3, [r2]
 636 0370 43F48053 		orr	r3, r3, #4096
 637 0374 1360     		str	r3, [r2]
 638 0376 FFF7FEFF 		bl	HAL_GetTick
 639 037a 0546     		mov	r5, r0
 640 037c 05E0     		b	.L75
 641              	.L76:
 642 037e FFF7FEFF 		bl	HAL_GetTick
 643 0382 401B     		subs	r0, r0, r5
 644 0384 0228     		cmp	r0, #2
 645 0386 00F25B81 		bhi	.L111
 646              	.L75:
 647 038a 7E4B     		ldr	r3, .L130
 648 038c 1B68     		ldr	r3, [r3]
 649 038e 13F4005F 		tst	r3, #8192
 650 0392 F4D0     		beq	.L76
 651 0394 13E0     		b	.L73
 652              	.L74:
 653 0396 7B4A     		ldr	r2, .L130
 654 0398 1368     		ldr	r3, [r2]
 655 039a 23F48053 		bic	r3, r3, #4096
 656 039e 1360     		str	r3, [r2]
 657 03a0 FFF7FEFF 		bl	HAL_GetTick
 658 03a4 0546     		mov	r5, r0
 659 03a6 05E0     		b	.L77
 660              	.L78:
 661 03a8 FFF7FEFF 		bl	HAL_GetTick
 662 03ac 401B     		subs	r0, r0, r5
 663 03ae 0228     		cmp	r0, #2
 664 03b0 00F24881 		bhi	.L112
 665              	.L77:
 666 03b4 734B     		ldr	r3, .L130
 667 03b6 1B68     		ldr	r3, [r3]
 668 03b8 13F4005F 		tst	r3, #8192
 669 03bc F4D1     		bne	.L78
 670              	.L73:
 671 03be 2368     		ldr	r3, [r4]
 672 03c0 13F0040F 		tst	r3, #4
 673 03c4 61D0     		beq	.L79
 674 03c6 704A     		ldr	r2, .L130+4
 675 03c8 1368     		ldr	r3, [r2]
 676 03ca 43F48073 		orr	r3, r3, #256
 677 03ce 1360     		str	r3, [r2]
 678 03d0 FFF7FEFF 		bl	HAL_GetTick
 679 03d4 0546     		mov	r5, r0
 680 03d6 05E0     		b	.L80
 681              	.L81:
 682 03d8 FFF7FEFF 		bl	HAL_GetTick
 683 03dc 401B     		subs	r0, r0, r5
 684 03de 6428     		cmp	r0, #100
 685 03e0 00F23281 		bhi	.L113
 686              	.L80:
 687 03e4 684B     		ldr	r3, .L130+4
ARM GAS  C:\Users\xiaofei\AppData\Local\Temp\ccrFn3n8.s 			page 13


 688 03e6 1B68     		ldr	r3, [r3]
 689 03e8 13F4807F 		tst	r3, #256
 690 03ec F4D0     		beq	.L81
 691 03ee A368     		ldr	r3, [r4, #8]
 692 03f0 012B     		cmp	r3, #1
 693 03f2 05D1     		bne	.L82
 694 03f4 634A     		ldr	r2, .L130
 695 03f6 136F     		ldr	r3, [r2, #112]
 696 03f8 43F00103 		orr	r3, r3, #1
 697 03fc 1367     		str	r3, [r2, #112]
 698 03fe 1FE0     		b	.L83
 699              	.L82:
 700 0400 4BB9     		cbnz	r3, .L84
 701 0402 604B     		ldr	r3, .L130
 702 0404 1A6F     		ldr	r2, [r3, #112]
 703 0406 22F00102 		bic	r2, r2, #1
 704 040a 1A67     		str	r2, [r3, #112]
 705 040c 1A6F     		ldr	r2, [r3, #112]
 706 040e 22F00402 		bic	r2, r2, #4
 707 0412 1A67     		str	r2, [r3, #112]
 708 0414 14E0     		b	.L83
 709              	.L84:
 710 0416 052B     		cmp	r3, #5
 711 0418 09D1     		bne	.L85
 712 041a 5A4B     		ldr	r3, .L130
 713 041c 1A6F     		ldr	r2, [r3, #112]
 714 041e 42F00402 		orr	r2, r2, #4
 715 0422 1A67     		str	r2, [r3, #112]
 716 0424 1A6F     		ldr	r2, [r3, #112]
 717 0426 42F00102 		orr	r2, r2, #1
 718 042a 1A67     		str	r2, [r3, #112]
 719 042c 08E0     		b	.L83
 720              	.L85:
 721 042e 554B     		ldr	r3, .L130
 722 0430 1A6F     		ldr	r2, [r3, #112]
 723 0432 22F00102 		bic	r2, r2, #1
 724 0436 1A67     		str	r2, [r3, #112]
 725 0438 1A6F     		ldr	r2, [r3, #112]
 726 043a 22F00402 		bic	r2, r2, #4
 727 043e 1A67     		str	r2, [r3, #112]
 728              	.L83:
 729 0440 A368     		ldr	r3, [r4, #8]
 730 0442 8BB1     		cbz	r3, .L86
 731 0444 FFF7FEFF 		bl	HAL_GetTick
 732 0448 0546     		mov	r5, r0
 733 044a 07E0     		b	.L87
 734              	.L88:
 735 044c FFF7FEFF 		bl	HAL_GetTick
 736 0450 401B     		subs	r0, r0, r5
 737 0452 41F28833 		movw	r3, #5000
 738 0456 9842     		cmp	r0, r3
 739 0458 00F2F880 		bhi	.L114
 740              	.L87:
 741 045c 494B     		ldr	r3, .L130
 742 045e 1B6F     		ldr	r3, [r3, #112]
 743 0460 13F0020F 		tst	r3, #2
 744 0464 F2D0     		beq	.L88
ARM GAS  C:\Users\xiaofei\AppData\Local\Temp\ccrFn3n8.s 			page 14


 745 0466 10E0     		b	.L79
 746              	.L86:
 747 0468 FFF7FEFF 		bl	HAL_GetTick
 748 046c 0546     		mov	r5, r0
 749 046e 07E0     		b	.L89
 750              	.L90:
 751 0470 FFF7FEFF 		bl	HAL_GetTick
 752 0474 401B     		subs	r0, r0, r5
 753 0476 41F28833 		movw	r3, #5000
 754 047a 9842     		cmp	r0, r3
 755 047c 00F2E880 		bhi	.L115
 756              	.L89:
 757 0480 404B     		ldr	r3, .L130
 758 0482 1B6F     		ldr	r3, [r3, #112]
 759 0484 13F0020F 		tst	r3, #2
 760 0488 F2D1     		bne	.L90
 761              	.L79:
 762 048a 636A     		ldr	r3, [r4, #36]
 763 048c 002B     		cmp	r3, #0
 764 048e 00F0E180 		beq	.L116
 765 0492 3C4A     		ldr	r2, .L130
 766 0494 1269     		ldr	r2, [r2, #16]
 767 0496 02F03802 		and	r2, r2, #56
 768 049a 182A     		cmp	r2, #24
 769 049c 00F08F80 		beq	.L91
 770 04a0 022B     		cmp	r3, #2
 771 04a2 77D1     		bne	.L92
 772 04a4 374A     		ldr	r2, .L130
 773 04a6 1368     		ldr	r3, [r2]
 774 04a8 23F08073 		bic	r3, r3, #16777216
 775 04ac 1360     		str	r3, [r2]
 776 04ae FFF7FEFF 		bl	HAL_GetTick
 777 04b2 0546     		mov	r5, r0
 778 04b4 05E0     		b	.L93
 779              	.L94:
 780 04b6 FFF7FEFF 		bl	HAL_GetTick
 781 04ba 401B     		subs	r0, r0, r5
 782 04bc 0228     		cmp	r0, #2
 783 04be 00F2CB80 		bhi	.L117
 784              	.L93:
 785 04c2 304B     		ldr	r3, .L130
 786 04c4 1B68     		ldr	r3, [r3]
 787 04c6 13F0007F 		tst	r3, #33554432
 788 04ca F4D1     		bne	.L94
 789 04cc 2D4B     		ldr	r3, .L130
 790 04ce 9A6A     		ldr	r2, [r3, #40]
 791 04d0 2E49     		ldr	r1, .L130+8
 792 04d2 1140     		ands	r1, r1, r2
 793 04d4 A26A     		ldr	r2, [r4, #40]
 794 04d6 E06A     		ldr	r0, [r4, #44]
 795 04d8 42EA0012 		orr	r2, r2, r0, lsl #4
 796 04dc 0A43     		orrs	r2, r2, r1
 797 04de 9A62     		str	r2, [r3, #40]
 798 04e0 226B     		ldr	r2, [r4, #48]
 799 04e2 511E     		subs	r1, r2, #1
 800 04e4 C1F30801 		ubfx	r1, r1, #0, #9
 801 04e8 626B     		ldr	r2, [r4, #52]
ARM GAS  C:\Users\xiaofei\AppData\Local\Temp\ccrFn3n8.s 			page 15


 802 04ea 013A     		subs	r2, r2, #1
 803 04ec 5202     		lsls	r2, r2, #9
 804 04ee 92B2     		uxth	r2, r2
 805 04f0 1143     		orrs	r1, r1, r2
 806 04f2 A26B     		ldr	r2, [r4, #56]
 807 04f4 013A     		subs	r2, r2, #1
 808 04f6 1204     		lsls	r2, r2, #16
 809 04f8 02F4FE02 		and	r2, r2, #8323072
 810 04fc 1143     		orrs	r1, r1, r2
 811 04fe E26B     		ldr	r2, [r4, #60]
 812 0500 013A     		subs	r2, r2, #1
 813 0502 1206     		lsls	r2, r2, #24
 814 0504 02F0FE42 		and	r2, r2, #2130706432
 815 0508 0A43     		orrs	r2, r2, r1
 816 050a 1A63     		str	r2, [r3, #48]
 817 050c DA6A     		ldr	r2, [r3, #44]
 818 050e 22F00102 		bic	r2, r2, #1
 819 0512 DA62     		str	r2, [r3, #44]
 820 0514 596B     		ldr	r1, [r3, #52]
 821 0516 1E4A     		ldr	r2, .L130+12
 822 0518 0A40     		ands	r2, r2, r1
 823 051a A16C     		ldr	r1, [r4, #72]
 824 051c 42EAC102 		orr	r2, r2, r1, lsl #3
 825 0520 5A63     		str	r2, [r3, #52]
 826 0522 DA6A     		ldr	r2, [r3, #44]
 827 0524 22F00C01 		bic	r1, r2, #12
 828 0528 226C     		ldr	r2, [r4, #64]
 829 052a 0A43     		orrs	r2, r2, r1
 830 052c DA62     		str	r2, [r3, #44]
 831 052e DA6A     		ldr	r2, [r3, #44]
 832 0530 22F00201 		bic	r1, r2, #2
 833 0534 626C     		ldr	r2, [r4, #68]
 834 0536 0A43     		orrs	r2, r2, r1
 835 0538 DA62     		str	r2, [r3, #44]
 836 053a DA6A     		ldr	r2, [r3, #44]
 837 053c 42F48032 		orr	r2, r2, #65536
 838 0540 DA62     		str	r2, [r3, #44]
 839 0542 DA6A     		ldr	r2, [r3, #44]
 840 0544 42F40032 		orr	r2, r2, #131072
 841 0548 DA62     		str	r2, [r3, #44]
 842 054a DA6A     		ldr	r2, [r3, #44]
 843 054c 42F48022 		orr	r2, r2, #262144
 844 0550 DA62     		str	r2, [r3, #44]
 845 0552 DA6A     		ldr	r2, [r3, #44]
 846 0554 42F00102 		orr	r2, r2, #1
 847 0558 DA62     		str	r2, [r3, #44]
 848 055a 1A68     		ldr	r2, [r3]
 849 055c 42F08072 		orr	r2, r2, #16777216
 850 0560 1A60     		str	r2, [r3]
 851 0562 FFF7FEFF 		bl	HAL_GetTick
 852 0566 0446     		mov	r4, r0
 853 0568 04E0     		b	.L95
 854              	.L96:
 855 056a FFF7FEFF 		bl	HAL_GetTick
 856 056e 001B     		subs	r0, r0, r4
 857 0570 0228     		cmp	r0, #2
 858 0572 73D8     		bhi	.L118
ARM GAS  C:\Users\xiaofei\AppData\Local\Temp\ccrFn3n8.s 			page 16


 859              	.L95:
 860 0574 034B     		ldr	r3, .L130
 861 0576 1B68     		ldr	r3, [r3]
 862 0578 13F0007F 		tst	r3, #33554432
 863 057c F5D0     		beq	.L96
 864 057e 0020     		movs	r0, #0
 865 0580 38BD     		pop	{r3, r4, r5, pc}
 866              	.L131:
 867 0582 00BF     		.align	2
 868              	.L130:
 869 0584 00440258 		.word	1476543488
 870 0588 00480258 		.word	1476544512
 871 058c 0CFCFFFF 		.word	-1012
 872 0590 0700FFFF 		.word	-65529
 873              	.L92:
 874 0594 3A4A     		ldr	r2, .L132
 875 0596 1368     		ldr	r3, [r2]
 876 0598 23F08073 		bic	r3, r3, #16777216
 877 059c 1360     		str	r3, [r2]
 878 059e FFF7FEFF 		bl	HAL_GetTick
 879 05a2 0446     		mov	r4, r0
 880 05a4 04E0     		b	.L97
 881              	.L98:
 882 05a6 FFF7FEFF 		bl	HAL_GetTick
 883 05aa 001B     		subs	r0, r0, r4
 884 05ac 0228     		cmp	r0, #2
 885 05ae 57D8     		bhi	.L119
 886              	.L97:
 887 05b0 334B     		ldr	r3, .L132
 888 05b2 1B68     		ldr	r3, [r3]
 889 05b4 13F0007F 		tst	r3, #33554432
 890 05b8 F5D1     		bne	.L98
 891 05ba 0020     		movs	r0, #0
 892 05bc 38BD     		pop	{r3, r4, r5, pc}
 893              	.L91:
 894 05be 304A     		ldr	r2, .L132
 895 05c0 916A     		ldr	r1, [r2, #40]
 896 05c2 106B     		ldr	r0, [r2, #48]
 897 05c4 012B     		cmp	r3, #1
 898 05c6 4DD0     		beq	.L120
 899 05c8 01F00303 		and	r3, r1, #3
 900 05cc A26A     		ldr	r2, [r4, #40]
 901 05ce 9342     		cmp	r3, r2
 902 05d0 4AD1     		bne	.L121
 903 05d2 C1F30511 		ubfx	r1, r1, #4, #6
 904 05d6 E36A     		ldr	r3, [r4, #44]
 905 05d8 9942     		cmp	r1, r3
 906 05da 47D1     		bne	.L122
 907 05dc C0F30802 		ubfx	r2, r0, #0, #9
 908 05e0 236B     		ldr	r3, [r4, #48]
 909 05e2 013B     		subs	r3, r3, #1
 910 05e4 9A42     		cmp	r2, r3
 911 05e6 43D1     		bne	.L123
 912 05e8 C0F34622 		ubfx	r2, r0, #9, #7
 913 05ec 636B     		ldr	r3, [r4, #52]
 914 05ee 013B     		subs	r3, r3, #1
 915 05f0 9A42     		cmp	r2, r3
ARM GAS  C:\Users\xiaofei\AppData\Local\Temp\ccrFn3n8.s 			page 17


 916 05f2 3FD1     		bne	.L124
 917 05f4 C0F30642 		ubfx	r2, r0, #16, #7
 918 05f8 A36B     		ldr	r3, [r4, #56]
 919 05fa 013B     		subs	r3, r3, #1
 920 05fc 9A42     		cmp	r2, r3
 921 05fe 3BD1     		bne	.L125
 922 0600 C0F30660 		ubfx	r0, r0, #24, #7
 923 0604 E36B     		ldr	r3, [r4, #60]
 924 0606 013B     		subs	r3, r3, #1
 925 0608 9842     		cmp	r0, r3
 926 060a 37D0     		beq	.L126
 927 060c 0120     		movs	r0, #1
 928 060e 38BD     		pop	{r3, r4, r5, pc}
 929              	.L99:
 930 0610 0120     		movs	r0, #1
 931 0612 7047     		bx	lr
 932              	.L100:
 933 0614 0120     		movs	r0, #1
 934 0616 38BD     		pop	{r3, r4, r5, pc}
 935              	.L101:
 936 0618 0320     		movs	r0, #3
 937 061a 38BD     		pop	{r3, r4, r5, pc}
 938              	.L102:
 939 061c 0320     		movs	r0, #3
 940 061e 38BD     		pop	{r3, r4, r5, pc}
 941              	.L103:
 942 0620 0120     		movs	r0, #1
 943 0622 38BD     		pop	{r3, r4, r5, pc}
 944              	.L104:
 945 0624 0320     		movs	r0, #3
 946 0626 38BD     		pop	{r3, r4, r5, pc}
 947              	.L105:
 948 0628 0320     		movs	r0, #3
 949 062a 38BD     		pop	{r3, r4, r5, pc}
 950              	.L106:
 951 062c 0120     		movs	r0, #1
 952 062e 38BD     		pop	{r3, r4, r5, pc}
 953              	.L107:
 954 0630 0320     		movs	r0, #3
 955 0632 38BD     		pop	{r3, r4, r5, pc}
 956              	.L108:
 957 0634 0320     		movs	r0, #3
 958 0636 38BD     		pop	{r3, r4, r5, pc}
 959              	.L109:
 960 0638 0320     		movs	r0, #3
 961 063a 38BD     		pop	{r3, r4, r5, pc}
 962              	.L110:
 963 063c 0320     		movs	r0, #3
 964 063e 38BD     		pop	{r3, r4, r5, pc}
 965              	.L111:
 966 0640 0320     		movs	r0, #3
 967 0642 38BD     		pop	{r3, r4, r5, pc}
 968              	.L112:
 969 0644 0320     		movs	r0, #3
 970 0646 38BD     		pop	{r3, r4, r5, pc}
 971              	.L113:
 972 0648 0320     		movs	r0, #3
ARM GAS  C:\Users\xiaofei\AppData\Local\Temp\ccrFn3n8.s 			page 18


 973 064a 38BD     		pop	{r3, r4, r5, pc}
 974              	.L114:
 975 064c 0320     		movs	r0, #3
 976 064e 38BD     		pop	{r3, r4, r5, pc}
 977              	.L115:
 978 0650 0320     		movs	r0, #3
 979 0652 38BD     		pop	{r3, r4, r5, pc}
 980              	.L116:
 981 0654 0020     		movs	r0, #0
 982 0656 38BD     		pop	{r3, r4, r5, pc}
 983              	.L117:
 984 0658 0320     		movs	r0, #3
 985 065a 38BD     		pop	{r3, r4, r5, pc}
 986              	.L118:
 987 065c 0320     		movs	r0, #3
 988 065e 38BD     		pop	{r3, r4, r5, pc}
 989              	.L119:
 990 0660 0320     		movs	r0, #3
 991 0662 38BD     		pop	{r3, r4, r5, pc}
 992              	.L120:
 993 0664 0120     		movs	r0, #1
 994 0666 38BD     		pop	{r3, r4, r5, pc}
 995              	.L121:
 996 0668 0120     		movs	r0, #1
 997 066a 38BD     		pop	{r3, r4, r5, pc}
 998              	.L122:
 999 066c 0120     		movs	r0, #1
 1000 066e 38BD     		pop	{r3, r4, r5, pc}
 1001              	.L123:
 1002 0670 0120     		movs	r0, #1
 1003 0672 38BD     		pop	{r3, r4, r5, pc}
 1004              	.L124:
 1005 0674 0120     		movs	r0, #1
 1006 0676 38BD     		pop	{r3, r4, r5, pc}
 1007              	.L125:
 1008 0678 0120     		movs	r0, #1
 1009 067a 38BD     		pop	{r3, r4, r5, pc}
 1010              	.L126:
 1011 067c 0020     		movs	r0, #0
 1012 067e 38BD     		pop	{r3, r4, r5, pc}
 1013              	.L133:
 1014              		.align	2
 1015              	.L132:
 1016 0680 00440258 		.word	1476543488
 1018              		.section	.text.HAL_RCC_MCOConfig,"ax",%progbits
 1019              		.align	2
 1020              		.global	HAL_RCC_MCOConfig
 1021              		.thumb
 1022              		.thumb_func
 1024              	HAL_RCC_MCOConfig:
 1025              		@ args = 0, pretend = 0, frame = 32
 1026              		@ frame_needed = 0, uses_anonymous_args = 0
 1027 0000 70B5     		push	{r4, r5, r6, lr}
 1028 0002 88B0     		sub	sp, sp, #32
 1029 0004 0C46     		mov	r4, r1
 1030 0006 1646     		mov	r6, r2
 1031 0008 08BB     		cbnz	r0, .L135
ARM GAS  C:\Users\xiaofei\AppData\Local\Temp\ccrFn3n8.s 			page 19


 1032 000a 234D     		ldr	r5, .L138
 1033 000c D5F8E030 		ldr	r3, [r5, #224]
 1034 0010 43F00103 		orr	r3, r3, #1
 1035 0014 C5F8E030 		str	r3, [r5, #224]
 1036 0018 D5F8E030 		ldr	r3, [r5, #224]
 1037 001c 03F00103 		and	r3, r3, #1
 1038 0020 0193     		str	r3, [sp, #4]
 1039 0022 019B     		ldr	r3, [sp, #4]
 1040 0024 4FF48073 		mov	r3, #256
 1041 0028 0393     		str	r3, [sp, #12]
 1042 002a 0223     		movs	r3, #2
 1043 002c 0493     		str	r3, [sp, #16]
 1044 002e 0323     		movs	r3, #3
 1045 0030 0693     		str	r3, [sp, #24]
 1046 0032 0023     		movs	r3, #0
 1047 0034 0593     		str	r3, [sp, #20]
 1048 0036 0793     		str	r3, [sp, #28]
 1049 0038 03A9     		add	r1, sp, #12
 1050 003a 1848     		ldr	r0, .L138+4
 1051 003c FFF7FEFF 		bl	HAL_GPIO_Init
 1052 0040 2B69     		ldr	r3, [r5, #16]
 1053 0042 23F0FE73 		bic	r3, r3, #33292288
 1054 0046 3443     		orrs	r4, r4, r6
 1055 0048 1C43     		orrs	r4, r4, r3
 1056 004a 2C61     		str	r4, [r5, #16]
 1057 004c 21E0     		b	.L134
 1058              	.L135:
 1059 004e 124D     		ldr	r5, .L138
 1060 0050 D5F8E030 		ldr	r3, [r5, #224]
 1061 0054 43F00403 		orr	r3, r3, #4
 1062 0058 C5F8E030 		str	r3, [r5, #224]
 1063 005c D5F8E030 		ldr	r3, [r5, #224]
 1064 0060 03F00403 		and	r3, r3, #4
 1065 0064 0293     		str	r3, [sp, #8]
 1066 0066 029B     		ldr	r3, [sp, #8]
 1067 0068 4FF40073 		mov	r3, #512
 1068 006c 0393     		str	r3, [sp, #12]
 1069 006e 0223     		movs	r3, #2
 1070 0070 0493     		str	r3, [sp, #16]
 1071 0072 0323     		movs	r3, #3
 1072 0074 0693     		str	r3, [sp, #24]
 1073 0076 0023     		movs	r3, #0
 1074 0078 0593     		str	r3, [sp, #20]
 1075 007a 0793     		str	r3, [sp, #28]
 1076 007c 03A9     		add	r1, sp, #12
 1077 007e 0848     		ldr	r0, .L138+8
 1078 0080 FFF7FEFF 		bl	HAL_GPIO_Init
 1079 0084 2B69     		ldr	r3, [r5, #16]
 1080 0086 23F07E43 		bic	r3, r3, #-33554432
 1081 008a 44EAC614 		orr	r4, r4, r6, lsl #7
 1082 008e 1C43     		orrs	r4, r4, r3
 1083 0090 2C61     		str	r4, [r5, #16]
 1084              	.L134:
 1085 0092 08B0     		add	sp, sp, #32
 1086              		@ sp needed
 1087 0094 70BD     		pop	{r4, r5, r6, pc}
 1088              	.L139:
ARM GAS  C:\Users\xiaofei\AppData\Local\Temp\ccrFn3n8.s 			page 20


 1089 0096 00BF     		.align	2
 1090              	.L138:
 1091 0098 00440258 		.word	1476543488
 1092 009c 00000258 		.word	1476526080
 1093 00a0 00080258 		.word	1476528128
 1095              		.section	.text.HAL_RCC_EnableCSS,"ax",%progbits
 1096              		.align	2
 1097              		.global	HAL_RCC_EnableCSS
 1098              		.thumb
 1099              		.thumb_func
 1101              	HAL_RCC_EnableCSS:
 1102              		@ args = 0, pretend = 0, frame = 0
 1103              		@ frame_needed = 0, uses_anonymous_args = 0
 1104              		@ link register save eliminated.
 1105 0000 024A     		ldr	r2, .L141
 1106 0002 1368     		ldr	r3, [r2]
 1107 0004 43F40023 		orr	r3, r3, #524288
 1108 0008 1360     		str	r3, [r2]
 1109 000a 7047     		bx	lr
 1110              	.L142:
 1111              		.align	2
 1112              	.L141:
 1113 000c 00440258 		.word	1476543488
 1115              		.section	.text.HAL_RCC_DisableCSS,"ax",%progbits
 1116              		.align	2
 1117              		.global	HAL_RCC_DisableCSS
 1118              		.thumb
 1119              		.thumb_func
 1121              	HAL_RCC_DisableCSS:
 1122              		@ args = 0, pretend = 0, frame = 0
 1123              		@ frame_needed = 0, uses_anonymous_args = 0
 1124              		@ link register save eliminated.
 1125 0000 024A     		ldr	r2, .L144
 1126 0002 1368     		ldr	r3, [r2]
 1127 0004 23F40023 		bic	r3, r3, #524288
 1128 0008 1360     		str	r3, [r2]
 1129 000a 7047     		bx	lr
 1130              	.L145:
 1131              		.align	2
 1132              	.L144:
 1133 000c 00440258 		.word	1476543488
 1135              		.section	.text.HAL_RCC_GetSysClockFreq,"ax",%progbits
 1136              		.align	2
 1137              		.global	HAL_RCC_GetSysClockFreq
 1138              		.thumb
 1139              		.thumb_func
 1141              	HAL_RCC_GetSysClockFreq:
 1142              		@ args = 0, pretend = 0, frame = 0
 1143              		@ frame_needed = 0, uses_anonymous_args = 0
 1144              		@ link register save eliminated.
 1145 0000 754B     		ldr	r3, .L163
 1146 0002 1B69     		ldr	r3, [r3, #16]
 1147 0004 03F03803 		and	r3, r3, #56
 1148 0008 102B     		cmp	r3, #16
 1149 000a 00F0DC80 		beq	.L157
 1150 000e 182B     		cmp	r3, #24
 1151 0010 10D0     		beq	.L149
ARM GAS  C:\Users\xiaofei\AppData\Local\Temp\ccrFn3n8.s 			page 21


 1152 0012 0BB1     		cbz	r3, .L150
 1153 0014 7148     		ldr	r0, .L163+4
 1154 0016 7047     		bx	lr
 1155              	.L150:
 1156 0018 6F4B     		ldr	r3, .L163
 1157 001a 1B68     		ldr	r3, [r3]
 1158 001c 13F0200F 		tst	r3, #32
 1159 0020 00F0D380 		beq	.L158
 1160 0024 6C4B     		ldr	r3, .L163
 1161 0026 1868     		ldr	r0, [r3]
 1162 0028 C0F3C100 		ubfx	r0, r0, #3, #2
 1163 002c 6C4B     		ldr	r3, .L163+8
 1164 002e 23FA00F0 		lsr	r0, r3, r0
 1165 0032 7047     		bx	lr
 1166              	.L149:
 1167 0034 10B4     		push	{r4}
 1168 0036 6849     		ldr	r1, .L163
 1169 0038 886A     		ldr	r0, [r1, #40]
 1170 003a 00F00300 		and	r0, r0, #3
 1171 003e 8A6A     		ldr	r2, [r1, #40]
 1172 0040 C2F30512 		ubfx	r2, r2, #4, #6
 1173 0044 CB6A     		ldr	r3, [r1, #44]
 1174 0046 03F00104 		and	r4, r3, #1
 1175 004a 4B6B     		ldr	r3, [r1, #52]
 1176 004c C3F3CC03 		ubfx	r3, r3, #3, #13
 1177 0050 03FB04F3 		mul	r3, r3, r4
 1178 0054 07EE903A 		vmov	s15, r3	@ int
 1179 0058 F8EE677A 		vcvt.f32.u32	s15, s15
 1180 005c 002A     		cmp	r2, #0
 1181 005e 00F0B680 		beq	.L159
 1182 0062 0128     		cmp	r0, #1
 1183 0064 49D0     		beq	.L152
 1184 0066 10B1     		cbz	r0, .L153
 1185 0068 0228     		cmp	r0, #2
 1186 006a 63D0     		beq	.L154
 1187 006c 7FE0     		b	.L160
 1188              	.L153:
 1189 006e 5A4B     		ldr	r3, .L163
 1190 0070 1B68     		ldr	r3, [r3]
 1191 0072 13F0200F 		tst	r3, #32
 1192 0076 23D0     		beq	.L155
 1193 0078 5748     		ldr	r0, .L163
 1194 007a 0368     		ldr	r3, [r0]
 1195 007c C3F3C101 		ubfx	r1, r3, #3, #2
 1196 0080 574B     		ldr	r3, .L163+8
 1197 0082 CB40     		lsrs	r3, r3, r1
 1198 0084 07EE103A 		vmov	s14, r3	@ int
 1199 0088 F8EE476A 		vcvt.f32.u32	s13, s14
 1200 008c 07EE102A 		vmov	s14, r2	@ int
 1201 0090 B8EE476A 		vcvt.f32.u32	s12, s14
 1202 0094 86EE867A 		vdiv.f32	s14, s13, s12
 1203 0098 036B     		ldr	r3, [r0, #48]
 1204 009a C3F30803 		ubfx	r3, r3, #0, #9
 1205 009e 06EE903A 		vmov	s13, r3	@ int
 1206 00a2 F8EE666A 		vcvt.f32.u32	s13, s13
 1207 00a6 9FED4F6A 		vldr.32	s12, .L163+12
 1208 00aa 67EE867A 		vmul.f32	s15, s15, s12
ARM GAS  C:\Users\xiaofei\AppData\Local\Temp\ccrFn3n8.s 			page 22


 1209 00ae 76EEA77A 		vadd.f32	s15, s13, s15
 1210 00b2 F7EE006A 		vmov.f32	s13, #1.0e+0
 1211 00b6 77EEA66A 		vadd.f32	s13, s15, s13
 1212 00ba 67EE266A 		vmul.f32	s13, s14, s13
 1213 00be 72E0     		b	.L156
 1214              	.L155:
 1215 00c0 07EE102A 		vmov	s14, r2	@ int
 1216 00c4 F8EE476A 		vcvt.f32.u32	s13, s14
 1217 00c8 9FED476A 		vldr.32	s12, .L163+16
 1218 00cc 86EE267A 		vdiv.f32	s14, s12, s13
 1219 00d0 414B     		ldr	r3, .L163
 1220 00d2 1B6B     		ldr	r3, [r3, #48]
 1221 00d4 C3F30803 		ubfx	r3, r3, #0, #9
 1222 00d8 06EE903A 		vmov	s13, r3	@ int
 1223 00dc F8EE666A 		vcvt.f32.u32	s13, s13
 1224 00e0 9FED406A 		vldr.32	s12, .L163+12
 1225 00e4 67EE867A 		vmul.f32	s15, s15, s12
 1226 00e8 76EEA77A 		vadd.f32	s15, s13, s15
 1227 00ec F7EE006A 		vmov.f32	s13, #1.0e+0
 1228 00f0 77EEA66A 		vadd.f32	s13, s15, s13
 1229 00f4 67EE266A 		vmul.f32	s13, s14, s13
 1230 00f8 55E0     		b	.L156
 1231              	.L152:
 1232 00fa 07EE102A 		vmov	s14, r2	@ int
 1233 00fe F8EE476A 		vcvt.f32.u32	s13, s14
 1234 0102 9FED3A6A 		vldr.32	s12, .L163+20
 1235 0106 86EE267A 		vdiv.f32	s14, s12, s13
 1236 010a 334B     		ldr	r3, .L163
 1237 010c 1B6B     		ldr	r3, [r3, #48]
 1238 010e C3F30803 		ubfx	r3, r3, #0, #9
 1239 0112 06EE903A 		vmov	s13, r3	@ int
 1240 0116 F8EE666A 		vcvt.f32.u32	s13, s13
 1241 011a 9FED326A 		vldr.32	s12, .L163+12
 1242 011e 67EE867A 		vmul.f32	s15, s15, s12
 1243 0122 76EEA77A 		vadd.f32	s15, s13, s15
 1244 0126 F7EE006A 		vmov.f32	s13, #1.0e+0
 1245 012a 77EEA66A 		vadd.f32	s13, s15, s13
 1246 012e 67EE266A 		vmul.f32	s13, s14, s13
 1247 0132 38E0     		b	.L156
 1248              	.L154:
 1249 0134 07EE102A 		vmov	s14, r2	@ int
 1250 0138 F8EE476A 		vcvt.f32.u32	s13, s14
 1251 013c 9FED2C6A 		vldr.32	s12, .L163+24
 1252 0140 86EE267A 		vdiv.f32	s14, s12, s13
 1253 0144 244B     		ldr	r3, .L163
 1254 0146 1B6B     		ldr	r3, [r3, #48]
 1255 0148 C3F30803 		ubfx	r3, r3, #0, #9
 1256 014c 06EE903A 		vmov	s13, r3	@ int
 1257 0150 F8EE666A 		vcvt.f32.u32	s13, s13
 1258 0154 9FED236A 		vldr.32	s12, .L163+12
 1259 0158 67EE867A 		vmul.f32	s15, s15, s12
 1260 015c 76EEA77A 		vadd.f32	s15, s13, s15
 1261 0160 F7EE006A 		vmov.f32	s13, #1.0e+0
 1262 0164 77EEA66A 		vadd.f32	s13, s15, s13
 1263 0168 67EE266A 		vmul.f32	s13, s14, s13
 1264 016c 1BE0     		b	.L156
 1265              	.L160:
ARM GAS  C:\Users\xiaofei\AppData\Local\Temp\ccrFn3n8.s 			page 23


 1266 016e 07EE102A 		vmov	s14, r2	@ int
 1267 0172 B8EE477A 		vcvt.f32.u32	s14, s14
 1268 0176 DFED1D6A 		vldr.32	s13, .L163+20
 1269 017a 86EE876A 		vdiv.f32	s12, s13, s14
 1270 017e 164B     		ldr	r3, .L163
 1271 0180 1B6B     		ldr	r3, [r3, #48]
 1272 0182 C3F30803 		ubfx	r3, r3, #0, #9
 1273 0186 06EE903A 		vmov	s13, r3	@ int
 1274 018a F8EE666A 		vcvt.f32.u32	s13, s13
 1275 018e 9FED157A 		vldr.32	s14, .L163+12
 1276 0192 67EE877A 		vmul.f32	s15, s15, s14
 1277 0196 76EEA77A 		vadd.f32	s15, s13, s15
 1278 019a F7EE006A 		vmov.f32	s13, #1.0e+0
 1279 019e 77EEA66A 		vadd.f32	s13, s15, s13
 1280 01a2 66EE266A 		vmul.f32	s13, s12, s13
 1281              	.L156:
 1282 01a6 0C4B     		ldr	r3, .L163
 1283 01a8 1B6B     		ldr	r3, [r3, #48]
 1284 01aa C3F34623 		ubfx	r3, r3, #9, #7
 1285 01ae 0133     		adds	r3, r3, #1
 1286 01b0 07EE903A 		vmov	s15, r3	@ int
 1287 01b4 B8EE677A 		vcvt.f32.u32	s14, s15
 1288 01b8 C6EE877A 		vdiv.f32	s15, s13, s14
 1289 01bc FCEEE77A 		vcvt.u32.f32	s15, s15
 1290 01c0 17EE900A 		vmov	r0, s15	@ int
 1291 01c4 04E0     		b	.L148
 1292              	.L157:
 1293 01c6 0B48     		ldr	r0, .L163+28
 1294 01c8 7047     		bx	lr
 1295              	.L158:
 1296 01ca 0548     		ldr	r0, .L163+8
 1297 01cc 7047     		bx	lr
 1298              	.L159:
 1299 01ce 0020     		movs	r0, #0
 1300              	.L148:
 1301 01d0 5DF8044B 		ldr	r4, [sp], #4
 1302 01d4 7047     		bx	lr
 1303              	.L164:
 1304 01d6 00BF     		.align	2
 1305              	.L163:
 1306 01d8 00440258 		.word	1476543488
 1307 01dc 00093D00 		.word	4000000
 1308 01e0 0090D003 		.word	64000000
 1309 01e4 00000039 		.word	956301312
 1310 01e8 0024744C 		.word	1282679808
 1311 01ec 0024744A 		.word	1249125376
 1312 01f0 20BCBE4B 		.word	1270791200
 1313 01f4 40787D01 		.word	25000000
 1315              		.section	.text.HAL_RCC_ClockConfig,"ax",%progbits
 1316              		.align	2
 1317              		.global	HAL_RCC_ClockConfig
 1318              		.thumb
 1319              		.thumb_func
 1321              	HAL_RCC_ClockConfig:
 1322              		@ args = 0, pretend = 0, frame = 0
 1323              		@ frame_needed = 0, uses_anonymous_args = 0
 1324 0000 0028     		cmp	r0, #0
ARM GAS  C:\Users\xiaofei\AppData\Local\Temp\ccrFn3n8.s 			page 24


 1325 0002 00F02F81 		beq	.L186
 1326 0006 70B5     		push	{r4, r5, r6, lr}
 1327 0008 0446     		mov	r4, r0
 1328 000a 9E4B     		ldr	r3, .L195
 1329 000c 1B68     		ldr	r3, [r3]
 1330 000e 03F00F03 		and	r3, r3, #15
 1331 0012 8B42     		cmp	r3, r1
 1332 0014 0BD2     		bcs	.L167
 1333 0016 9B4A     		ldr	r2, .L195
 1334 0018 1368     		ldr	r3, [r2]
 1335 001a 23F00F03 		bic	r3, r3, #15
 1336 001e 0B43     		orrs	r3, r3, r1
 1337 0020 1360     		str	r3, [r2]
 1338 0022 1368     		ldr	r3, [r2]
 1339 0024 03F00F03 		and	r3, r3, #15
 1340 0028 9942     		cmp	r1, r3
 1341 002a 40F01D81 		bne	.L187
 1342              	.L167:
 1343 002e 2368     		ldr	r3, [r4]
 1344 0030 13F0040F 		tst	r3, #4
 1345 0034 0CD0     		beq	.L168
 1346 0036 2269     		ldr	r2, [r4, #16]
 1347 0038 934B     		ldr	r3, .L195+4
 1348 003a 9B69     		ldr	r3, [r3, #24]
 1349 003c 03F07003 		and	r3, r3, #112
 1350 0040 9A42     		cmp	r2, r3
 1351 0042 05D9     		bls	.L168
 1352 0044 9048     		ldr	r0, .L195+4
 1353 0046 8369     		ldr	r3, [r0, #24]
 1354 0048 23F07003 		bic	r3, r3, #112
 1355 004c 1343     		orrs	r3, r3, r2
 1356 004e 8361     		str	r3, [r0, #24]
 1357              	.L168:
 1358 0050 2368     		ldr	r3, [r4]
 1359 0052 13F0080F 		tst	r3, #8
 1360 0056 0CD0     		beq	.L169
 1361 0058 6269     		ldr	r2, [r4, #20]
 1362 005a 8B4B     		ldr	r3, .L195+4
 1363 005c DB69     		ldr	r3, [r3, #28]
 1364 005e 03F07003 		and	r3, r3, #112
 1365 0062 9A42     		cmp	r2, r3
 1366 0064 05D9     		bls	.L169
 1367 0066 8848     		ldr	r0, .L195+4
 1368 0068 C369     		ldr	r3, [r0, #28]
 1369 006a 23F07003 		bic	r3, r3, #112
 1370 006e 1343     		orrs	r3, r3, r2
 1371 0070 C361     		str	r3, [r0, #28]
 1372              	.L169:
 1373 0072 2368     		ldr	r3, [r4]
 1374 0074 13F0100F 		tst	r3, #16
 1375 0078 0CD0     		beq	.L170
 1376 007a A269     		ldr	r2, [r4, #24]
 1377 007c 824B     		ldr	r3, .L195+4
 1378 007e DB69     		ldr	r3, [r3, #28]
 1379 0080 03F4E063 		and	r3, r3, #1792
 1380 0084 9A42     		cmp	r2, r3
 1381 0086 05D9     		bls	.L170
ARM GAS  C:\Users\xiaofei\AppData\Local\Temp\ccrFn3n8.s 			page 25


 1382 0088 7F48     		ldr	r0, .L195+4
 1383 008a C369     		ldr	r3, [r0, #28]
 1384 008c 23F4E063 		bic	r3, r3, #1792
 1385 0090 1343     		orrs	r3, r3, r2
 1386 0092 C361     		str	r3, [r0, #28]
 1387              	.L170:
 1388 0094 2368     		ldr	r3, [r4]
 1389 0096 13F0200F 		tst	r3, #32
 1390 009a 0CD0     		beq	.L171
 1391 009c E269     		ldr	r2, [r4, #28]
 1392 009e 7A4B     		ldr	r3, .L195+4
 1393 00a0 1B6A     		ldr	r3, [r3, #32]
 1394 00a2 03F07003 		and	r3, r3, #112
 1395 00a6 9A42     		cmp	r2, r3
 1396 00a8 05D9     		bls	.L171
 1397 00aa 7748     		ldr	r0, .L195+4
 1398 00ac 036A     		ldr	r3, [r0, #32]
 1399 00ae 23F07003 		bic	r3, r3, #112
 1400 00b2 1343     		orrs	r3, r3, r2
 1401 00b4 0362     		str	r3, [r0, #32]
 1402              	.L171:
 1403 00b6 2368     		ldr	r3, [r4]
 1404 00b8 13F0020F 		tst	r3, #2
 1405 00bc 0CD0     		beq	.L172
 1406 00be E268     		ldr	r2, [r4, #12]
 1407 00c0 714B     		ldr	r3, .L195+4
 1408 00c2 9B69     		ldr	r3, [r3, #24]
 1409 00c4 03F00F03 		and	r3, r3, #15
 1410 00c8 9A42     		cmp	r2, r3
 1411 00ca 05D9     		bls	.L172
 1412 00cc 6E48     		ldr	r0, .L195+4
 1413 00ce 8369     		ldr	r3, [r0, #24]
 1414 00d0 23F00F03 		bic	r3, r3, #15
 1415 00d4 1343     		orrs	r3, r3, r2
 1416 00d6 8361     		str	r3, [r0, #24]
 1417              	.L172:
 1418 00d8 0D46     		mov	r5, r1
 1419 00da 2368     		ldr	r3, [r4]
 1420 00dc 13F0010F 		tst	r3, #1
 1421 00e0 3ED0     		beq	.L173
 1422 00e2 6949     		ldr	r1, .L195+4
 1423 00e4 8B69     		ldr	r3, [r1, #24]
 1424 00e6 23F47062 		bic	r2, r3, #3840
 1425 00ea A368     		ldr	r3, [r4, #8]
 1426 00ec 1343     		orrs	r3, r3, r2
 1427 00ee 8B61     		str	r3, [r1, #24]
 1428 00f0 6368     		ldr	r3, [r4, #4]
 1429 00f2 022B     		cmp	r3, #2
 1430 00f4 04D1     		bne	.L174
 1431 00f6 0A68     		ldr	r2, [r1]
 1432 00f8 12F4003F 		tst	r2, #131072
 1433 00fc 16D1     		bne	.L175
 1434 00fe B5E0     		b	.L188
 1435              	.L174:
 1436 0100 032B     		cmp	r3, #3
 1437 0102 05D1     		bne	.L176
 1438 0104 604A     		ldr	r2, .L195+4
ARM GAS  C:\Users\xiaofei\AppData\Local\Temp\ccrFn3n8.s 			page 26


 1439 0106 1268     		ldr	r2, [r2]
 1440 0108 12F0007F 		tst	r2, #33554432
 1441 010c 0ED1     		bne	.L175
 1442 010e AFE0     		b	.L189
 1443              	.L176:
 1444 0110 012B     		cmp	r3, #1
 1445 0112 05D1     		bne	.L177
 1446 0114 5C4A     		ldr	r2, .L195+4
 1447 0116 1268     		ldr	r2, [r2]
 1448 0118 12F4807F 		tst	r2, #256
 1449 011c 06D1     		bne	.L175
 1450 011e A9E0     		b	.L190
 1451              	.L177:
 1452 0120 594A     		ldr	r2, .L195+4
 1453 0122 1268     		ldr	r2, [r2]
 1454 0124 12F0040F 		tst	r2, #4
 1455 0128 00F0A680 		beq	.L191
 1456              	.L175:
 1457 012c 5649     		ldr	r1, .L195+4
 1458 012e 0A69     		ldr	r2, [r1, #16]
 1459 0130 22F00702 		bic	r2, r2, #7
 1460 0134 1343     		orrs	r3, r3, r2
 1461 0136 0B61     		str	r3, [r1, #16]
 1462 0138 FFF7FEFF 		bl	HAL_GetTick
 1463 013c 0646     		mov	r6, r0
 1464 013e 07E0     		b	.L178
 1465              	.L179:
 1466 0140 FFF7FEFF 		bl	HAL_GetTick
 1467 0144 801B     		subs	r0, r0, r6
 1468 0146 41F28833 		movw	r3, #5000
 1469 014a 9842     		cmp	r0, r3
 1470 014c 00F29680 		bhi	.L192
 1471              	.L178:
 1472 0150 4D4B     		ldr	r3, .L195+4
 1473 0152 1B69     		ldr	r3, [r3, #16]
 1474 0154 03F03803 		and	r3, r3, #56
 1475 0158 6268     		ldr	r2, [r4, #4]
 1476 015a B3EBC20F 		cmp	r3, r2, lsl #3
 1477 015e EFD1     		bne	.L179
 1478              	.L173:
 1479 0160 2368     		ldr	r3, [r4]
 1480 0162 13F0020F 		tst	r3, #2
 1481 0166 0CD0     		beq	.L180
 1482 0168 E268     		ldr	r2, [r4, #12]
 1483 016a 474B     		ldr	r3, .L195+4
 1484 016c 9B69     		ldr	r3, [r3, #24]
 1485 016e 03F00F03 		and	r3, r3, #15
 1486 0172 9A42     		cmp	r2, r3
 1487 0174 05D2     		bcs	.L180
 1488 0176 4449     		ldr	r1, .L195+4
 1489 0178 8B69     		ldr	r3, [r1, #24]
 1490 017a 23F00F03 		bic	r3, r3, #15
 1491 017e 1343     		orrs	r3, r3, r2
 1492 0180 8B61     		str	r3, [r1, #24]
 1493              	.L180:
 1494 0182 404B     		ldr	r3, .L195
 1495 0184 1B68     		ldr	r3, [r3]
ARM GAS  C:\Users\xiaofei\AppData\Local\Temp\ccrFn3n8.s 			page 27


 1496 0186 03F00F03 		and	r3, r3, #15
 1497 018a 9D42     		cmp	r5, r3
 1498 018c 0AD2     		bcs	.L181
 1499 018e 3D4A     		ldr	r2, .L195
 1500 0190 1368     		ldr	r3, [r2]
 1501 0192 23F00F03 		bic	r3, r3, #15
 1502 0196 2B43     		orrs	r3, r3, r5
 1503 0198 1360     		str	r3, [r2]
 1504 019a 1368     		ldr	r3, [r2]
 1505 019c 03F00F03 		and	r3, r3, #15
 1506 01a0 9D42     		cmp	r5, r3
 1507 01a2 6DD1     		bne	.L193
 1508              	.L181:
 1509 01a4 2368     		ldr	r3, [r4]
 1510 01a6 13F0040F 		tst	r3, #4
 1511 01aa 0CD0     		beq	.L182
 1512 01ac 2269     		ldr	r2, [r4, #16]
 1513 01ae 364B     		ldr	r3, .L195+4
 1514 01b0 9B69     		ldr	r3, [r3, #24]
 1515 01b2 03F07003 		and	r3, r3, #112
 1516 01b6 9A42     		cmp	r2, r3
 1517 01b8 05D2     		bcs	.L182
 1518 01ba 3349     		ldr	r1, .L195+4
 1519 01bc 8B69     		ldr	r3, [r1, #24]
 1520 01be 23F07003 		bic	r3, r3, #112
 1521 01c2 1343     		orrs	r3, r3, r2
 1522 01c4 8B61     		str	r3, [r1, #24]
 1523              	.L182:
 1524 01c6 2368     		ldr	r3, [r4]
 1525 01c8 13F0080F 		tst	r3, #8
 1526 01cc 0CD0     		beq	.L183
 1527 01ce 6269     		ldr	r2, [r4, #20]
 1528 01d0 2D4B     		ldr	r3, .L195+4
 1529 01d2 DB69     		ldr	r3, [r3, #28]
 1530 01d4 03F07003 		and	r3, r3, #112
 1531 01d8 9A42     		cmp	r2, r3
 1532 01da 05D2     		bcs	.L183
 1533 01dc 2A49     		ldr	r1, .L195+4
 1534 01de CB69     		ldr	r3, [r1, #28]
 1535 01e0 23F07003 		bic	r3, r3, #112
 1536 01e4 1343     		orrs	r3, r3, r2
 1537 01e6 CB61     		str	r3, [r1, #28]
 1538              	.L183:
 1539 01e8 2368     		ldr	r3, [r4]
 1540 01ea 13F0100F 		tst	r3, #16
 1541 01ee 0CD0     		beq	.L184
 1542 01f0 A269     		ldr	r2, [r4, #24]
 1543 01f2 254B     		ldr	r3, .L195+4
 1544 01f4 DB69     		ldr	r3, [r3, #28]
 1545 01f6 03F4E063 		and	r3, r3, #1792
 1546 01fa 9A42     		cmp	r2, r3
 1547 01fc 05D2     		bcs	.L184
 1548 01fe 2249     		ldr	r1, .L195+4
 1549 0200 CB69     		ldr	r3, [r1, #28]
 1550 0202 23F4E063 		bic	r3, r3, #1792
 1551 0206 1343     		orrs	r3, r3, r2
 1552 0208 CB61     		str	r3, [r1, #28]
ARM GAS  C:\Users\xiaofei\AppData\Local\Temp\ccrFn3n8.s 			page 28


 1553              	.L184:
 1554 020a 2368     		ldr	r3, [r4]
 1555 020c 13F0200F 		tst	r3, #32
 1556 0210 0CD0     		beq	.L185
 1557 0212 E269     		ldr	r2, [r4, #28]
 1558 0214 1C4B     		ldr	r3, .L195+4
 1559 0216 1B6A     		ldr	r3, [r3, #32]
 1560 0218 03F07003 		and	r3, r3, #112
 1561 021c 9A42     		cmp	r2, r3
 1562 021e 05D2     		bcs	.L185
 1563 0220 1949     		ldr	r1, .L195+4
 1564 0222 0B6A     		ldr	r3, [r1, #32]
 1565 0224 23F07003 		bic	r3, r3, #112
 1566 0228 1343     		orrs	r3, r3, r2
 1567 022a 0B62     		str	r3, [r1, #32]
 1568              	.L185:
 1569 022c FFF7FEFF 		bl	HAL_RCC_GetSysClockFreq
 1570 0230 1549     		ldr	r1, .L195+4
 1571 0232 8B69     		ldr	r3, [r1, #24]
 1572 0234 C3F30323 		ubfx	r3, r3, #8, #4
 1573 0238 144A     		ldr	r2, .L195+8
 1574 023a D35C     		ldrb	r3, [r2, r3]	@ zero_extendqisi2
 1575 023c 03F01F03 		and	r3, r3, #31
 1576 0240 D840     		lsrs	r0, r0, r3
 1577 0242 8B69     		ldr	r3, [r1, #24]
 1578 0244 03F00F03 		and	r3, r3, #15
 1579 0248 D35C     		ldrb	r3, [r2, r3]	@ zero_extendqisi2
 1580 024a 03F01F03 		and	r3, r3, #31
 1581 024e 20FA03F3 		lsr	r3, r0, r3
 1582 0252 0F4A     		ldr	r2, .L195+12
 1583 0254 1360     		str	r3, [r2]
 1584 0256 0F4B     		ldr	r3, .L195+16
 1585 0258 1860     		str	r0, [r3]
 1586 025a 0F4B     		ldr	r3, .L195+20
 1587 025c 1868     		ldr	r0, [r3]
 1588 025e FFF7FEFF 		bl	HAL_InitTick
 1589 0262 70BD     		pop	{r4, r5, r6, pc}
 1590              	.L186:
 1591 0264 0120     		movs	r0, #1
 1592 0266 7047     		bx	lr
 1593              	.L187:
 1594 0268 0120     		movs	r0, #1
 1595 026a 70BD     		pop	{r4, r5, r6, pc}
 1596              	.L188:
 1597 026c 0120     		movs	r0, #1
 1598 026e 70BD     		pop	{r4, r5, r6, pc}
 1599              	.L189:
 1600 0270 0120     		movs	r0, #1
 1601 0272 70BD     		pop	{r4, r5, r6, pc}
 1602              	.L190:
 1603 0274 0120     		movs	r0, #1
 1604 0276 70BD     		pop	{r4, r5, r6, pc}
 1605              	.L191:
 1606 0278 0120     		movs	r0, #1
 1607 027a 70BD     		pop	{r4, r5, r6, pc}
 1608              	.L192:
 1609 027c 0320     		movs	r0, #3
ARM GAS  C:\Users\xiaofei\AppData\Local\Temp\ccrFn3n8.s 			page 29


 1610 027e 70BD     		pop	{r4, r5, r6, pc}
 1611              	.L193:
 1612 0280 0120     		movs	r0, #1
 1613 0282 70BD     		pop	{r4, r5, r6, pc}
 1614              	.L196:
 1615              		.align	2
 1616              	.L195:
 1617 0284 00200052 		.word	1375739904
 1618 0288 00440258 		.word	1476543488
 1619 028c 00000000 		.word	D1CorePrescTable
 1620 0290 00000000 		.word	SystemD2Clock
 1621 0294 00000000 		.word	SystemCoreClock
 1622 0298 00000000 		.word	uwTickPrio
 1624              		.section	.text.HAL_RCC_GetHCLKFreq,"ax",%progbits
 1625              		.align	2
 1626              		.global	HAL_RCC_GetHCLKFreq
 1627              		.thumb
 1628              		.thumb_func
 1630              	HAL_RCC_GetHCLKFreq:
 1631              		@ args = 0, pretend = 0, frame = 0
 1632              		@ frame_needed = 0, uses_anonymous_args = 0
 1633 0000 08B5     		push	{r3, lr}
 1634 0002 FFF7FEFF 		bl	HAL_RCC_GetSysClockFreq
 1635 0006 0B4A     		ldr	r2, .L199
 1636 0008 9369     		ldr	r3, [r2, #24]
 1637 000a C3F30323 		ubfx	r3, r3, #8, #4
 1638 000e 0A49     		ldr	r1, .L199+4
 1639 0010 CB5C     		ldrb	r3, [r1, r3]	@ zero_extendqisi2
 1640 0012 03F01F03 		and	r3, r3, #31
 1641 0016 20FA03F3 		lsr	r3, r0, r3
 1642 001a 9269     		ldr	r2, [r2, #24]
 1643 001c 02F00F02 		and	r2, r2, #15
 1644 0020 885C     		ldrb	r0, [r1, r2]	@ zero_extendqisi2
 1645 0022 00F01F00 		and	r0, r0, #31
 1646 0026 23FA00F0 		lsr	r0, r3, r0
 1647 002a 044A     		ldr	r2, .L199+8
 1648 002c 1060     		str	r0, [r2]
 1649 002e 044A     		ldr	r2, .L199+12
 1650 0030 1360     		str	r3, [r2]
 1651 0032 08BD     		pop	{r3, pc}
 1652              	.L200:
 1653              		.align	2
 1654              	.L199:
 1655 0034 00440258 		.word	1476543488
 1656 0038 00000000 		.word	D1CorePrescTable
 1657 003c 00000000 		.word	SystemD2Clock
 1658 0040 00000000 		.word	SystemCoreClock
 1660              		.section	.text.HAL_RCC_GetPCLK1Freq,"ax",%progbits
 1661              		.align	2
 1662              		.global	HAL_RCC_GetPCLK1Freq
 1663              		.thumb
 1664              		.thumb_func
 1666              	HAL_RCC_GetPCLK1Freq:
 1667              		@ args = 0, pretend = 0, frame = 0
 1668              		@ frame_needed = 0, uses_anonymous_args = 0
 1669 0000 08B5     		push	{r3, lr}
 1670 0002 FFF7FEFF 		bl	HAL_RCC_GetHCLKFreq
ARM GAS  C:\Users\xiaofei\AppData\Local\Temp\ccrFn3n8.s 			page 30


 1671 0006 054B     		ldr	r3, .L203
 1672 0008 DB69     		ldr	r3, [r3, #28]
 1673 000a C3F30213 		ubfx	r3, r3, #4, #3
 1674 000e 044A     		ldr	r2, .L203+4
 1675 0010 D35C     		ldrb	r3, [r2, r3]	@ zero_extendqisi2
 1676 0012 03F01F03 		and	r3, r3, #31
 1677 0016 D840     		lsrs	r0, r0, r3
 1678 0018 08BD     		pop	{r3, pc}
 1679              	.L204:
 1680 001a 00BF     		.align	2
 1681              	.L203:
 1682 001c 00440258 		.word	1476543488
 1683 0020 00000000 		.word	D1CorePrescTable
 1685              		.section	.text.HAL_RCC_GetPCLK2Freq,"ax",%progbits
 1686              		.align	2
 1687              		.global	HAL_RCC_GetPCLK2Freq
 1688              		.thumb
 1689              		.thumb_func
 1691              	HAL_RCC_GetPCLK2Freq:
 1692              		@ args = 0, pretend = 0, frame = 0
 1693              		@ frame_needed = 0, uses_anonymous_args = 0
 1694 0000 08B5     		push	{r3, lr}
 1695 0002 FFF7FEFF 		bl	HAL_RCC_GetHCLKFreq
 1696 0006 054B     		ldr	r3, .L207
 1697 0008 DB69     		ldr	r3, [r3, #28]
 1698 000a C3F30223 		ubfx	r3, r3, #8, #3
 1699 000e 044A     		ldr	r2, .L207+4
 1700 0010 D35C     		ldrb	r3, [r2, r3]	@ zero_extendqisi2
 1701 0012 03F01F03 		and	r3, r3, #31
 1702 0016 D840     		lsrs	r0, r0, r3
 1703 0018 08BD     		pop	{r3, pc}
 1704              	.L208:
 1705 001a 00BF     		.align	2
 1706              	.L207:
 1707 001c 00440258 		.word	1476543488
 1708 0020 00000000 		.word	D1CorePrescTable
 1710              		.section	.text.HAL_RCC_GetOscConfig,"ax",%progbits
 1711              		.align	2
 1712              		.global	HAL_RCC_GetOscConfig
 1713              		.thumb
 1714              		.thumb_func
 1716              	HAL_RCC_GetOscConfig:
 1717              		@ args = 0, pretend = 0, frame = 0
 1718              		@ frame_needed = 0, uses_anonymous_args = 0
 1719 0000 10B5     		push	{r4, lr}
 1720 0002 0446     		mov	r4, r0
 1721 0004 3F23     		movs	r3, #63
 1722 0006 0360     		str	r3, [r0]
 1723 0008 514B     		ldr	r3, .L231
 1724 000a 1B68     		ldr	r3, [r3]
 1725 000c 13F4802F 		tst	r3, #262144
 1726 0010 03D0     		beq	.L210
 1727 0012 4FF4A023 		mov	r3, #327680
 1728 0016 4360     		str	r3, [r0, #4]
 1729 0018 0AE0     		b	.L211
 1730              	.L210:
 1731 001a 4D4B     		ldr	r3, .L231
ARM GAS  C:\Users\xiaofei\AppData\Local\Temp\ccrFn3n8.s 			page 31


 1732 001c 1B68     		ldr	r3, [r3]
 1733 001e 13F4803F 		tst	r3, #65536
 1734 0022 03D0     		beq	.L212
 1735 0024 4FF48033 		mov	r3, #65536
 1736 0028 4360     		str	r3, [r0, #4]
 1737 002a 01E0     		b	.L211
 1738              	.L212:
 1739 002c 0023     		movs	r3, #0
 1740 002e 4360     		str	r3, [r0, #4]
 1741              	.L211:
 1742 0030 474B     		ldr	r3, .L231
 1743 0032 1B68     		ldr	r3, [r3]
 1744 0034 13F0800F 		tst	r3, #128
 1745 0038 02D0     		beq	.L213
 1746 003a 8023     		movs	r3, #128
 1747 003c E361     		str	r3, [r4, #28]
 1748 003e 01E0     		b	.L214
 1749              	.L213:
 1750 0040 0023     		movs	r3, #0
 1751 0042 E361     		str	r3, [r4, #28]
 1752              	.L214:
 1753 0044 FFF7FEFF 		bl	HAL_GetREVID
 1754 0048 41F20303 		movw	r3, #4099
 1755 004c 9842     		cmp	r0, r3
 1756 004e 05D8     		bhi	.L215
 1757 0050 3F4B     		ldr	r3, .L231
 1758 0052 5B68     		ldr	r3, [r3, #4]
 1759 0054 C3F38463 		ubfx	r3, r3, #26, #5
 1760 0058 2362     		str	r3, [r4, #32]
 1761 005a 04E0     		b	.L216
 1762              	.L215:
 1763 005c 3C4B     		ldr	r3, .L231
 1764 005e DB68     		ldr	r3, [r3, #12]
 1765 0060 C3F30563 		ubfx	r3, r3, #24, #6
 1766 0064 2362     		str	r3, [r4, #32]
 1767              	.L216:
 1768 0066 3A4B     		ldr	r3, .L231
 1769 0068 1B68     		ldr	r3, [r3]
 1770 006a 13F0010F 		tst	r3, #1
 1771 006e 02D0     		beq	.L217
 1772 0070 0123     		movs	r3, #1
 1773 0072 E360     		str	r3, [r4, #12]
 1774 0074 01E0     		b	.L218
 1775              	.L217:
 1776 0076 0023     		movs	r3, #0
 1777 0078 E360     		str	r3, [r4, #12]
 1778              	.L218:
 1779 007a FFF7FEFF 		bl	HAL_GetREVID
 1780 007e 41F20303 		movw	r3, #4099
 1781 0082 9842     		cmp	r0, r3
 1782 0084 05D8     		bhi	.L219
 1783 0086 324B     		ldr	r3, .L231
 1784 0088 5B68     		ldr	r3, [r3, #4]
 1785 008a C3F30533 		ubfx	r3, r3, #12, #6
 1786 008e 2361     		str	r3, [r4, #16]
 1787 0090 04E0     		b	.L220
 1788              	.L219:
ARM GAS  C:\Users\xiaofei\AppData\Local\Temp\ccrFn3n8.s 			page 32


 1789 0092 2F4B     		ldr	r3, .L231
 1790 0094 5B68     		ldr	r3, [r3, #4]
 1791 0096 C3F30663 		ubfx	r3, r3, #24, #7
 1792 009a 2361     		str	r3, [r4, #16]
 1793              	.L220:
 1794 009c 2C4B     		ldr	r3, .L231
 1795 009e 1B6F     		ldr	r3, [r3, #112]
 1796 00a0 13F0040F 		tst	r3, #4
 1797 00a4 02D0     		beq	.L221
 1798 00a6 0523     		movs	r3, #5
 1799 00a8 A360     		str	r3, [r4, #8]
 1800 00aa 09E0     		b	.L222
 1801              	.L221:
 1802 00ac 284B     		ldr	r3, .L231
 1803 00ae 1B6F     		ldr	r3, [r3, #112]
 1804 00b0 13F0010F 		tst	r3, #1
 1805 00b4 02D0     		beq	.L223
 1806 00b6 0123     		movs	r3, #1
 1807 00b8 A360     		str	r3, [r4, #8]
 1808 00ba 01E0     		b	.L222
 1809              	.L223:
 1810 00bc 0023     		movs	r3, #0
 1811 00be A360     		str	r3, [r4, #8]
 1812              	.L222:
 1813 00c0 234B     		ldr	r3, .L231
 1814 00c2 5B6F     		ldr	r3, [r3, #116]
 1815 00c4 13F0010F 		tst	r3, #1
 1816 00c8 02D0     		beq	.L224
 1817 00ca 0123     		movs	r3, #1
 1818 00cc 6361     		str	r3, [r4, #20]
 1819 00ce 01E0     		b	.L225
 1820              	.L224:
 1821 00d0 0023     		movs	r3, #0
 1822 00d2 6361     		str	r3, [r4, #20]
 1823              	.L225:
 1824 00d4 1E4B     		ldr	r3, .L231
 1825 00d6 1B68     		ldr	r3, [r3]
 1826 00d8 13F4805F 		tst	r3, #4096
 1827 00dc 02D0     		beq	.L226
 1828 00de 0123     		movs	r3, #1
 1829 00e0 A361     		str	r3, [r4, #24]
 1830 00e2 01E0     		b	.L227
 1831              	.L226:
 1832 00e4 0023     		movs	r3, #0
 1833 00e6 A361     		str	r3, [r4, #24]
 1834              	.L227:
 1835 00e8 194B     		ldr	r3, .L231
 1836 00ea 1B68     		ldr	r3, [r3]
 1837 00ec 13F0807F 		tst	r3, #16777216
 1838 00f0 02D0     		beq	.L228
 1839 00f2 0223     		movs	r3, #2
 1840 00f4 6362     		str	r3, [r4, #36]
 1841 00f6 01E0     		b	.L229
 1842              	.L228:
 1843 00f8 0123     		movs	r3, #1
 1844 00fa 6362     		str	r3, [r4, #36]
 1845              	.L229:
ARM GAS  C:\Users\xiaofei\AppData\Local\Temp\ccrFn3n8.s 			page 33


 1846 00fc 144B     		ldr	r3, .L231
 1847 00fe 9A6A     		ldr	r2, [r3, #40]
 1848 0100 02F00302 		and	r2, r2, #3
 1849 0104 A262     		str	r2, [r4, #40]
 1850 0106 9A6A     		ldr	r2, [r3, #40]
 1851 0108 C2F30512 		ubfx	r2, r2, #4, #6
 1852 010c E262     		str	r2, [r4, #44]
 1853 010e 1A6B     		ldr	r2, [r3, #48]
 1854 0110 C2F30802 		ubfx	r2, r2, #0, #9
 1855 0114 0132     		adds	r2, r2, #1
 1856 0116 2263     		str	r2, [r4, #48]
 1857 0118 1A6B     		ldr	r2, [r3, #48]
 1858 011a C2F30662 		ubfx	r2, r2, #24, #7
 1859 011e 0132     		adds	r2, r2, #1
 1860 0120 E263     		str	r2, [r4, #60]
 1861 0122 1A6B     		ldr	r2, [r3, #48]
 1862 0124 C2F34622 		ubfx	r2, r2, #9, #7
 1863 0128 0132     		adds	r2, r2, #1
 1864 012a 6263     		str	r2, [r4, #52]
 1865 012c 1A6B     		ldr	r2, [r3, #48]
 1866 012e C2F30642 		ubfx	r2, r2, #16, #7
 1867 0132 0132     		adds	r2, r2, #1
 1868 0134 A263     		str	r2, [r4, #56]
 1869 0136 DA6A     		ldr	r2, [r3, #44]
 1870 0138 02F00C02 		and	r2, r2, #12
 1871 013c 2264     		str	r2, [r4, #64]
 1872 013e DA6A     		ldr	r2, [r3, #44]
 1873 0140 C2F34002 		ubfx	r2, r2, #1, #1
 1874 0144 6264     		str	r2, [r4, #68]
 1875 0146 5B6B     		ldr	r3, [r3, #52]
 1876 0148 C3F3CC03 		ubfx	r3, r3, #3, #13
 1877 014c A364     		str	r3, [r4, #72]
 1878 014e 10BD     		pop	{r4, pc}
 1879              	.L232:
 1880              		.align	2
 1881              	.L231:
 1882 0150 00440258 		.word	1476543488
 1884              		.section	.text.HAL_RCC_GetClockConfig,"ax",%progbits
 1885              		.align	2
 1886              		.global	HAL_RCC_GetClockConfig
 1887              		.thumb
 1888              		.thumb_func
 1890              	HAL_RCC_GetClockConfig:
 1891              		@ args = 0, pretend = 0, frame = 0
 1892              		@ frame_needed = 0, uses_anonymous_args = 0
 1893              		@ link register save eliminated.
 1894 0000 3F23     		movs	r3, #63
 1895 0002 0360     		str	r3, [r0]
 1896 0004 114B     		ldr	r3, .L234
 1897 0006 1A69     		ldr	r2, [r3, #16]
 1898 0008 02F00702 		and	r2, r2, #7
 1899 000c 4260     		str	r2, [r0, #4]
 1900 000e 9A69     		ldr	r2, [r3, #24]
 1901 0010 02F47062 		and	r2, r2, #3840
 1902 0014 8260     		str	r2, [r0, #8]
 1903 0016 9A69     		ldr	r2, [r3, #24]
 1904 0018 02F00F02 		and	r2, r2, #15
ARM GAS  C:\Users\xiaofei\AppData\Local\Temp\ccrFn3n8.s 			page 34


 1905 001c C260     		str	r2, [r0, #12]
 1906 001e 9A69     		ldr	r2, [r3, #24]
 1907 0020 02F07002 		and	r2, r2, #112
 1908 0024 0261     		str	r2, [r0, #16]
 1909 0026 DA69     		ldr	r2, [r3, #28]
 1910 0028 02F07002 		and	r2, r2, #112
 1911 002c 4261     		str	r2, [r0, #20]
 1912 002e DA69     		ldr	r2, [r3, #28]
 1913 0030 02F4E062 		and	r2, r2, #1792
 1914 0034 8261     		str	r2, [r0, #24]
 1915 0036 1B6A     		ldr	r3, [r3, #32]
 1916 0038 03F07003 		and	r3, r3, #112
 1917 003c C361     		str	r3, [r0, #28]
 1918 003e 044B     		ldr	r3, .L234+4
 1919 0040 1B68     		ldr	r3, [r3]
 1920 0042 03F00F03 		and	r3, r3, #15
 1921 0046 0B60     		str	r3, [r1]
 1922 0048 7047     		bx	lr
 1923              	.L235:
 1924 004a 00BF     		.align	2
 1925              	.L234:
 1926 004c 00440258 		.word	1476543488
 1927 0050 00200052 		.word	1375739904
 1929              		.section	.text.HAL_RCC_CSSCallback,"ax",%progbits
 1930              		.align	2
 1931              		.weak	HAL_RCC_CSSCallback
 1932              		.thumb
 1933              		.thumb_func
 1935              	HAL_RCC_CSSCallback:
 1936              		@ args = 0, pretend = 0, frame = 0
 1937              		@ frame_needed = 0, uses_anonymous_args = 0
 1938              		@ link register save eliminated.
 1939 0000 7047     		bx	lr
 1941 0002 00BF     		.section	.text.HAL_RCC_NMI_IRQHandler,"ax",%progbits
 1942              		.align	2
 1943              		.global	HAL_RCC_NMI_IRQHandler
 1944              		.thumb
 1945              		.thumb_func
 1947              	HAL_RCC_NMI_IRQHandler:
 1948              		@ args = 0, pretend = 0, frame = 0
 1949              		@ frame_needed = 0, uses_anonymous_args = 0
 1950 0000 08B5     		push	{r3, lr}
 1951 0002 064B     		ldr	r3, .L240
 1952 0004 5B6E     		ldr	r3, [r3, #100]
 1953 0006 13F4806F 		tst	r3, #1024
 1954 000a 05D0     		beq	.L237
 1955 000c FFF7FEFF 		bl	HAL_RCC_CSSCallback
 1956 0010 4FF48062 		mov	r2, #1024
 1957 0014 014B     		ldr	r3, .L240
 1958 0016 9A66     		str	r2, [r3, #104]
 1959              	.L237:
 1960 0018 08BD     		pop	{r3, pc}
 1961              	.L241:
 1962 001a 00BF     		.align	2
 1963              	.L240:
 1964 001c 00440258 		.word	1476543488
 1966              		.ident	"GCC: (GNU Tools for ARM Embedded Processors) 5.4.1 20160919 (release) [ARM/embedded-5-bran
ARM GAS  C:\Users\xiaofei\AppData\Local\Temp\ccrFn3n8.s 			page 35


ARM GAS  C:\Users\xiaofei\AppData\Local\Temp\ccrFn3n8.s 			page 36

