ARM GAS  C:\Users\xiaofei\AppData\Local\Temp\ccUUXCeM.s 			page 1


   1              		.syntax unified
   2              		.cpu cortex-m7
   3              		.eabi_attribute 28, 1
   4              		.fpu fpv5-d16
   5              		.eabi_attribute 20, 1
   6              		.eabi_attribute 21, 1
   7              		.eabi_attribute 23, 3
   8              		.eabi_attribute 24, 1
   9              		.eabi_attribute 25, 1
  10              		.eabi_attribute 26, 1
  11              		.eabi_attribute 30, 1
  12              		.eabi_attribute 34, 1
  13              		.eabi_attribute 18, 4
  14              		.thumb
  15              		.syntax unified
  16              		.file	"stm32h7xx_hal_uart_ex.c"
  17              		.section	.text.UARTEx_Wakeup_AddressConfig,"ax",%progbits
  18              		.align	2
  19              		.thumb
  20              		.thumb_func
  22              	UARTEx_Wakeup_AddressConfig:
  23              		@ args = 0, pretend = 0, frame = 8
  24              		@ frame_needed = 0, uses_anonymous_args = 0
  25              		@ link register save eliminated.
  26 0000 82B0     		sub	sp, sp, #8
  27 0002 02AB     		add	r3, sp, #8
  28 0004 03E90600 		stmdb	r3, {r1, r2}
  29 0008 0268     		ldr	r2, [r0]
  30 000a 5368     		ldr	r3, [r2, #4]
  31 000c 23F01003 		bic	r3, r3, #16
  32 0010 BDF80410 		ldrh	r1, [sp, #4]
  33 0014 0B43     		orrs	r3, r3, r1
  34 0016 5360     		str	r3, [r2, #4]
  35 0018 0268     		ldr	r2, [r0]
  36 001a 5368     		ldr	r3, [r2, #4]
  37 001c 23F07F43 		bic	r3, r3, #-16777216
  38 0020 9DF80610 		ldrb	r1, [sp, #6]	@ zero_extendqisi2
  39 0024 43EA0163 		orr	r3, r3, r1, lsl #24
  40 0028 5360     		str	r3, [r2, #4]
  41 002a 02B0     		add	sp, sp, #8
  42              		@ sp needed
  43 002c 7047     		bx	lr
  45 002e 00BF     		.section	.text.UARTEx_SetNbDataToProcess,"ax",%progbits
  46              		.align	2
  47              		.thumb
  48              		.thumb_func
  50              	UARTEx_SetNbDataToProcess:
  51              		@ args = 0, pretend = 0, frame = 16
  52              		@ frame_needed = 0, uses_anonymous_args = 0
  53              		@ link register save eliminated.
  54 0000 10B4     		push	{r4}
  55 0002 85B0     		sub	sp, sp, #20
  56 0004 0446     		mov	r4, r0
  57 0006 194B     		ldr	r3, .L7
  58 0008 02AA     		add	r2, sp, #8
  59 000a 1868     		ldr	r0, [r3]	@ unaligned
  60 000c 5968     		ldr	r1, [r3, #4]	@ unaligned
ARM GAS  C:\Users\xiaofei\AppData\Local\Temp\ccUUXCeM.s 			page 2


  61 000e 03C2     		stmia	r2!, {r0, r1}
  62 0010 6A46     		mov	r2, sp
  63 0012 53F8080F 		ldr	r0, [r3, #8]!	@ unaligned
  64 0016 5968     		ldr	r1, [r3, #4]	@ unaligned
  65 0018 03C2     		stmia	r2!, {r0, r1}
  66 001a 636E     		ldr	r3, [r4, #100]
  67 001c 2BB9     		cbnz	r3, .L4
  68 001e 0123     		movs	r3, #1
  69 0020 A4F86A30 		strh	r3, [r4, #106]	@ movhi
  70 0024 A4F86830 		strh	r3, [r4, #104]	@ movhi
  71 0028 1BE0     		b	.L3
  72              	.L4:
  73 002a 2268     		ldr	r2, [r4]
  74 002c 9368     		ldr	r3, [r2, #8]
  75 002e C3F34263 		ubfx	r3, r3, #25, #3
  76 0032 9168     		ldr	r1, [r2, #8]
  77 0034 04AA     		add	r2, sp, #16
  78 0036 02EB5171 		add	r1, r2, r1, lsr #29
  79 003a 11F8082C 		ldrb	r2, [r1, #-8]	@ zero_extendqisi2
  80 003e 1201     		lsls	r2, r2, #4
  81 0040 11F8101C 		ldrb	r1, [r1, #-16]	@ zero_extendqisi2
  82 0044 92FBF1F2 		sdiv	r2, r2, r1
  83 0048 A4F86A20 		strh	r2, [r4, #106]	@ movhi
  84 004c 04AA     		add	r2, sp, #16
  85 004e 1344     		add	r3, r3, r2
  86 0050 13F8082C 		ldrb	r2, [r3, #-8]	@ zero_extendqisi2
  87 0054 1201     		lsls	r2, r2, #4
  88 0056 13F8103C 		ldrb	r3, [r3, #-16]	@ zero_extendqisi2
  89 005a 92FBF3F3 		sdiv	r3, r2, r3
  90 005e A4F86830 		strh	r3, [r4, #104]	@ movhi
  91              	.L3:
  92 0062 05B0     		add	sp, sp, #20
  93              		@ sp needed
  94 0064 5DF8044B 		ldr	r4, [sp], #4
  95 0068 7047     		bx	lr
  96              	.L8:
  97 006a 00BF     		.align	2
  98              	.L7:
  99 006c 00000000 		.word	.LANCHOR0
 101              		.section	.text.HAL_RS485Ex_Init,"ax",%progbits
 102              		.align	2
 103              		.global	HAL_RS485Ex_Init
 104              		.thumb
 105              		.thumb_func
 107              	HAL_RS485Ex_Init:
 108              		@ args = 0, pretend = 0, frame = 0
 109              		@ frame_needed = 0, uses_anonymous_args = 0
 110 0000 0028     		cmp	r0, #0
 111 0002 3AD0     		beq	.L13
 112 0004 F8B5     		push	{r3, r4, r5, r6, r7, lr}
 113 0006 0446     		mov	r4, r0
 114 0008 1D46     		mov	r5, r3
 115 000a 1746     		mov	r7, r2
 116 000c 0E46     		mov	r6, r1
 117 000e D0F88030 		ldr	r3, [r0, #128]
 118 0012 1BB9     		cbnz	r3, .L11
 119 0014 80F87C30 		strb	r3, [r0, #124]
ARM GAS  C:\Users\xiaofei\AppData\Local\Temp\ccUUXCeM.s 			page 3


 120 0018 FFF7FEFF 		bl	HAL_UART_MspInit
 121              	.L11:
 122 001c 2423     		movs	r3, #36
 123 001e C4F88030 		str	r3, [r4, #128]
 124 0022 2268     		ldr	r2, [r4]
 125 0024 1368     		ldr	r3, [r2]
 126 0026 23F00103 		bic	r3, r3, #1
 127 002a 1360     		str	r3, [r2]
 128 002c 2046     		mov	r0, r4
 129 002e FFF7FEFF 		bl	UART_SetConfig
 130 0032 0128     		cmp	r0, #1
 131 0034 23D0     		beq	.L10
 132 0036 A36A     		ldr	r3, [r4, #40]
 133 0038 13B1     		cbz	r3, .L12
 134 003a 2046     		mov	r0, r4
 135 003c FFF7FEFF 		bl	UART_AdvFeatureConfig
 136              	.L12:
 137 0040 2268     		ldr	r2, [r4]
 138 0042 9368     		ldr	r3, [r2, #8]
 139 0044 43F48043 		orr	r3, r3, #16384
 140 0048 9360     		str	r3, [r2, #8]
 141 004a 2368     		ldr	r3, [r4]
 142 004c 9968     		ldr	r1, [r3, #8]
 143 004e 21F40041 		bic	r1, r1, #32768
 144 0052 0E43     		orrs	r6, r6, r1
 145 0054 9E60     		str	r6, [r3, #8]
 146 0056 2D04     		lsls	r5, r5, #16
 147 0058 45EA4752 		orr	r2, r5, r7, lsl #21
 148 005c 2368     		ldr	r3, [r4]
 149 005e 1968     		ldr	r1, [r3]
 150 0060 074D     		ldr	r5, .L16
 151 0062 0D40     		ands	r5, r5, r1
 152 0064 2A43     		orrs	r2, r2, r5
 153 0066 1A60     		str	r2, [r3]
 154 0068 2268     		ldr	r2, [r4]
 155 006a 1368     		ldr	r3, [r2]
 156 006c 43F00103 		orr	r3, r3, #1
 157 0070 1360     		str	r3, [r2]
 158 0072 2046     		mov	r0, r4
 159 0074 FFF7FEFF 		bl	UART_CheckIdleState
 160 0078 F8BD     		pop	{r3, r4, r5, r6, r7, pc}
 161              	.L13:
 162 007a 0120     		movs	r0, #1
 163 007c 7047     		bx	lr
 164              	.L10:
 165 007e F8BD     		pop	{r3, r4, r5, r6, r7, pc}
 166              	.L17:
 167              		.align	2
 168              	.L16:
 169 0080 FFFF00FC 		.word	-67043329
 171              		.section	.text.HAL_UARTEx_WakeupCallback,"ax",%progbits
 172              		.align	2
 173              		.weak	HAL_UARTEx_WakeupCallback
 174              		.thumb
 175              		.thumb_func
 177              	HAL_UARTEx_WakeupCallback:
 178              		@ args = 0, pretend = 0, frame = 0
ARM GAS  C:\Users\xiaofei\AppData\Local\Temp\ccUUXCeM.s 			page 4


 179              		@ frame_needed = 0, uses_anonymous_args = 0
 180              		@ link register save eliminated.
 181 0000 7047     		bx	lr
 183 0002 00BF     		.section	.text.HAL_UARTEx_RxFifoFullCallback,"ax",%progbits
 184              		.align	2
 185              		.weak	HAL_UARTEx_RxFifoFullCallback
 186              		.thumb
 187              		.thumb_func
 189              	HAL_UARTEx_RxFifoFullCallback:
 190              		@ args = 0, pretend = 0, frame = 0
 191              		@ frame_needed = 0, uses_anonymous_args = 0
 192              		@ link register save eliminated.
 193 0000 7047     		bx	lr
 195 0002 00BF     		.section	.text.HAL_UARTEx_TxFifoEmptyCallback,"ax",%progbits
 196              		.align	2
 197              		.weak	HAL_UARTEx_TxFifoEmptyCallback
 198              		.thumb
 199              		.thumb_func
 201              	HAL_UARTEx_TxFifoEmptyCallback:
 202              		@ args = 0, pretend = 0, frame = 0
 203              		@ frame_needed = 0, uses_anonymous_args = 0
 204              		@ link register save eliminated.
 205 0000 7047     		bx	lr
 207 0002 00BF     		.section	.text.HAL_MultiProcessorEx_AddressLength_Set,"ax",%progbits
 208              		.align	2
 209              		.global	HAL_MultiProcessorEx_AddressLength_Set
 210              		.thumb
 211              		.thumb_func
 213              	HAL_MultiProcessorEx_AddressLength_Set:
 214              		@ args = 0, pretend = 0, frame = 0
 215              		@ frame_needed = 0, uses_anonymous_args = 0
 216 0000 B0B1     		cbz	r0, .L23
 217 0002 08B5     		push	{r3, lr}
 218 0004 2423     		movs	r3, #36
 219 0006 C0F88030 		str	r3, [r0, #128]
 220 000a 0268     		ldr	r2, [r0]
 221 000c 1368     		ldr	r3, [r2]
 222 000e 23F00103 		bic	r3, r3, #1
 223 0012 1360     		str	r3, [r2]
 224 0014 0268     		ldr	r2, [r0]
 225 0016 5368     		ldr	r3, [r2, #4]
 226 0018 23F01003 		bic	r3, r3, #16
 227 001c 1943     		orrs	r1, r1, r3
 228 001e 5160     		str	r1, [r2, #4]
 229 0020 0268     		ldr	r2, [r0]
 230 0022 1368     		ldr	r3, [r2]
 231 0024 43F00103 		orr	r3, r3, #1
 232 0028 1360     		str	r3, [r2]
 233 002a FFF7FEFF 		bl	UART_CheckIdleState
 234 002e 08BD     		pop	{r3, pc}
 235              	.L23:
 236 0030 0120     		movs	r0, #1
 237 0032 7047     		bx	lr
 239              		.section	.text.HAL_UARTEx_StopModeWakeUpSourceConfig,"ax",%progbits
 240              		.align	2
 241              		.global	HAL_UARTEx_StopModeWakeUpSourceConfig
 242              		.thumb
ARM GAS  C:\Users\xiaofei\AppData\Local\Temp\ccUUXCeM.s 			page 5


 243              		.thumb_func
 245              	HAL_UARTEx_StopModeWakeUpSourceConfig:
 246              		@ args = 0, pretend = 0, frame = 8
 247              		@ frame_needed = 0, uses_anonymous_args = 0
 248 0000 10B5     		push	{r4, lr}
 249 0002 84B0     		sub	sp, sp, #16
 250 0004 04AB     		add	r3, sp, #16
 251 0006 03E90600 		stmdb	r3, {r1, r2}
 252 000a 90F87C30 		ldrb	r3, [r0, #124]	@ zero_extendqisi2
 253 000e 012B     		cmp	r3, #1
 254 0010 33D0     		beq	.L30
 255 0012 0446     		mov	r4, r0
 256 0014 0123     		movs	r3, #1
 257 0016 80F87C30 		strb	r3, [r0, #124]
 258 001a 2423     		movs	r3, #36
 259 001c C0F88030 		str	r3, [r0, #128]
 260 0020 0268     		ldr	r2, [r0]
 261 0022 1368     		ldr	r3, [r2]
 262 0024 23F00103 		bic	r3, r3, #1
 263 0028 1360     		str	r3, [r2]
 264 002a 0168     		ldr	r1, [r0]
 265 002c 8B68     		ldr	r3, [r1, #8]
 266 002e 23F44013 		bic	r3, r3, #3145728
 267 0032 029A     		ldr	r2, [sp, #8]
 268 0034 1343     		orrs	r3, r3, r2
 269 0036 8B60     		str	r3, [r1, #8]
 270 0038 22B9     		cbnz	r2, .L28
 271 003a 04AB     		add	r3, sp, #16
 272 003c 13E90600 		ldmdb	r3, {r1, r2}
 273 0040 FFF7FEFF 		bl	UARTEx_Wakeup_AddressConfig
 274              	.L28:
 275 0044 2268     		ldr	r2, [r4]
 276 0046 1368     		ldr	r3, [r2]
 277 0048 43F00103 		orr	r3, r3, #1
 278 004c 1360     		str	r3, [r2]
 279 004e FFF7FEFF 		bl	HAL_GetTick
 280 0052 6FF07E43 		mvn	r3, #-33554432
 281 0056 0093     		str	r3, [sp]
 282 0058 0346     		mov	r3, r0
 283 005a 0022     		movs	r2, #0
 284 005c 4FF48001 		mov	r1, #4194304
 285 0060 2046     		mov	r0, r4
 286 0062 FFF7FEFF 		bl	UART_WaitOnFlagUntilTimeout
 287 0066 18B9     		cbnz	r0, .L31
 288 0068 2023     		movs	r3, #32
 289 006a C4F88030 		str	r3, [r4, #128]
 290 006e 00E0     		b	.L29
 291              	.L31:
 292 0070 0320     		movs	r0, #3
 293              	.L29:
 294 0072 0023     		movs	r3, #0
 295 0074 84F87C30 		strb	r3, [r4, #124]
 296 0078 00E0     		b	.L27
 297              	.L30:
 298 007a 0220     		movs	r0, #2
 299              	.L27:
 300 007c 04B0     		add	sp, sp, #16
ARM GAS  C:\Users\xiaofei\AppData\Local\Temp\ccUUXCeM.s 			page 6


 301              		@ sp needed
 302 007e 10BD     		pop	{r4, pc}
 304              		.section	.text.HAL_UARTEx_EnableStopMode,"ax",%progbits
 305              		.align	2
 306              		.global	HAL_UARTEx_EnableStopMode
 307              		.thumb
 308              		.thumb_func
 310              	HAL_UARTEx_EnableStopMode:
 311              		@ args = 0, pretend = 0, frame = 0
 312              		@ frame_needed = 0, uses_anonymous_args = 0
 313              		@ link register save eliminated.
 314 0000 90F87C30 		ldrb	r3, [r0, #124]	@ zero_extendqisi2
 315 0004 012B     		cmp	r3, #1
 316 0006 0CD0     		beq	.L35
 317 0008 0123     		movs	r3, #1
 318 000a 80F87C30 		strb	r3, [r0, #124]
 319 000e 0268     		ldr	r2, [r0]
 320 0010 1368     		ldr	r3, [r2]
 321 0012 43F00203 		orr	r3, r3, #2
 322 0016 1360     		str	r3, [r2]
 323 0018 0023     		movs	r3, #0
 324 001a 80F87C30 		strb	r3, [r0, #124]
 325 001e 1846     		mov	r0, r3
 326 0020 7047     		bx	lr
 327              	.L35:
 328 0022 0220     		movs	r0, #2
 329 0024 7047     		bx	lr
 331 0026 00BF     		.section	.text.HAL_UARTEx_DisableStopMode,"ax",%progbits
 332              		.align	2
 333              		.global	HAL_UARTEx_DisableStopMode
 334              		.thumb
 335              		.thumb_func
 337              	HAL_UARTEx_DisableStopMode:
 338              		@ args = 0, pretend = 0, frame = 0
 339              		@ frame_needed = 0, uses_anonymous_args = 0
 340              		@ link register save eliminated.
 341 0000 90F87C30 		ldrb	r3, [r0, #124]	@ zero_extendqisi2
 342 0004 012B     		cmp	r3, #1
 343 0006 0CD0     		beq	.L38
 344 0008 0123     		movs	r3, #1
 345 000a 80F87C30 		strb	r3, [r0, #124]
 346 000e 0268     		ldr	r2, [r0]
 347 0010 1368     		ldr	r3, [r2]
 348 0012 23F00203 		bic	r3, r3, #2
 349 0016 1360     		str	r3, [r2]
 350 0018 0023     		movs	r3, #0
 351 001a 80F87C30 		strb	r3, [r0, #124]
 352 001e 1846     		mov	r0, r3
 353 0020 7047     		bx	lr
 354              	.L38:
 355 0022 0220     		movs	r0, #2
 356 0024 7047     		bx	lr
 358 0026 00BF     		.section	.text.HAL_UARTEx_EnableFifoMode,"ax",%progbits
 359              		.align	2
 360              		.global	HAL_UARTEx_EnableFifoMode
 361              		.thumb
 362              		.thumb_func
ARM GAS  C:\Users\xiaofei\AppData\Local\Temp\ccUUXCeM.s 			page 7


 364              	HAL_UARTEx_EnableFifoMode:
 365              		@ args = 0, pretend = 0, frame = 0
 366              		@ frame_needed = 0, uses_anonymous_args = 0
 367 0000 90F87C30 		ldrb	r3, [r0, #124]	@ zero_extendqisi2
 368 0004 012B     		cmp	r3, #1
 369 0006 1DD0     		beq	.L41
 370 0008 10B5     		push	{r4, lr}
 371 000a 0446     		mov	r4, r0
 372 000c 0123     		movs	r3, #1
 373 000e 80F87C30 		strb	r3, [r0, #124]
 374 0012 2423     		movs	r3, #36
 375 0014 C0F88030 		str	r3, [r0, #128]
 376 0018 0268     		ldr	r2, [r0]
 377 001a 1368     		ldr	r3, [r2]
 378 001c 1168     		ldr	r1, [r2]
 379 001e 21F00101 		bic	r1, r1, #1
 380 0022 1160     		str	r1, [r2]
 381 0024 43F00053 		orr	r3, r3, #536870912
 382 0028 4FF00052 		mov	r2, #536870912
 383 002c 4266     		str	r2, [r0, #100]
 384 002e 0268     		ldr	r2, [r0]
 385 0030 1360     		str	r3, [r2]
 386 0032 FFF7FEFF 		bl	UARTEx_SetNbDataToProcess
 387 0036 2023     		movs	r3, #32
 388 0038 C4F88030 		str	r3, [r4, #128]
 389 003c 0020     		movs	r0, #0
 390 003e 84F87C00 		strb	r0, [r4, #124]
 391 0042 10BD     		pop	{r4, pc}
 392              	.L41:
 393 0044 0220     		movs	r0, #2
 394 0046 7047     		bx	lr
 396              		.section	.text.HAL_UARTEx_DisableFifoMode,"ax",%progbits
 397              		.align	2
 398              		.global	HAL_UARTEx_DisableFifoMode
 399              		.thumb
 400              		.thumb_func
 402              	HAL_UARTEx_DisableFifoMode:
 403              		@ args = 0, pretend = 0, frame = 0
 404              		@ frame_needed = 0, uses_anonymous_args = 0
 405              		@ link register save eliminated.
 406 0000 90F87C30 		ldrb	r3, [r0, #124]	@ zero_extendqisi2
 407 0004 012B     		cmp	r3, #1
 408 0006 18D0     		beq	.L46
 409 0008 0123     		movs	r3, #1
 410 000a 80F87C30 		strb	r3, [r0, #124]
 411 000e 2423     		movs	r3, #36
 412 0010 C0F88030 		str	r3, [r0, #128]
 413 0014 0368     		ldr	r3, [r0]
 414 0016 1A68     		ldr	r2, [r3]
 415 0018 1968     		ldr	r1, [r3]
 416 001a 21F00101 		bic	r1, r1, #1
 417 001e 1960     		str	r1, [r3]
 418 0020 22F00052 		bic	r2, r2, #536870912
 419 0024 0023     		movs	r3, #0
 420 0026 4366     		str	r3, [r0, #100]
 421 0028 0168     		ldr	r1, [r0]
 422 002a 0A60     		str	r2, [r1]
ARM GAS  C:\Users\xiaofei\AppData\Local\Temp\ccUUXCeM.s 			page 8


 423 002c 2022     		movs	r2, #32
 424 002e C0F88020 		str	r2, [r0, #128]
 425 0032 80F87C30 		strb	r3, [r0, #124]
 426 0036 1846     		mov	r0, r3
 427 0038 7047     		bx	lr
 428              	.L46:
 429 003a 0220     		movs	r0, #2
 430 003c 7047     		bx	lr
 432 003e 00BF     		.section	.text.HAL_UARTEx_SetTxFifoThreshold,"ax",%progbits
 433              		.align	2
 434              		.global	HAL_UARTEx_SetTxFifoThreshold
 435              		.thumb
 436              		.thumb_func
 438              	HAL_UARTEx_SetTxFifoThreshold:
 439              		@ args = 0, pretend = 0, frame = 0
 440              		@ frame_needed = 0, uses_anonymous_args = 0
 441 0000 38B5     		push	{r3, r4, r5, lr}
 442 0002 90F87C30 		ldrb	r3, [r0, #124]	@ zero_extendqisi2
 443 0006 012B     		cmp	r3, #1
 444 0008 1DD0     		beq	.L49
 445 000a 0446     		mov	r4, r0
 446 000c 0123     		movs	r3, #1
 447 000e 80F87C30 		strb	r3, [r0, #124]
 448 0012 2423     		movs	r3, #36
 449 0014 C0F88030 		str	r3, [r0, #128]
 450 0018 0368     		ldr	r3, [r0]
 451 001a 1D68     		ldr	r5, [r3]
 452 001c 1A68     		ldr	r2, [r3]
 453 001e 22F00102 		bic	r2, r2, #1
 454 0022 1A60     		str	r2, [r3]
 455 0024 0268     		ldr	r2, [r0]
 456 0026 9368     		ldr	r3, [r2, #8]
 457 0028 23F06043 		bic	r3, r3, #-536870912
 458 002c 1943     		orrs	r1, r1, r3
 459 002e 9160     		str	r1, [r2, #8]
 460 0030 FFF7FEFF 		bl	UARTEx_SetNbDataToProcess
 461 0034 2368     		ldr	r3, [r4]
 462 0036 1D60     		str	r5, [r3]
 463 0038 2023     		movs	r3, #32
 464 003a C4F88030 		str	r3, [r4, #128]
 465 003e 0020     		movs	r0, #0
 466 0040 84F87C00 		strb	r0, [r4, #124]
 467 0044 38BD     		pop	{r3, r4, r5, pc}
 468              	.L49:
 469 0046 0220     		movs	r0, #2
 470 0048 38BD     		pop	{r3, r4, r5, pc}
 472 004a 00BF     		.section	.text.HAL_UARTEx_SetRxFifoThreshold,"ax",%progbits
 473              		.align	2
 474              		.global	HAL_UARTEx_SetRxFifoThreshold
 475              		.thumb
 476              		.thumb_func
 478              	HAL_UARTEx_SetRxFifoThreshold:
 479              		@ args = 0, pretend = 0, frame = 0
 480              		@ frame_needed = 0, uses_anonymous_args = 0
 481 0000 38B5     		push	{r3, r4, r5, lr}
 482 0002 90F87C30 		ldrb	r3, [r0, #124]	@ zero_extendqisi2
 483 0006 012B     		cmp	r3, #1
ARM GAS  C:\Users\xiaofei\AppData\Local\Temp\ccUUXCeM.s 			page 9


 484 0008 1DD0     		beq	.L53
 485 000a 0446     		mov	r4, r0
 486 000c 0123     		movs	r3, #1
 487 000e 80F87C30 		strb	r3, [r0, #124]
 488 0012 2423     		movs	r3, #36
 489 0014 C0F88030 		str	r3, [r0, #128]
 490 0018 0368     		ldr	r3, [r0]
 491 001a 1D68     		ldr	r5, [r3]
 492 001c 1A68     		ldr	r2, [r3]
 493 001e 22F00102 		bic	r2, r2, #1
 494 0022 1A60     		str	r2, [r3]
 495 0024 0268     		ldr	r2, [r0]
 496 0026 9368     		ldr	r3, [r2, #8]
 497 0028 23F06063 		bic	r3, r3, #234881024
 498 002c 1943     		orrs	r1, r1, r3
 499 002e 9160     		str	r1, [r2, #8]
 500 0030 FFF7FEFF 		bl	UARTEx_SetNbDataToProcess
 501 0034 2368     		ldr	r3, [r4]
 502 0036 1D60     		str	r5, [r3]
 503 0038 2023     		movs	r3, #32
 504 003a C4F88030 		str	r3, [r4, #128]
 505 003e 0020     		movs	r0, #0
 506 0040 84F87C00 		strb	r0, [r4, #124]
 507 0044 38BD     		pop	{r3, r4, r5, pc}
 508              	.L53:
 509 0046 0220     		movs	r0, #2
 510 0048 38BD     		pop	{r3, r4, r5, pc}
 512 004a 00BF     		.section	.rodata
 513              		.align	2
 514              		.set	.LANCHOR0,. + 0
 515              	.LC0:
 516 0000 01       		.byte	1
 517 0001 01       		.byte	1
 518 0002 01       		.byte	1
 519 0003 03       		.byte	3
 520 0004 07       		.byte	7
 521 0005 01       		.byte	1
 522 0006 00       		.byte	0
 523 0007 00       		.byte	0
 524              	.LC1:
 525 0008 08       		.byte	8
 526 0009 04       		.byte	4
 527 000a 02       		.byte	2
 528 000b 04       		.byte	4
 529 000c 08       		.byte	8
 530 000d 01       		.byte	1
 531 000e 01       		.byte	1
 532 000f 01       		.byte	1
 533              		.ident	"GCC: (GNU Tools for ARM Embedded Processors) 5.4.1 20160919 (release) [ARM/embedded-5-bran
ARM GAS  C:\Users\xiaofei\AppData\Local\Temp\ccUUXCeM.s 			page 10

