ARM GAS  C:\Users\xiaofei\AppData\Local\Temp\ccYZB70f.s 			page 1


   1              		.syntax unified
   2              		.cpu cortex-m7
   3              		.eabi_attribute 28, 1
   4              		.fpu fpv5-d16
   5              		.eabi_attribute 20, 1
   6              		.eabi_attribute 21, 1
   7              		.eabi_attribute 23, 3
   8              		.eabi_attribute 24, 1
   9              		.eabi_attribute 25, 1
  10              		.eabi_attribute 26, 1
  11              		.eabi_attribute 30, 1
  12              		.eabi_attribute 34, 1
  13              		.eabi_attribute 18, 4
  14              		.thumb
  15              		.syntax unified
  16              		.file	"stm32h7xx_hal_dma_ex.c"
  17              		.section	.text.DMA_MultiBufferSetConfig,"ax",%progbits
  18              		.align	2
  19              		.thumb
  20              		.thumb_func
  22              	DMA_MultiBufferSetConfig:
  23              		@ args = 0, pretend = 0, frame = 0
  24              		@ frame_needed = 0, uses_anonymous_args = 0
  25              		@ link register save eliminated.
  26 0000 70B4     		push	{r4, r5, r6}
  27 0002 0468     		ldr	r4, [r0]
  28 0004 364D     		ldr	r5, .L23
  29 0006 374E     		ldr	r6, .L23+4
  30 0008 AC42     		cmp	r4, r5
  31 000a 18BF     		it	ne
  32 000c B442     		cmpne	r4, r6
  33 000e 2CD0     		beq	.L7
  34 0010 1835     		adds	r5, r5, #24
  35 0012 AC42     		cmp	r4, r5
  36 0014 2BD0     		beq	.L8
  37 0016 1835     		adds	r5, r5, #24
  38 0018 AC42     		cmp	r4, r5
  39 001a 2AD0     		beq	.L9
  40 001c 1835     		adds	r5, r5, #24
  41 001e AC42     		cmp	r4, r5
  42 0020 29D0     		beq	.L10
  43 0022 1835     		adds	r5, r5, #24
  44 0024 AC42     		cmp	r4, r5
  45 0026 28D0     		beq	.L11
  46 0028 1835     		adds	r5, r5, #24
  47 002a AC42     		cmp	r4, r5
  48 002c 27D0     		beq	.L12
  49 002e 1835     		adds	r5, r5, #24
  50 0030 AC42     		cmp	r4, r5
  51 0032 26D0     		beq	.L13
  52 0034 05F55675 		add	r5, r5, #856
  53 0038 AC42     		cmp	r4, r5
  54 003a 24D0     		beq	.L14
  55 003c 1835     		adds	r5, r5, #24
  56 003e AC42     		cmp	r4, r5
  57 0040 23D0     		beq	.L15
  58 0042 1835     		adds	r5, r5, #24
ARM GAS  C:\Users\xiaofei\AppData\Local\Temp\ccYZB70f.s 			page 2


  59 0044 AC42     		cmp	r4, r5
  60 0046 22D0     		beq	.L16
  61 0048 1835     		adds	r5, r5, #24
  62 004a AC42     		cmp	r4, r5
  63 004c 21D0     		beq	.L17
  64 004e 1835     		adds	r5, r5, #24
  65 0050 AC42     		cmp	r4, r5
  66 0052 20D0     		beq	.L18
  67 0054 1835     		adds	r5, r5, #24
  68 0056 AC42     		cmp	r4, r5
  69 0058 1FD0     		beq	.L19
  70 005a 1835     		adds	r5, r5, #24
  71 005c AC42     		cmp	r4, r5
  72 005e 1ED0     		beq	.L20
  73 0060 1835     		adds	r5, r5, #24
  74 0062 AC42     		cmp	r4, r5
  75 0064 1DD1     		bne	.L21
  76 0066 0125     		movs	r5, #1
  77 0068 1CE0     		b	.L2
  78              	.L7:
  79 006a 0125     		movs	r5, #1
  80 006c 1AE0     		b	.L2
  81              	.L8:
  82 006e 0125     		movs	r5, #1
  83 0070 18E0     		b	.L2
  84              	.L9:
  85 0072 0125     		movs	r5, #1
  86 0074 16E0     		b	.L2
  87              	.L10:
  88 0076 0125     		movs	r5, #1
  89 0078 14E0     		b	.L2
  90              	.L11:
  91 007a 0125     		movs	r5, #1
  92 007c 12E0     		b	.L2
  93              	.L12:
  94 007e 0125     		movs	r5, #1
  95 0080 10E0     		b	.L2
  96              	.L13:
  97 0082 0125     		movs	r5, #1
  98 0084 0EE0     		b	.L2
  99              	.L14:
 100 0086 0125     		movs	r5, #1
 101 0088 0CE0     		b	.L2
 102              	.L15:
 103 008a 0125     		movs	r5, #1
 104 008c 0AE0     		b	.L2
 105              	.L16:
 106 008e 0125     		movs	r5, #1
 107 0090 08E0     		b	.L2
 108              	.L17:
 109 0092 0125     		movs	r5, #1
 110 0094 06E0     		b	.L2
 111              	.L18:
 112 0096 0125     		movs	r5, #1
 113 0098 04E0     		b	.L2
 114              	.L19:
 115 009a 0125     		movs	r5, #1
ARM GAS  C:\Users\xiaofei\AppData\Local\Temp\ccYZB70f.s 			page 3


 116 009c 02E0     		b	.L2
 117              	.L20:
 118 009e 0125     		movs	r5, #1
 119 00a0 00E0     		b	.L2
 120              	.L21:
 121 00a2 0025     		movs	r5, #0
 122              	.L2:
 123 00a4 6DB1     		cbz	r5, .L3
 124 00a6 6360     		str	r3, [r4, #4]
 125 00a8 8368     		ldr	r3, [r0, #8]
 126 00aa 402B     		cmp	r3, #64
 127 00ac 04D1     		bne	.L4
 128 00ae 0368     		ldr	r3, [r0]
 129 00b0 9A60     		str	r2, [r3, #8]
 130 00b2 0368     		ldr	r3, [r0]
 131 00b4 D960     		str	r1, [r3, #12]
 132 00b6 11E0     		b	.L1
 133              	.L4:
 134 00b8 0368     		ldr	r3, [r0]
 135 00ba 9960     		str	r1, [r3, #8]
 136 00bc 0368     		ldr	r3, [r0]
 137 00be DA60     		str	r2, [r3, #12]
 138 00c0 0CE0     		b	.L1
 139              	.L3:
 140 00c2 6360     		str	r3, [r4, #4]
 141 00c4 8368     		ldr	r3, [r0, #8]
 142 00c6 402B     		cmp	r3, #64
 143 00c8 04D1     		bne	.L6
 144 00ca 0368     		ldr	r3, [r0]
 145 00cc 9A60     		str	r2, [r3, #8]
 146 00ce 0368     		ldr	r3, [r0]
 147 00d0 D960     		str	r1, [r3, #12]
 148 00d2 03E0     		b	.L1
 149              	.L6:
 150 00d4 0368     		ldr	r3, [r0]
 151 00d6 9960     		str	r1, [r3, #8]
 152 00d8 0368     		ldr	r3, [r0]
 153 00da DA60     		str	r2, [r3, #12]
 154              	.L1:
 155 00dc 70BC     		pop	{r4, r5, r6}
 156 00de 7047     		bx	lr
 157              	.L24:
 158              		.align	2
 159              	.L23:
 160 00e0 28000240 		.word	1073872936
 161 00e4 10000240 		.word	1073872912
 163              		.section	.text.HAL_DMAEx_MultiBufferStart,"ax",%progbits
 164              		.align	2
 165              		.global	HAL_DMAEx_MultiBufferStart
 166              		.thumb
 167              		.thumb_func
 169              	HAL_DMAEx_MultiBufferStart:
 170              		@ args = 4, pretend = 0, frame = 0
 171              		@ frame_needed = 0, uses_anonymous_args = 0
 172 0000 70B5     		push	{r4, r5, r6, lr}
 173 0002 8468     		ldr	r4, [r0, #8]
 174 0004 802C     		cmp	r4, #128
ARM GAS  C:\Users\xiaofei\AppData\Local\Temp\ccYZB70f.s 			page 4


 175 0006 04D1     		bne	.L26
 176 0008 4FF48073 		mov	r3, #256
 177 000c 4365     		str	r3, [r0, #84]
 178 000e 0120     		movs	r0, #1
 179 0010 70BD     		pop	{r4, r5, r6, pc}
 180              	.L26:
 181 0012 90F83440 		ldrb	r4, [r0, #52]	@ zero_extendqisi2
 182 0016 012C     		cmp	r4, #1
 183 0018 00F04581 		beq	.L36
 184 001c 0124     		movs	r4, #1
 185 001e 80F83440 		strb	r4, [r0, #52]
 186 0022 90F83540 		ldrb	r4, [r0, #53]	@ zero_extendqisi2
 187 0026 E4B2     		uxtb	r4, r4
 188 0028 012C     		cmp	r4, #1
 189 002a 40F03781 		bne	.L28
 190 002e 0224     		movs	r4, #2
 191 0030 80F83540 		strb	r4, [r0, #53]
 192 0034 0024     		movs	r4, #0
 193 0036 4465     		str	r4, [r0, #84]
 194 0038 0468     		ldr	r4, [r0]
 195 003a 9C4D     		ldr	r5, .L76
 196 003c 9C4E     		ldr	r6, .L76+4
 197 003e AC42     		cmp	r4, r5
 198 0040 18BF     		it	ne
 199 0042 B442     		cmpne	r4, r6
 200 0044 2CD0     		beq	.L37
 201 0046 1835     		adds	r5, r5, #24
 202 0048 AC42     		cmp	r4, r5
 203 004a 2BD0     		beq	.L38
 204 004c 1835     		adds	r5, r5, #24
 205 004e AC42     		cmp	r4, r5
 206 0050 2AD0     		beq	.L39
 207 0052 1835     		adds	r5, r5, #24
 208 0054 AC42     		cmp	r4, r5
 209 0056 29D0     		beq	.L40
 210 0058 1835     		adds	r5, r5, #24
 211 005a AC42     		cmp	r4, r5
 212 005c 28D0     		beq	.L41
 213 005e 1835     		adds	r5, r5, #24
 214 0060 AC42     		cmp	r4, r5
 215 0062 27D0     		beq	.L42
 216 0064 1835     		adds	r5, r5, #24
 217 0066 AC42     		cmp	r4, r5
 218 0068 26D0     		beq	.L43
 219 006a 05F55675 		add	r5, r5, #856
 220 006e AC42     		cmp	r4, r5
 221 0070 24D0     		beq	.L44
 222 0072 1835     		adds	r5, r5, #24
 223 0074 AC42     		cmp	r4, r5
 224 0076 23D0     		beq	.L45
 225 0078 1835     		adds	r5, r5, #24
 226 007a AC42     		cmp	r4, r5
 227 007c 22D0     		beq	.L46
 228 007e 1835     		adds	r5, r5, #24
 229 0080 AC42     		cmp	r4, r5
 230 0082 21D0     		beq	.L47
 231 0084 1835     		adds	r5, r5, #24
ARM GAS  C:\Users\xiaofei\AppData\Local\Temp\ccYZB70f.s 			page 5


 232 0086 AC42     		cmp	r4, r5
 233 0088 20D0     		beq	.L48
 234 008a 1835     		adds	r5, r5, #24
 235 008c AC42     		cmp	r4, r5
 236 008e 1FD0     		beq	.L49
 237 0090 1835     		adds	r5, r5, #24
 238 0092 AC42     		cmp	r4, r5
 239 0094 1ED0     		beq	.L50
 240 0096 1835     		adds	r5, r5, #24
 241 0098 AC42     		cmp	r4, r5
 242 009a 1DD1     		bne	.L51
 243 009c 0125     		movs	r5, #1
 244 009e 1CE0     		b	.L29
 245              	.L37:
 246 00a0 0125     		movs	r5, #1
 247 00a2 1AE0     		b	.L29
 248              	.L38:
 249 00a4 0125     		movs	r5, #1
 250 00a6 18E0     		b	.L29
 251              	.L39:
 252 00a8 0125     		movs	r5, #1
 253 00aa 16E0     		b	.L29
 254              	.L40:
 255 00ac 0125     		movs	r5, #1
 256 00ae 14E0     		b	.L29
 257              	.L41:
 258 00b0 0125     		movs	r5, #1
 259 00b2 12E0     		b	.L29
 260              	.L42:
 261 00b4 0125     		movs	r5, #1
 262 00b6 10E0     		b	.L29
 263              	.L43:
 264 00b8 0125     		movs	r5, #1
 265 00ba 0EE0     		b	.L29
 266              	.L44:
 267 00bc 0125     		movs	r5, #1
 268 00be 0CE0     		b	.L29
 269              	.L45:
 270 00c0 0125     		movs	r5, #1
 271 00c2 0AE0     		b	.L29
 272              	.L46:
 273 00c4 0125     		movs	r5, #1
 274 00c6 08E0     		b	.L29
 275              	.L47:
 276 00c8 0125     		movs	r5, #1
 277 00ca 06E0     		b	.L29
 278              	.L48:
 279 00cc 0125     		movs	r5, #1
 280 00ce 04E0     		b	.L29
 281              	.L49:
 282 00d0 0125     		movs	r5, #1
 283 00d2 02E0     		b	.L29
 284              	.L50:
 285 00d4 0125     		movs	r5, #1
 286 00d6 00E0     		b	.L29
 287              	.L51:
 288 00d8 0025     		movs	r5, #0
ARM GAS  C:\Users\xiaofei\AppData\Local\Temp\ccYZB70f.s 			page 6


 289              	.L29:
 290 00da 6DB1     		cbz	r5, .L30
 291 00dc 2568     		ldr	r5, [r4]
 292 00de 45F48025 		orr	r5, r5, #262144
 293 00e2 2560     		str	r5, [r4]
 294 00e4 0468     		ldr	r4, [r0]
 295 00e6 2361     		str	r3, [r4, #16]
 296 00e8 856D     		ldr	r5, [r0, #88]
 297 00ea C36D     		ldr	r3, [r0, #92]
 298 00ec 03F01F04 		and	r4, r3, #31
 299 00f0 3F23     		movs	r3, #63
 300 00f2 A340     		lsls	r3, r3, r4
 301 00f4 AB60     		str	r3, [r5, #8]
 302 00f6 0DE0     		b	.L31
 303              	.L30:
 304 00f8 2668     		ldr	r6, [r4]
 305 00fa 48F22005 		movw	r5, #32800
 306 00fe 3543     		orrs	r5, r5, r6
 307 0100 2560     		str	r5, [r4]
 308 0102 0468     		ldr	r4, [r0]
 309 0104 2361     		str	r3, [r4, #16]
 310 0106 856D     		ldr	r5, [r0, #88]
 311 0108 C36D     		ldr	r3, [r0, #92]
 312 010a 03F01F04 		and	r4, r3, #31
 313 010e 0123     		movs	r3, #1
 314 0110 A340     		lsls	r3, r3, r4
 315 0112 6B60     		str	r3, [r5, #4]
 316              	.L31:
 317 0114 0368     		ldr	r3, [r0]
 318 0116 654C     		ldr	r4, .L76
 319 0118 654D     		ldr	r5, .L76+4
 320 011a A342     		cmp	r3, r4
 321 011c 18BF     		it	ne
 322 011e AB42     		cmpne	r3, r5
 323 0120 44D0     		beq	.L52
 324 0122 1834     		adds	r4, r4, #24
 325 0124 A342     		cmp	r3, r4
 326 0126 43D0     		beq	.L53
 327 0128 1834     		adds	r4, r4, #24
 328 012a A342     		cmp	r3, r4
 329 012c 42D0     		beq	.L54
 330 012e 1834     		adds	r4, r4, #24
 331 0130 A342     		cmp	r3, r4
 332 0132 41D0     		beq	.L55
 333 0134 1834     		adds	r4, r4, #24
 334 0136 A342     		cmp	r3, r4
 335 0138 40D0     		beq	.L56
 336 013a 1834     		adds	r4, r4, #24
 337 013c A342     		cmp	r3, r4
 338 013e 3FD0     		beq	.L57
 339 0140 1834     		adds	r4, r4, #24
 340 0142 A342     		cmp	r3, r4
 341 0144 3ED0     		beq	.L58
 342 0146 04F55674 		add	r4, r4, #856
 343 014a A342     		cmp	r3, r4
 344 014c 3CD0     		beq	.L59
 345 014e 1834     		adds	r4, r4, #24
ARM GAS  C:\Users\xiaofei\AppData\Local\Temp\ccYZB70f.s 			page 7


 346 0150 A342     		cmp	r3, r4
 347 0152 3BD0     		beq	.L60
 348 0154 1834     		adds	r4, r4, #24
 349 0156 A342     		cmp	r3, r4
 350 0158 3AD0     		beq	.L61
 351 015a 1834     		adds	r4, r4, #24
 352 015c A342     		cmp	r3, r4
 353 015e 39D0     		beq	.L62
 354 0160 1834     		adds	r4, r4, #24
 355 0162 A342     		cmp	r3, r4
 356 0164 38D0     		beq	.L63
 357 0166 1834     		adds	r4, r4, #24
 358 0168 A342     		cmp	r3, r4
 359 016a 37D0     		beq	.L64
 360 016c 1834     		adds	r4, r4, #24
 361 016e A342     		cmp	r3, r4
 362 0170 36D0     		beq	.L65
 363 0172 1834     		adds	r4, r4, #24
 364 0174 A342     		cmp	r3, r4
 365 0176 35D0     		beq	.L66
 366 0178 4E4C     		ldr	r4, .L76+8
 367 017a A342     		cmp	r3, r4
 368 017c 34D0     		beq	.L67
 369 017e 1434     		adds	r4, r4, #20
 370 0180 A342     		cmp	r3, r4
 371 0182 33D0     		beq	.L68
 372 0184 1434     		adds	r4, r4, #20
 373 0186 A342     		cmp	r3, r4
 374 0188 32D0     		beq	.L69
 375 018a 1434     		adds	r4, r4, #20
 376 018c A342     		cmp	r3, r4
 377 018e 31D0     		beq	.L70
 378 0190 1434     		adds	r4, r4, #20
 379 0192 A342     		cmp	r3, r4
 380 0194 30D0     		beq	.L71
 381 0196 1434     		adds	r4, r4, #20
 382 0198 A342     		cmp	r3, r4
 383 019a 2FD0     		beq	.L72
 384 019c 1434     		adds	r4, r4, #20
 385 019e A342     		cmp	r3, r4
 386 01a0 2ED0     		beq	.L73
 387 01a2 1434     		adds	r4, r4, #20
 388 01a4 A342     		cmp	r3, r4
 389 01a6 2DD1     		bne	.L74
 390 01a8 0123     		movs	r3, #1
 391 01aa 2CE0     		b	.L32
 392              	.L52:
 393 01ac 0123     		movs	r3, #1
 394 01ae 2AE0     		b	.L32
 395              	.L53:
 396 01b0 0123     		movs	r3, #1
 397 01b2 28E0     		b	.L32
 398              	.L54:
 399 01b4 0123     		movs	r3, #1
 400 01b6 26E0     		b	.L32
 401              	.L55:
 402 01b8 0123     		movs	r3, #1
ARM GAS  C:\Users\xiaofei\AppData\Local\Temp\ccYZB70f.s 			page 8


 403 01ba 24E0     		b	.L32
 404              	.L56:
 405 01bc 0123     		movs	r3, #1
 406 01be 22E0     		b	.L32
 407              	.L57:
 408 01c0 0123     		movs	r3, #1
 409 01c2 20E0     		b	.L32
 410              	.L58:
 411 01c4 0123     		movs	r3, #1
 412 01c6 1EE0     		b	.L32
 413              	.L59:
 414 01c8 0123     		movs	r3, #1
 415 01ca 1CE0     		b	.L32
 416              	.L60:
 417 01cc 0123     		movs	r3, #1
 418 01ce 1AE0     		b	.L32
 419              	.L61:
 420 01d0 0123     		movs	r3, #1
 421 01d2 18E0     		b	.L32
 422              	.L62:
 423 01d4 0123     		movs	r3, #1
 424 01d6 16E0     		b	.L32
 425              	.L63:
 426 01d8 0123     		movs	r3, #1
 427 01da 14E0     		b	.L32
 428              	.L64:
 429 01dc 0123     		movs	r3, #1
 430 01de 12E0     		b	.L32
 431              	.L65:
 432 01e0 0123     		movs	r3, #1
 433 01e2 10E0     		b	.L32
 434              	.L66:
 435 01e4 0123     		movs	r3, #1
 436 01e6 0EE0     		b	.L32
 437              	.L67:
 438 01e8 0123     		movs	r3, #1
 439 01ea 0CE0     		b	.L32
 440              	.L68:
 441 01ec 0123     		movs	r3, #1
 442 01ee 0AE0     		b	.L32
 443              	.L69:
 444 01f0 0123     		movs	r3, #1
 445 01f2 08E0     		b	.L32
 446              	.L70:
 447 01f4 0123     		movs	r3, #1
 448 01f6 06E0     		b	.L32
 449              	.L71:
 450 01f8 0123     		movs	r3, #1
 451 01fa 04E0     		b	.L32
 452              	.L72:
 453 01fc 0123     		movs	r3, #1
 454 01fe 02E0     		b	.L32
 455              	.L73:
 456 0200 0123     		movs	r3, #1
 457 0202 00E0     		b	.L32
 458              	.L74:
 459 0204 0023     		movs	r3, #0
ARM GAS  C:\Users\xiaofei\AppData\Local\Temp\ccYZB70f.s 			page 9


 460              	.L32:
 461 0206 0446     		mov	r4, r0
 462 0208 53B1     		cbz	r3, .L33
 463 020a 049B     		ldr	r3, [sp, #16]
 464 020c FFF7FEFF 		bl	DMA_MultiBufferSetConfig
 465 0210 636E     		ldr	r3, [r4, #100]
 466 0212 A26E     		ldr	r2, [r4, #104]
 467 0214 5A60     		str	r2, [r3, #4]
 468 0216 E36E     		ldr	r3, [r4, #108]
 469 0218 13B1     		cbz	r3, .L33
 470 021a 236F     		ldr	r3, [r4, #112]
 471 021c 626F     		ldr	r2, [r4, #116]
 472 021e 5A60     		str	r2, [r3, #4]
 473              	.L33:
 474 0220 2368     		ldr	r3, [r4]
 475 0222 224A     		ldr	r2, .L76
 476 0224 2249     		ldr	r1, .L76+4
 477 0226 9342     		cmp	r3, r2
 478 0228 18BF     		it	ne
 479 022a 8B42     		cmpne	r3, r1
 480 022c 2AD0     		beq	.L34
 481 022e 1832     		adds	r2, r2, #24
 482 0230 9342     		cmp	r3, r2
 483 0232 27D0     		beq	.L34
 484 0234 1832     		adds	r2, r2, #24
 485 0236 9342     		cmp	r3, r2
 486 0238 24D0     		beq	.L34
 487 023a 1832     		adds	r2, r2, #24
 488 023c 9342     		cmp	r3, r2
 489 023e 21D0     		beq	.L34
 490 0240 1832     		adds	r2, r2, #24
 491 0242 9342     		cmp	r3, r2
 492 0244 1ED0     		beq	.L34
 493 0246 1832     		adds	r2, r2, #24
 494 0248 9342     		cmp	r3, r2
 495 024a 1BD0     		beq	.L34
 496 024c 1832     		adds	r2, r2, #24
 497 024e 9342     		cmp	r3, r2
 498 0250 18D0     		beq	.L34
 499 0252 02F55672 		add	r2, r2, #856
 500 0256 9342     		cmp	r3, r2
 501 0258 14D0     		beq	.L34
 502 025a 1832     		adds	r2, r2, #24
 503 025c 9342     		cmp	r3, r2
 504 025e 11D0     		beq	.L34
 505 0260 1832     		adds	r2, r2, #24
 506 0262 9342     		cmp	r3, r2
 507 0264 0ED0     		beq	.L34
 508 0266 1832     		adds	r2, r2, #24
 509 0268 9342     		cmp	r3, r2
 510 026a 0BD0     		beq	.L34
 511 026c 1832     		adds	r2, r2, #24
 512 026e 9342     		cmp	r3, r2
 513 0270 08D0     		beq	.L34
 514 0272 1832     		adds	r2, r2, #24
 515 0274 9342     		cmp	r3, r2
 516 0276 05D0     		beq	.L34
ARM GAS  C:\Users\xiaofei\AppData\Local\Temp\ccYZB70f.s 			page 10


 517 0278 1832     		adds	r2, r2, #24
 518 027a 9342     		cmp	r3, r2
 519 027c 02D0     		beq	.L34
 520 027e 1832     		adds	r2, r2, #24
 521 0280 9342     		cmp	r3, r2
 522 0282 05D1     		bne	.L35
 523              	.L34:
 524 0284 1A68     		ldr	r2, [r3]
 525 0286 42F00102 		orr	r2, r2, #1
 526 028a 1A60     		str	r2, [r3]
 527 028c 0020     		movs	r0, #0
 528 028e 70BD     		pop	{r4, r5, r6, pc}
 529              	.L35:
 530 0290 1A68     		ldr	r2, [r3]
 531 0292 42F00102 		orr	r2, r2, #1
 532 0296 1A60     		str	r2, [r3]
 533 0298 0020     		movs	r0, #0
 534 029a 70BD     		pop	{r4, r5, r6, pc}
 535              	.L28:
 536 029c 4FF40063 		mov	r3, #2048
 537 02a0 4365     		str	r3, [r0, #84]
 538 02a2 0120     		movs	r0, #1
 539 02a4 70BD     		pop	{r4, r5, r6, pc}
 540              	.L36:
 541 02a6 0220     		movs	r0, #2
 542 02a8 70BD     		pop	{r4, r5, r6, pc}
 543              	.L77:
 544 02aa 00BF     		.align	2
 545              	.L76:
 546 02ac 28000240 		.word	1073872936
 547 02b0 10000240 		.word	1073872912
 548 02b4 08540258 		.word	1476547592
 550              		.section	.text.HAL_DMAEx_MultiBufferStart_IT,"ax",%progbits
 551              		.align	2
 552              		.global	HAL_DMAEx_MultiBufferStart_IT
 553              		.thumb
 554              		.thumb_func
 556              	HAL_DMAEx_MultiBufferStart_IT:
 557              		@ args = 4, pretend = 0, frame = 0
 558              		@ frame_needed = 0, uses_anonymous_args = 0
 559 0000 70B5     		push	{r4, r5, r6, lr}
 560 0002 8468     		ldr	r4, [r0, #8]
 561 0004 802C     		cmp	r4, #128
 562 0006 04D1     		bne	.L79
 563 0008 4FF48073 		mov	r3, #256
 564 000c 4365     		str	r3, [r0, #84]
 565 000e 0120     		movs	r0, #1
 566 0010 70BD     		pop	{r4, r5, r6, pc}
 567              	.L79:
 568 0012 90F83440 		ldrb	r4, [r0, #52]	@ zero_extendqisi2
 569 0016 012C     		cmp	r4, #1
 570 0018 00F04A82 		beq	.L97
 571 001c 0124     		movs	r4, #1
 572 001e 80F83440 		strb	r4, [r0, #52]
 573 0022 90F83540 		ldrb	r4, [r0, #53]	@ zero_extendqisi2
 574 0026 E4B2     		uxtb	r4, r4
 575 0028 012C     		cmp	r4, #1
ARM GAS  C:\Users\xiaofei\AppData\Local\Temp\ccYZB70f.s 			page 11


 576 002a 40F03C82 		bne	.L81
 577 002e 0224     		movs	r4, #2
 578 0030 80F83540 		strb	r4, [r0, #53]
 579 0034 0024     		movs	r4, #0
 580 0036 4465     		str	r4, [r0, #84]
 581 0038 0468     		ldr	r4, [r0]
 582 003a A14D     		ldr	r5, .L175
 583 003c A14E     		ldr	r6, .L175+4
 584 003e AC42     		cmp	r4, r5
 585 0040 18BF     		it	ne
 586 0042 B442     		cmpne	r4, r6
 587 0044 2CD0     		beq	.L98
 588 0046 1835     		adds	r5, r5, #24
 589 0048 AC42     		cmp	r4, r5
 590 004a 2BD0     		beq	.L99
 591 004c 1835     		adds	r5, r5, #24
 592 004e AC42     		cmp	r4, r5
 593 0050 2AD0     		beq	.L100
 594 0052 1835     		adds	r5, r5, #24
 595 0054 AC42     		cmp	r4, r5
 596 0056 29D0     		beq	.L101
 597 0058 1835     		adds	r5, r5, #24
 598 005a AC42     		cmp	r4, r5
 599 005c 28D0     		beq	.L102
 600 005e 1835     		adds	r5, r5, #24
 601 0060 AC42     		cmp	r4, r5
 602 0062 27D0     		beq	.L103
 603 0064 1835     		adds	r5, r5, #24
 604 0066 AC42     		cmp	r4, r5
 605 0068 26D0     		beq	.L104
 606 006a 05F55675 		add	r5, r5, #856
 607 006e AC42     		cmp	r4, r5
 608 0070 24D0     		beq	.L105
 609 0072 1835     		adds	r5, r5, #24
 610 0074 AC42     		cmp	r4, r5
 611 0076 23D0     		beq	.L106
 612 0078 1835     		adds	r5, r5, #24
 613 007a AC42     		cmp	r4, r5
 614 007c 22D0     		beq	.L107
 615 007e 1835     		adds	r5, r5, #24
 616 0080 AC42     		cmp	r4, r5
 617 0082 21D0     		beq	.L108
 618 0084 1835     		adds	r5, r5, #24
 619 0086 AC42     		cmp	r4, r5
 620 0088 20D0     		beq	.L109
 621 008a 1835     		adds	r5, r5, #24
 622 008c AC42     		cmp	r4, r5
 623 008e 1FD0     		beq	.L110
 624 0090 1835     		adds	r5, r5, #24
 625 0092 AC42     		cmp	r4, r5
 626 0094 1ED0     		beq	.L111
 627 0096 1835     		adds	r5, r5, #24
 628 0098 AC42     		cmp	r4, r5
 629 009a 1DD1     		bne	.L112
 630 009c 0125     		movs	r5, #1
 631 009e 1CE0     		b	.L82
 632              	.L98:
ARM GAS  C:\Users\xiaofei\AppData\Local\Temp\ccYZB70f.s 			page 12


 633 00a0 0125     		movs	r5, #1
 634 00a2 1AE0     		b	.L82
 635              	.L99:
 636 00a4 0125     		movs	r5, #1
 637 00a6 18E0     		b	.L82
 638              	.L100:
 639 00a8 0125     		movs	r5, #1
 640 00aa 16E0     		b	.L82
 641              	.L101:
 642 00ac 0125     		movs	r5, #1
 643 00ae 14E0     		b	.L82
 644              	.L102:
 645 00b0 0125     		movs	r5, #1
 646 00b2 12E0     		b	.L82
 647              	.L103:
 648 00b4 0125     		movs	r5, #1
 649 00b6 10E0     		b	.L82
 650              	.L104:
 651 00b8 0125     		movs	r5, #1
 652 00ba 0EE0     		b	.L82
 653              	.L105:
 654 00bc 0125     		movs	r5, #1
 655 00be 0CE0     		b	.L82
 656              	.L106:
 657 00c0 0125     		movs	r5, #1
 658 00c2 0AE0     		b	.L82
 659              	.L107:
 660 00c4 0125     		movs	r5, #1
 661 00c6 08E0     		b	.L82
 662              	.L108:
 663 00c8 0125     		movs	r5, #1
 664 00ca 06E0     		b	.L82
 665              	.L109:
 666 00cc 0125     		movs	r5, #1
 667 00ce 04E0     		b	.L82
 668              	.L110:
 669 00d0 0125     		movs	r5, #1
 670 00d2 02E0     		b	.L82
 671              	.L111:
 672 00d4 0125     		movs	r5, #1
 673 00d6 00E0     		b	.L82
 674              	.L112:
 675 00d8 0025     		movs	r5, #0
 676              	.L82:
 677 00da 6DB1     		cbz	r5, .L83
 678 00dc 2568     		ldr	r5, [r4]
 679 00de 45F48025 		orr	r5, r5, #262144
 680 00e2 2560     		str	r5, [r4]
 681 00e4 0468     		ldr	r4, [r0]
 682 00e6 2361     		str	r3, [r4, #16]
 683 00e8 856D     		ldr	r5, [r0, #88]
 684 00ea C36D     		ldr	r3, [r0, #92]
 685 00ec 03F01F04 		and	r4, r3, #31
 686 00f0 3F23     		movs	r3, #63
 687 00f2 A340     		lsls	r3, r3, r4
 688 00f4 AB60     		str	r3, [r5, #8]
 689 00f6 0DE0     		b	.L84
ARM GAS  C:\Users\xiaofei\AppData\Local\Temp\ccYZB70f.s 			page 13


 690              	.L83:
 691 00f8 2668     		ldr	r6, [r4]
 692 00fa 48F22005 		movw	r5, #32800
 693 00fe 3543     		orrs	r5, r5, r6
 694 0100 2560     		str	r5, [r4]
 695 0102 0468     		ldr	r4, [r0]
 696 0104 2361     		str	r3, [r4, #16]
 697 0106 856D     		ldr	r5, [r0, #88]
 698 0108 C36D     		ldr	r3, [r0, #92]
 699 010a 03F01F04 		and	r4, r3, #31
 700 010e 0123     		movs	r3, #1
 701 0110 A340     		lsls	r3, r3, r4
 702 0112 6B60     		str	r3, [r5, #4]
 703              	.L84:
 704 0114 0446     		mov	r4, r0
 705 0116 049B     		ldr	r3, [sp, #16]
 706 0118 FFF7FEFF 		bl	DMA_MultiBufferSetConfig
 707 011c 2368     		ldr	r3, [r4]
 708 011e 684A     		ldr	r2, .L175
 709 0120 6849     		ldr	r1, .L175+4
 710 0122 9342     		cmp	r3, r2
 711 0124 18BF     		it	ne
 712 0126 8B42     		cmpne	r3, r1
 713 0128 44D0     		beq	.L113
 714 012a 1832     		adds	r2, r2, #24
 715 012c 9342     		cmp	r3, r2
 716 012e 43D0     		beq	.L114
 717 0130 1832     		adds	r2, r2, #24
 718 0132 9342     		cmp	r3, r2
 719 0134 42D0     		beq	.L115
 720 0136 1832     		adds	r2, r2, #24
 721 0138 9342     		cmp	r3, r2
 722 013a 41D0     		beq	.L116
 723 013c 1832     		adds	r2, r2, #24
 724 013e 9342     		cmp	r3, r2
 725 0140 40D0     		beq	.L117
 726 0142 1832     		adds	r2, r2, #24
 727 0144 9342     		cmp	r3, r2
 728 0146 3FD0     		beq	.L118
 729 0148 1832     		adds	r2, r2, #24
 730 014a 9342     		cmp	r3, r2
 731 014c 3ED0     		beq	.L119
 732 014e 02F55672 		add	r2, r2, #856
 733 0152 9342     		cmp	r3, r2
 734 0154 3CD0     		beq	.L120
 735 0156 1832     		adds	r2, r2, #24
 736 0158 9342     		cmp	r3, r2
 737 015a 3BD0     		beq	.L121
 738 015c 1832     		adds	r2, r2, #24
 739 015e 9342     		cmp	r3, r2
 740 0160 3AD0     		beq	.L122
 741 0162 1832     		adds	r2, r2, #24
 742 0164 9342     		cmp	r3, r2
 743 0166 39D0     		beq	.L123
 744 0168 1832     		adds	r2, r2, #24
 745 016a 9342     		cmp	r3, r2
 746 016c 38D0     		beq	.L124
ARM GAS  C:\Users\xiaofei\AppData\Local\Temp\ccYZB70f.s 			page 14


 747 016e 1832     		adds	r2, r2, #24
 748 0170 9342     		cmp	r3, r2
 749 0172 37D0     		beq	.L125
 750 0174 1832     		adds	r2, r2, #24
 751 0176 9342     		cmp	r3, r2
 752 0178 36D0     		beq	.L126
 753 017a 1832     		adds	r2, r2, #24
 754 017c 9342     		cmp	r3, r2
 755 017e 35D0     		beq	.L127
 756 0180 514A     		ldr	r2, .L175+8
 757 0182 9342     		cmp	r3, r2
 758 0184 34D0     		beq	.L128
 759 0186 1432     		adds	r2, r2, #20
 760 0188 9342     		cmp	r3, r2
 761 018a 33D0     		beq	.L129
 762 018c 1432     		adds	r2, r2, #20
 763 018e 9342     		cmp	r3, r2
 764 0190 32D0     		beq	.L130
 765 0192 1432     		adds	r2, r2, #20
 766 0194 9342     		cmp	r3, r2
 767 0196 31D0     		beq	.L131
 768 0198 1432     		adds	r2, r2, #20
 769 019a 9342     		cmp	r3, r2
 770 019c 30D0     		beq	.L132
 771 019e 1432     		adds	r2, r2, #20
 772 01a0 9342     		cmp	r3, r2
 773 01a2 2FD0     		beq	.L133
 774 01a4 1432     		adds	r2, r2, #20
 775 01a6 9342     		cmp	r3, r2
 776 01a8 2ED0     		beq	.L134
 777 01aa 1432     		adds	r2, r2, #20
 778 01ac 9342     		cmp	r3, r2
 779 01ae 2DD1     		bne	.L135
 780 01b0 0123     		movs	r3, #1
 781 01b2 2CE0     		b	.L85
 782              	.L113:
 783 01b4 0123     		movs	r3, #1
 784 01b6 2AE0     		b	.L85
 785              	.L114:
 786 01b8 0123     		movs	r3, #1
 787 01ba 28E0     		b	.L85
 788              	.L115:
 789 01bc 0123     		movs	r3, #1
 790 01be 26E0     		b	.L85
 791              	.L116:
 792 01c0 0123     		movs	r3, #1
 793 01c2 24E0     		b	.L85
 794              	.L117:
 795 01c4 0123     		movs	r3, #1
 796 01c6 22E0     		b	.L85
 797              	.L118:
 798 01c8 0123     		movs	r3, #1
 799 01ca 20E0     		b	.L85
 800              	.L119:
 801 01cc 0123     		movs	r3, #1
 802 01ce 1EE0     		b	.L85
 803              	.L120:
ARM GAS  C:\Users\xiaofei\AppData\Local\Temp\ccYZB70f.s 			page 15


 804 01d0 0123     		movs	r3, #1
 805 01d2 1CE0     		b	.L85
 806              	.L121:
 807 01d4 0123     		movs	r3, #1
 808 01d6 1AE0     		b	.L85
 809              	.L122:
 810 01d8 0123     		movs	r3, #1
 811 01da 18E0     		b	.L85
 812              	.L123:
 813 01dc 0123     		movs	r3, #1
 814 01de 16E0     		b	.L85
 815              	.L124:
 816 01e0 0123     		movs	r3, #1
 817 01e2 14E0     		b	.L85
 818              	.L125:
 819 01e4 0123     		movs	r3, #1
 820 01e6 12E0     		b	.L85
 821              	.L126:
 822 01e8 0123     		movs	r3, #1
 823 01ea 10E0     		b	.L85
 824              	.L127:
 825 01ec 0123     		movs	r3, #1
 826 01ee 0EE0     		b	.L85
 827              	.L128:
 828 01f0 0123     		movs	r3, #1
 829 01f2 0CE0     		b	.L85
 830              	.L129:
 831 01f4 0123     		movs	r3, #1
 832 01f6 0AE0     		b	.L85
 833              	.L130:
 834 01f8 0123     		movs	r3, #1
 835 01fa 08E0     		b	.L85
 836              	.L131:
 837 01fc 0123     		movs	r3, #1
 838 01fe 06E0     		b	.L85
 839              	.L132:
 840 0200 0123     		movs	r3, #1
 841 0202 04E0     		b	.L85
 842              	.L133:
 843 0204 0123     		movs	r3, #1
 844 0206 02E0     		b	.L85
 845              	.L134:
 846 0208 0123     		movs	r3, #1
 847 020a 00E0     		b	.L85
 848              	.L135:
 849 020c 0023     		movs	r3, #0
 850              	.L85:
 851 020e 3BB1     		cbz	r3, .L86
 852 0210 636E     		ldr	r3, [r4, #100]
 853 0212 A26E     		ldr	r2, [r4, #104]
 854 0214 5A60     		str	r2, [r3, #4]
 855 0216 E36E     		ldr	r3, [r4, #108]
 856 0218 13B1     		cbz	r3, .L86
 857 021a 236F     		ldr	r3, [r4, #112]
 858 021c 626F     		ldr	r2, [r4, #116]
 859 021e 5A60     		str	r2, [r3, #4]
 860              	.L86:
ARM GAS  C:\Users\xiaofei\AppData\Local\Temp\ccYZB70f.s 			page 16


 861 0220 2368     		ldr	r3, [r4]
 862 0222 274A     		ldr	r2, .L175
 863 0224 2749     		ldr	r1, .L175+4
 864 0226 9342     		cmp	r3, r2
 865 0228 18BF     		it	ne
 866 022a 8B42     		cmpne	r3, r1
 867 022c 2CD0     		beq	.L136
 868 022e 1832     		adds	r2, r2, #24
 869 0230 9342     		cmp	r3, r2
 870 0232 2BD0     		beq	.L137
 871 0234 1832     		adds	r2, r2, #24
 872 0236 9342     		cmp	r3, r2
 873 0238 2AD0     		beq	.L138
 874 023a 1832     		adds	r2, r2, #24
 875 023c 9342     		cmp	r3, r2
 876 023e 29D0     		beq	.L139
 877 0240 1832     		adds	r2, r2, #24
 878 0242 9342     		cmp	r3, r2
 879 0244 28D0     		beq	.L140
 880 0246 1832     		adds	r2, r2, #24
 881 0248 9342     		cmp	r3, r2
 882 024a 27D0     		beq	.L141
 883 024c 1832     		adds	r2, r2, #24
 884 024e 9342     		cmp	r3, r2
 885 0250 26D0     		beq	.L142
 886 0252 02F55672 		add	r2, r2, #856
 887 0256 9342     		cmp	r3, r2
 888 0258 24D0     		beq	.L143
 889 025a 1832     		adds	r2, r2, #24
 890 025c 9342     		cmp	r3, r2
 891 025e 23D0     		beq	.L144
 892 0260 1832     		adds	r2, r2, #24
 893 0262 9342     		cmp	r3, r2
 894 0264 22D0     		beq	.L145
 895 0266 1832     		adds	r2, r2, #24
 896 0268 9342     		cmp	r3, r2
 897 026a 21D0     		beq	.L146
 898 026c 1832     		adds	r2, r2, #24
 899 026e 9342     		cmp	r3, r2
 900 0270 20D0     		beq	.L147
 901 0272 1832     		adds	r2, r2, #24
 902 0274 9342     		cmp	r3, r2
 903 0276 1FD0     		beq	.L148
 904 0278 1832     		adds	r2, r2, #24
 905 027a 9342     		cmp	r3, r2
 906 027c 1ED0     		beq	.L149
 907 027e 1832     		adds	r2, r2, #24
 908 0280 9342     		cmp	r3, r2
 909 0282 23D1     		bne	.L150
 910 0284 0122     		movs	r2, #1
 911 0286 22E0     		b	.L87
 912              	.L136:
 913 0288 0122     		movs	r2, #1
 914 028a 20E0     		b	.L87
 915              	.L137:
 916 028c 0122     		movs	r2, #1
 917 028e 1EE0     		b	.L87
ARM GAS  C:\Users\xiaofei\AppData\Local\Temp\ccYZB70f.s 			page 17


 918              	.L138:
 919 0290 0122     		movs	r2, #1
 920 0292 1CE0     		b	.L87
 921              	.L139:
 922 0294 0122     		movs	r2, #1
 923 0296 1AE0     		b	.L87
 924              	.L140:
 925 0298 0122     		movs	r2, #1
 926 029a 18E0     		b	.L87
 927              	.L141:
 928 029c 0122     		movs	r2, #1
 929 029e 16E0     		b	.L87
 930              	.L142:
 931 02a0 0122     		movs	r2, #1
 932 02a2 14E0     		b	.L87
 933              	.L143:
 934 02a4 0122     		movs	r2, #1
 935 02a6 12E0     		b	.L87
 936              	.L144:
 937 02a8 0122     		movs	r2, #1
 938 02aa 10E0     		b	.L87
 939              	.L145:
 940 02ac 0122     		movs	r2, #1
 941 02ae 0EE0     		b	.L87
 942              	.L146:
 943 02b0 0122     		movs	r2, #1
 944 02b2 0CE0     		b	.L87
 945              	.L147:
 946 02b4 0122     		movs	r2, #1
 947 02b6 0AE0     		b	.L87
 948              	.L148:
 949 02b8 0122     		movs	r2, #1
 950 02ba 08E0     		b	.L87
 951              	.L149:
 952 02bc 0122     		movs	r2, #1
 953 02be 06E0     		b	.L87
 954              	.L176:
 955              		.align	2
 956              	.L175:
 957 02c0 28000240 		.word	1073872936
 958 02c4 10000240 		.word	1073872912
 959 02c8 08540258 		.word	1476547592
 960              	.L150:
 961 02cc 0022     		movs	r2, #0
 962              	.L87:
 963 02ce A2B1     		cbz	r2, .L88
 964 02d0 1A68     		ldr	r2, [r3]
 965 02d2 22F01E02 		bic	r2, r2, #30
 966 02d6 42F01602 		orr	r2, r2, #22
 967 02da 1A60     		str	r2, [r3]
 968 02dc 2268     		ldr	r2, [r4]
 969 02de 5369     		ldr	r3, [r2, #20]
 970 02e0 43F08003 		orr	r3, r3, #128
 971 02e4 5361     		str	r3, [r2, #20]
 972 02e6 236C     		ldr	r3, [r4, #64]
 973 02e8 0BB9     		cbnz	r3, .L89
 974 02ea A36C     		ldr	r3, [r4, #72]
ARM GAS  C:\Users\xiaofei\AppData\Local\Temp\ccYZB70f.s 			page 18


 975 02ec A3B1     		cbz	r3, .L90
 976              	.L89:
 977 02ee 2268     		ldr	r2, [r4]
 978 02f0 1368     		ldr	r3, [r2]
 979 02f2 43F00803 		orr	r3, r3, #8
 980 02f6 1360     		str	r3, [r2]
 981 02f8 0EE0     		b	.L90
 982              	.L88:
 983 02fa 1A68     		ldr	r2, [r3]
 984 02fc 22F00E02 		bic	r2, r2, #14
 985 0300 42F00A02 		orr	r2, r2, #10
 986 0304 1A60     		str	r2, [r3]
 987 0306 236C     		ldr	r3, [r4, #64]
 988 0308 0BB9     		cbnz	r3, .L91
 989 030a A36C     		ldr	r3, [r4, #72]
 990 030c 23B1     		cbz	r3, .L90
 991              	.L91:
 992 030e 2268     		ldr	r2, [r4]
 993 0310 1368     		ldr	r3, [r2]
 994 0312 43F00403 		orr	r3, r3, #4
 995 0316 1360     		str	r3, [r2]
 996              	.L90:
 997 0318 2368     		ldr	r3, [r4]
 998 031a 664A     		ldr	r2, .L177
 999 031c 6649     		ldr	r1, .L177+4
 1000 031e 9342     		cmp	r3, r2
 1001 0320 18BF     		it	ne
 1002 0322 8B42     		cmpne	r3, r1
 1003 0324 44D0     		beq	.L151
 1004 0326 1832     		adds	r2, r2, #24
 1005 0328 9342     		cmp	r3, r2
 1006 032a 43D0     		beq	.L152
 1007 032c 1832     		adds	r2, r2, #24
 1008 032e 9342     		cmp	r3, r2
 1009 0330 42D0     		beq	.L153
 1010 0332 1832     		adds	r2, r2, #24
 1011 0334 9342     		cmp	r3, r2
 1012 0336 41D0     		beq	.L154
 1013 0338 1832     		adds	r2, r2, #24
 1014 033a 9342     		cmp	r3, r2
 1015 033c 40D0     		beq	.L155
 1016 033e 1832     		adds	r2, r2, #24
 1017 0340 9342     		cmp	r3, r2
 1018 0342 3FD0     		beq	.L156
 1019 0344 1832     		adds	r2, r2, #24
 1020 0346 9342     		cmp	r3, r2
 1021 0348 3ED0     		beq	.L157
 1022 034a 02F55672 		add	r2, r2, #856
 1023 034e 9342     		cmp	r3, r2
 1024 0350 3CD0     		beq	.L158
 1025 0352 1832     		adds	r2, r2, #24
 1026 0354 9342     		cmp	r3, r2
 1027 0356 3BD0     		beq	.L159
 1028 0358 1832     		adds	r2, r2, #24
 1029 035a 9342     		cmp	r3, r2
 1030 035c 3AD0     		beq	.L160
 1031 035e 1832     		adds	r2, r2, #24
ARM GAS  C:\Users\xiaofei\AppData\Local\Temp\ccYZB70f.s 			page 19


 1032 0360 9342     		cmp	r3, r2
 1033 0362 39D0     		beq	.L161
 1034 0364 1832     		adds	r2, r2, #24
 1035 0366 9342     		cmp	r3, r2
 1036 0368 38D0     		beq	.L162
 1037 036a 1832     		adds	r2, r2, #24
 1038 036c 9342     		cmp	r3, r2
 1039 036e 37D0     		beq	.L163
 1040 0370 1832     		adds	r2, r2, #24
 1041 0372 9342     		cmp	r3, r2
 1042 0374 36D0     		beq	.L164
 1043 0376 1832     		adds	r2, r2, #24
 1044 0378 9342     		cmp	r3, r2
 1045 037a 35D0     		beq	.L165
 1046 037c 4F4A     		ldr	r2, .L177+8
 1047 037e 9342     		cmp	r3, r2
 1048 0380 34D0     		beq	.L166
 1049 0382 1432     		adds	r2, r2, #20
 1050 0384 9342     		cmp	r3, r2
 1051 0386 33D0     		beq	.L167
 1052 0388 1432     		adds	r2, r2, #20
 1053 038a 9342     		cmp	r3, r2
 1054 038c 32D0     		beq	.L168
 1055 038e 1432     		adds	r2, r2, #20
 1056 0390 9342     		cmp	r3, r2
 1057 0392 31D0     		beq	.L169
 1058 0394 1432     		adds	r2, r2, #20
 1059 0396 9342     		cmp	r3, r2
 1060 0398 30D0     		beq	.L170
 1061 039a 1432     		adds	r2, r2, #20
 1062 039c 9342     		cmp	r3, r2
 1063 039e 2FD0     		beq	.L171
 1064 03a0 1432     		adds	r2, r2, #20
 1065 03a2 9342     		cmp	r3, r2
 1066 03a4 2ED0     		beq	.L172
 1067 03a6 1432     		adds	r2, r2, #20
 1068 03a8 9342     		cmp	r3, r2
 1069 03aa 2DD1     		bne	.L173
 1070 03ac 0123     		movs	r3, #1
 1071 03ae 2CE0     		b	.L92
 1072              	.L151:
 1073 03b0 0123     		movs	r3, #1
 1074 03b2 2AE0     		b	.L92
 1075              	.L152:
 1076 03b4 0123     		movs	r3, #1
 1077 03b6 28E0     		b	.L92
 1078              	.L153:
 1079 03b8 0123     		movs	r3, #1
 1080 03ba 26E0     		b	.L92
 1081              	.L154:
 1082 03bc 0123     		movs	r3, #1
 1083 03be 24E0     		b	.L92
 1084              	.L155:
 1085 03c0 0123     		movs	r3, #1
 1086 03c2 22E0     		b	.L92
 1087              	.L156:
 1088 03c4 0123     		movs	r3, #1
ARM GAS  C:\Users\xiaofei\AppData\Local\Temp\ccYZB70f.s 			page 20


 1089 03c6 20E0     		b	.L92
 1090              	.L157:
 1091 03c8 0123     		movs	r3, #1
 1092 03ca 1EE0     		b	.L92
 1093              	.L158:
 1094 03cc 0123     		movs	r3, #1
 1095 03ce 1CE0     		b	.L92
 1096              	.L159:
 1097 03d0 0123     		movs	r3, #1
 1098 03d2 1AE0     		b	.L92
 1099              	.L160:
 1100 03d4 0123     		movs	r3, #1
 1101 03d6 18E0     		b	.L92
 1102              	.L161:
 1103 03d8 0123     		movs	r3, #1
 1104 03da 16E0     		b	.L92
 1105              	.L162:
 1106 03dc 0123     		movs	r3, #1
 1107 03de 14E0     		b	.L92
 1108              	.L163:
 1109 03e0 0123     		movs	r3, #1
 1110 03e2 12E0     		b	.L92
 1111              	.L164:
 1112 03e4 0123     		movs	r3, #1
 1113 03e6 10E0     		b	.L92
 1114              	.L165:
 1115 03e8 0123     		movs	r3, #1
 1116 03ea 0EE0     		b	.L92
 1117              	.L166:
 1118 03ec 0123     		movs	r3, #1
 1119 03ee 0CE0     		b	.L92
 1120              	.L167:
 1121 03f0 0123     		movs	r3, #1
 1122 03f2 0AE0     		b	.L92
 1123              	.L168:
 1124 03f4 0123     		movs	r3, #1
 1125 03f6 08E0     		b	.L92
 1126              	.L169:
 1127 03f8 0123     		movs	r3, #1
 1128 03fa 06E0     		b	.L92
 1129              	.L170:
 1130 03fc 0123     		movs	r3, #1
 1131 03fe 04E0     		b	.L92
 1132              	.L171:
 1133 0400 0123     		movs	r3, #1
 1134 0402 02E0     		b	.L92
 1135              	.L172:
 1136 0404 0123     		movs	r3, #1
 1137 0406 00E0     		b	.L92
 1138              	.L173:
 1139 0408 0023     		movs	r3, #0
 1140              	.L92:
 1141 040a 73B1     		cbz	r3, .L93
 1142 040c 236E     		ldr	r3, [r4, #96]
 1143 040e 1A68     		ldr	r2, [r3]
 1144 0410 12F4803F 		tst	r2, #65536
 1145 0414 03D0     		beq	.L94
ARM GAS  C:\Users\xiaofei\AppData\Local\Temp\ccYZB70f.s 			page 21


 1146 0416 1A68     		ldr	r2, [r3]
 1147 0418 42F48072 		orr	r2, r2, #256
 1148 041c 1A60     		str	r2, [r3]
 1149              	.L94:
 1150 041e E36E     		ldr	r3, [r4, #108]
 1151 0420 1BB1     		cbz	r3, .L93
 1152 0422 1A68     		ldr	r2, [r3]
 1153 0424 42F48072 		orr	r2, r2, #256
 1154 0428 1A60     		str	r2, [r3]
 1155              	.L93:
 1156 042a 2368     		ldr	r3, [r4]
 1157 042c 214A     		ldr	r2, .L177
 1158 042e 2249     		ldr	r1, .L177+4
 1159 0430 9342     		cmp	r3, r2
 1160 0432 18BF     		it	ne
 1161 0434 8B42     		cmpne	r3, r1
 1162 0436 2AD0     		beq	.L95
 1163 0438 1832     		adds	r2, r2, #24
 1164 043a 9342     		cmp	r3, r2
 1165 043c 27D0     		beq	.L95
 1166 043e 1832     		adds	r2, r2, #24
 1167 0440 9342     		cmp	r3, r2
 1168 0442 24D0     		beq	.L95
 1169 0444 1832     		adds	r2, r2, #24
 1170 0446 9342     		cmp	r3, r2
 1171 0448 21D0     		beq	.L95
 1172 044a 1832     		adds	r2, r2, #24
 1173 044c 9342     		cmp	r3, r2
 1174 044e 1ED0     		beq	.L95
 1175 0450 1832     		adds	r2, r2, #24
 1176 0452 9342     		cmp	r3, r2
 1177 0454 1BD0     		beq	.L95
 1178 0456 1832     		adds	r2, r2, #24
 1179 0458 9342     		cmp	r3, r2
 1180 045a 18D0     		beq	.L95
 1181 045c 02F55672 		add	r2, r2, #856
 1182 0460 9342     		cmp	r3, r2
 1183 0462 14D0     		beq	.L95
 1184 0464 1832     		adds	r2, r2, #24
 1185 0466 9342     		cmp	r3, r2
 1186 0468 11D0     		beq	.L95
 1187 046a 1832     		adds	r2, r2, #24
 1188 046c 9342     		cmp	r3, r2
 1189 046e 0ED0     		beq	.L95
 1190 0470 1832     		adds	r2, r2, #24
 1191 0472 9342     		cmp	r3, r2
 1192 0474 0BD0     		beq	.L95
 1193 0476 1832     		adds	r2, r2, #24
 1194 0478 9342     		cmp	r3, r2
 1195 047a 08D0     		beq	.L95
 1196 047c 1832     		adds	r2, r2, #24
 1197 047e 9342     		cmp	r3, r2
 1198 0480 05D0     		beq	.L95
 1199 0482 1832     		adds	r2, r2, #24
 1200 0484 9342     		cmp	r3, r2
 1201 0486 02D0     		beq	.L95
 1202 0488 1832     		adds	r2, r2, #24
ARM GAS  C:\Users\xiaofei\AppData\Local\Temp\ccYZB70f.s 			page 22


 1203 048a 9342     		cmp	r3, r2
 1204 048c 05D1     		bne	.L96
 1205              	.L95:
 1206 048e 1A68     		ldr	r2, [r3]
 1207 0490 42F00102 		orr	r2, r2, #1
 1208 0494 1A60     		str	r2, [r3]
 1209 0496 0020     		movs	r0, #0
 1210 0498 70BD     		pop	{r4, r5, r6, pc}
 1211              	.L96:
 1212 049a 1A68     		ldr	r2, [r3]
 1213 049c 42F00102 		orr	r2, r2, #1
 1214 04a0 1A60     		str	r2, [r3]
 1215 04a2 0020     		movs	r0, #0
 1216 04a4 70BD     		pop	{r4, r5, r6, pc}
 1217              	.L81:
 1218 04a6 4FF40063 		mov	r3, #2048
 1219 04aa 4365     		str	r3, [r0, #84]
 1220 04ac 0120     		movs	r0, #1
 1221 04ae 70BD     		pop	{r4, r5, r6, pc}
 1222              	.L97:
 1223 04b0 0220     		movs	r0, #2
 1224 04b2 70BD     		pop	{r4, r5, r6, pc}
 1225              	.L178:
 1226              		.align	2
 1227              	.L177:
 1228 04b4 28000240 		.word	1073872936
 1229 04b8 10000240 		.word	1073872912
 1230 04bc 08540258 		.word	1476547592
 1232              		.section	.text.HAL_DMAEx_ChangeMemory,"ax",%progbits
 1233              		.align	2
 1234              		.global	HAL_DMAEx_ChangeMemory
 1235              		.thumb
 1236              		.thumb_func
 1238              	HAL_DMAEx_ChangeMemory:
 1239              		@ args = 0, pretend = 0, frame = 0
 1240              		@ frame_needed = 0, uses_anonymous_args = 0
 1241              		@ link register save eliminated.
 1242 0000 10B4     		push	{r4}
 1243 0002 0368     		ldr	r3, [r0]
 1244 0004 2E48     		ldr	r0, .L201
 1245 0006 2F4C     		ldr	r4, .L201+4
 1246 0008 8342     		cmp	r3, r0
 1247 000a 18BF     		it	ne
 1248 000c A342     		cmpne	r3, r4
 1249 000e 2CD0     		beq	.L185
 1250 0010 1830     		adds	r0, r0, #24
 1251 0012 8342     		cmp	r3, r0
 1252 0014 2BD0     		beq	.L186
 1253 0016 1830     		adds	r0, r0, #24
 1254 0018 8342     		cmp	r3, r0
 1255 001a 2AD0     		beq	.L187
 1256 001c 1830     		adds	r0, r0, #24
 1257 001e 8342     		cmp	r3, r0
 1258 0020 29D0     		beq	.L188
 1259 0022 1830     		adds	r0, r0, #24
 1260 0024 8342     		cmp	r3, r0
 1261 0026 28D0     		beq	.L189
ARM GAS  C:\Users\xiaofei\AppData\Local\Temp\ccYZB70f.s 			page 23


 1262 0028 1830     		adds	r0, r0, #24
 1263 002a 8342     		cmp	r3, r0
 1264 002c 27D0     		beq	.L190
 1265 002e 1830     		adds	r0, r0, #24
 1266 0030 8342     		cmp	r3, r0
 1267 0032 26D0     		beq	.L191
 1268 0034 00F55670 		add	r0, r0, #856
 1269 0038 8342     		cmp	r3, r0
 1270 003a 24D0     		beq	.L192
 1271 003c 1830     		adds	r0, r0, #24
 1272 003e 8342     		cmp	r3, r0
 1273 0040 23D0     		beq	.L193
 1274 0042 1830     		adds	r0, r0, #24
 1275 0044 8342     		cmp	r3, r0
 1276 0046 22D0     		beq	.L194
 1277 0048 1830     		adds	r0, r0, #24
 1278 004a 8342     		cmp	r3, r0
 1279 004c 21D0     		beq	.L195
 1280 004e 1830     		adds	r0, r0, #24
 1281 0050 8342     		cmp	r3, r0
 1282 0052 20D0     		beq	.L196
 1283 0054 1830     		adds	r0, r0, #24
 1284 0056 8342     		cmp	r3, r0
 1285 0058 1FD0     		beq	.L197
 1286 005a 1830     		adds	r0, r0, #24
 1287 005c 8342     		cmp	r3, r0
 1288 005e 1ED0     		beq	.L198
 1289 0060 1830     		adds	r0, r0, #24
 1290 0062 8342     		cmp	r3, r0
 1291 0064 1DD1     		bne	.L199
 1292 0066 0120     		movs	r0, #1
 1293 0068 1CE0     		b	.L180
 1294              	.L185:
 1295 006a 0120     		movs	r0, #1
 1296 006c 1AE0     		b	.L180
 1297              	.L186:
 1298 006e 0120     		movs	r0, #1
 1299 0070 18E0     		b	.L180
 1300              	.L187:
 1301 0072 0120     		movs	r0, #1
 1302 0074 16E0     		b	.L180
 1303              	.L188:
 1304 0076 0120     		movs	r0, #1
 1305 0078 14E0     		b	.L180
 1306              	.L189:
 1307 007a 0120     		movs	r0, #1
 1308 007c 12E0     		b	.L180
 1309              	.L190:
 1310 007e 0120     		movs	r0, #1
 1311 0080 10E0     		b	.L180
 1312              	.L191:
 1313 0082 0120     		movs	r0, #1
 1314 0084 0EE0     		b	.L180
 1315              	.L192:
 1316 0086 0120     		movs	r0, #1
 1317 0088 0CE0     		b	.L180
 1318              	.L193:
ARM GAS  C:\Users\xiaofei\AppData\Local\Temp\ccYZB70f.s 			page 24


 1319 008a 0120     		movs	r0, #1
 1320 008c 0AE0     		b	.L180
 1321              	.L194:
 1322 008e 0120     		movs	r0, #1
 1323 0090 08E0     		b	.L180
 1324              	.L195:
 1325 0092 0120     		movs	r0, #1
 1326 0094 06E0     		b	.L180
 1327              	.L196:
 1328 0096 0120     		movs	r0, #1
 1329 0098 04E0     		b	.L180
 1330              	.L197:
 1331 009a 0120     		movs	r0, #1
 1332 009c 02E0     		b	.L180
 1333              	.L198:
 1334 009e 0120     		movs	r0, #1
 1335 00a0 00E0     		b	.L180
 1336              	.L199:
 1337 00a2 0020     		movs	r0, #0
 1338              	.L180:
 1339 00a4 20B1     		cbz	r0, .L181
 1340 00a6 0AB9     		cbnz	r2, .L182
 1341 00a8 D960     		str	r1, [r3, #12]
 1342 00aa 05E0     		b	.L183
 1343              	.L182:
 1344 00ac 1961     		str	r1, [r3, #16]
 1345 00ae 03E0     		b	.L183
 1346              	.L181:
 1347 00b0 0AB9     		cbnz	r2, .L184
 1348 00b2 D960     		str	r1, [r3, #12]
 1349 00b4 00E0     		b	.L183
 1350              	.L184:
 1351 00b6 1961     		str	r1, [r3, #16]
 1352              	.L183:
 1353 00b8 0020     		movs	r0, #0
 1354 00ba 5DF8044B 		ldr	r4, [sp], #4
 1355 00be 7047     		bx	lr
 1356              	.L202:
 1357              		.align	2
 1358              	.L201:
 1359 00c0 28000240 		.word	1073872936
 1360 00c4 10000240 		.word	1073872912
 1362              		.section	.text.HAL_DMAEx_ConfigMuxSync,"ax",%progbits
 1363              		.align	2
 1364              		.global	HAL_DMAEx_ConfigMuxSync
 1365              		.thumb
 1366              		.thumb_func
 1368              	HAL_DMAEx_ConfigMuxSync:
 1369              		@ args = 0, pretend = 0, frame = 0
 1370              		@ frame_needed = 0, uses_anonymous_args = 0
 1371              		@ link register save eliminated.
 1372 0000 F0B4     		push	{r4, r5, r6, r7}
 1373 0002 0B7A     		ldrb	r3, [r1, #8]	@ zero_extendqisi2
 1374 0004 012B     		cmp	r3, #1
 1375 0006 02D1     		bne	.L207
 1376 0008 0A68     		ldr	r2, [r1]
 1377 000a 4D68     		ldr	r5, [r1, #4]
ARM GAS  C:\Users\xiaofei\AppData\Local\Temp\ccYZB70f.s 			page 25


 1378 000c 01E0     		b	.L204
 1379              	.L207:
 1380 000e 0025     		movs	r5, #0
 1381 0010 2A46     		mov	r2, r5
 1382              	.L204:
 1383 0012 90F83530 		ldrb	r3, [r0, #53]	@ zero_extendqisi2
 1384 0016 DBB2     		uxtb	r3, r3
 1385 0018 012B     		cmp	r3, #1
 1386 001a 21D1     		bne	.L205
 1387 001c 90F83430 		ldrb	r3, [r0, #52]	@ zero_extendqisi2
 1388 0020 012B     		cmp	r3, #1
 1389 0022 22D0     		beq	.L208
 1390 0024 0123     		movs	r3, #1
 1391 0026 80F83430 		strb	r3, [r0, #52]
 1392 002a 046E     		ldr	r4, [r0, #96]
 1393 002c 2368     		ldr	r3, [r4]
 1394 002e 23F48133 		bic	r3, r3, #66048
 1395 0032 2360     		str	r3, [r4]
 1396 0034 076E     		ldr	r7, [r0, #96]
 1397 0036 3B68     		ldr	r3, [r7]
 1398 0038 DEB2     		uxtb	r6, r3
 1399 003a CB68     		ldr	r3, [r1, #12]
 1400 003c 5C1E     		subs	r4, r3, #1
 1401 003e E404     		lsls	r4, r4, #19
 1402 0040 44EA0262 		orr	r2, r4, r2, lsl #24
 1403 0044 2A43     		orrs	r2, r2, r5
 1404 0046 0B7A     		ldrb	r3, [r1, #8]	@ zero_extendqisi2
 1405 0048 42EA0342 		orr	r2, r2, r3, lsl #16
 1406 004c 4B7A     		ldrb	r3, [r1, #9]	@ zero_extendqisi2
 1407 004e 42EA4323 		orr	r3, r2, r3, lsl #9
 1408 0052 3343     		orrs	r3, r3, r6
 1409 0054 3B60     		str	r3, [r7]
 1410 0056 0023     		movs	r3, #0
 1411 0058 80F83430 		strb	r3, [r0, #52]
 1412 005c 1846     		mov	r0, r3
 1413 005e 05E0     		b	.L206
 1414              	.L205:
 1415 0060 4FF40063 		mov	r3, #2048
 1416 0064 4365     		str	r3, [r0, #84]
 1417 0066 0120     		movs	r0, #1
 1418 0068 00E0     		b	.L206
 1419              	.L208:
 1420 006a 0220     		movs	r0, #2
 1421              	.L206:
 1422 006c F0BC     		pop	{r4, r5, r6, r7}
 1423 006e 7047     		bx	lr
 1425              		.section	.text.HAL_DMAEx_ConfigMuxRequestGenerator,"ax",%progbits
 1426              		.align	2
 1427              		.global	HAL_DMAEx_ConfigMuxRequestGenerator
 1428              		.thumb
 1429              		.thumb_func
 1431              	HAL_DMAEx_ConfigMuxRequestGenerator:
 1432              		@ args = 0, pretend = 0, frame = 0
 1433              		@ frame_needed = 0, uses_anonymous_args = 0
 1434              		@ link register save eliminated.
 1435 0000 90F83530 		ldrb	r3, [r0, #53]	@ zero_extendqisi2
 1436 0004 C26E     		ldr	r2, [r0, #108]
ARM GAS  C:\Users\xiaofei\AppData\Local\Temp\ccYZB70f.s 			page 26


 1437 0006 1AB9     		cbnz	r2, .L211
 1438 0008 4023     		movs	r3, #64
 1439 000a 4365     		str	r3, [r0, #84]
 1440 000c 0120     		movs	r0, #1
 1441 000e 7047     		bx	lr
 1442              	.L211:
 1443 0010 10B4     		push	{r4}
 1444 0012 DBB2     		uxtb	r3, r3
 1445 0014 1468     		ldr	r4, [r2]
 1446 0016 14F4803F 		tst	r4, #65536
 1447 001a 15D1     		bne	.L213
 1448 001c 012B     		cmp	r3, #1
 1449 001e 13D1     		bne	.L213
 1450 0020 90F83430 		ldrb	r3, [r0, #52]	@ zero_extendqisi2
 1451 0024 012B     		cmp	r3, #1
 1452 0026 14D0     		beq	.L214
 1453 0028 0123     		movs	r3, #1
 1454 002a 80F83430 		strb	r3, [r0, #52]
 1455 002e 0C68     		ldr	r4, [r1]
 1456 0030 8B68     		ldr	r3, [r1, #8]
 1457 0032 013B     		subs	r3, r3, #1
 1458 0034 44EAC344 		orr	r4, r4, r3, lsl #19
 1459 0038 4B68     		ldr	r3, [r1, #4]
 1460 003a 2343     		orrs	r3, r3, r4
 1461 003c 1360     		str	r3, [r2]
 1462 003e 0023     		movs	r3, #0
 1463 0040 80F83430 		strb	r3, [r0, #52]
 1464 0044 1846     		mov	r0, r3
 1465 0046 05E0     		b	.L212
 1466              	.L213:
 1467 0048 4FF40063 		mov	r3, #2048
 1468 004c 4365     		str	r3, [r0, #84]
 1469 004e 0120     		movs	r0, #1
 1470 0050 00E0     		b	.L212
 1471              	.L214:
 1472 0052 0220     		movs	r0, #2
 1473              	.L212:
 1474 0054 5DF8044B 		ldr	r4, [sp], #4
 1475 0058 7047     		bx	lr
 1477 005a 00BF     		.section	.text.HAL_DMAEx_EnableMuxRequestGenerator,"ax",%progbits
 1478              		.align	2
 1479              		.global	HAL_DMAEx_EnableMuxRequestGenerator
 1480              		.thumb
 1481              		.thumb_func
 1483              	HAL_DMAEx_EnableMuxRequestGenerator:
 1484              		@ args = 0, pretend = 0, frame = 0
 1485              		@ frame_needed = 0, uses_anonymous_args = 0
 1486              		@ link register save eliminated.
 1487 0000 90F83530 		ldrb	r3, [r0, #53]	@ zero_extendqisi2
 1488 0004 13F0FF0F 		tst	r3, #255
 1489 0008 07D0     		beq	.L218
 1490 000a C36E     		ldr	r3, [r0, #108]
 1491 000c 3BB1     		cbz	r3, .L219
 1492 000e 1A68     		ldr	r2, [r3]
 1493 0010 42F48032 		orr	r2, r2, #65536
 1494 0014 1A60     		str	r2, [r3]
 1495 0016 0020     		movs	r0, #0
ARM GAS  C:\Users\xiaofei\AppData\Local\Temp\ccYZB70f.s 			page 27


 1496 0018 7047     		bx	lr
 1497              	.L218:
 1498 001a 0120     		movs	r0, #1
 1499 001c 7047     		bx	lr
 1500              	.L219:
 1501 001e 0120     		movs	r0, #1
 1502 0020 7047     		bx	lr
 1504 0022 00BF     		.section	.text.HAL_DMAEx_DisableMuxRequestGenerator,"ax",%progbits
 1505              		.align	2
 1506              		.global	HAL_DMAEx_DisableMuxRequestGenerator
 1507              		.thumb
 1508              		.thumb_func
 1510              	HAL_DMAEx_DisableMuxRequestGenerator:
 1511              		@ args = 0, pretend = 0, frame = 0
 1512              		@ frame_needed = 0, uses_anonymous_args = 0
 1513              		@ link register save eliminated.
 1514 0000 90F83530 		ldrb	r3, [r0, #53]	@ zero_extendqisi2
 1515 0004 13F0FF0F 		tst	r3, #255
 1516 0008 07D0     		beq	.L222
 1517 000a C36E     		ldr	r3, [r0, #108]
 1518 000c 3BB1     		cbz	r3, .L223
 1519 000e 1A68     		ldr	r2, [r3]
 1520 0010 22F48032 		bic	r2, r2, #65536
 1521 0014 1A60     		str	r2, [r3]
 1522 0016 0020     		movs	r0, #0
 1523 0018 7047     		bx	lr
 1524              	.L222:
 1525 001a 0120     		movs	r0, #1
 1526 001c 7047     		bx	lr
 1527              	.L223:
 1528 001e 0120     		movs	r0, #1
 1529 0020 7047     		bx	lr
 1531 0022 00BF     		.section	.text.HAL_DMAEx_MUX_IRQHandler,"ax",%progbits
 1532              		.align	2
 1533              		.global	HAL_DMAEx_MUX_IRQHandler
 1534              		.thumb
 1535              		.thumb_func
 1537              	HAL_DMAEx_MUX_IRQHandler:
 1538              		@ args = 0, pretend = 0, frame = 0
 1539              		@ frame_needed = 0, uses_anonymous_args = 0
 1540 0000 10B5     		push	{r4, lr}
 1541 0002 0446     		mov	r4, r0
 1542 0004 436E     		ldr	r3, [r0, #100]
 1543 0006 1A68     		ldr	r2, [r3]
 1544 0008 836E     		ldr	r3, [r0, #104]
 1545 000a 1A42     		tst	r2, r3
 1546 000c 0ED0     		beq	.L225
 1547 000e 026E     		ldr	r2, [r0, #96]
 1548 0010 1368     		ldr	r3, [r2]
 1549 0012 23F48073 		bic	r3, r3, #256
 1550 0016 1360     		str	r3, [r2]
 1551 0018 436E     		ldr	r3, [r0, #100]
 1552 001a 826E     		ldr	r2, [r0, #104]
 1553 001c 5A60     		str	r2, [r3, #4]
 1554 001e 436D     		ldr	r3, [r0, #84]
 1555 0020 43F40073 		orr	r3, r3, #512
 1556 0024 4365     		str	r3, [r0, #84]
ARM GAS  C:\Users\xiaofei\AppData\Local\Temp\ccYZB70f.s 			page 28


 1557 0026 C36C     		ldr	r3, [r0, #76]
 1558 0028 03B1     		cbz	r3, .L225
 1559 002a 9847     		blx	r3
 1560              	.L225:
 1561 002c E36E     		ldr	r3, [r4, #108]
 1562 002e 9BB1     		cbz	r3, .L224
 1563 0030 226F     		ldr	r2, [r4, #112]
 1564 0032 1168     		ldr	r1, [r2]
 1565 0034 626F     		ldr	r2, [r4, #116]
 1566 0036 1142     		tst	r1, r2
 1567 0038 0ED0     		beq	.L224
 1568 003a 1A68     		ldr	r2, [r3]
 1569 003c 22F48072 		bic	r2, r2, #256
 1570 0040 1A60     		str	r2, [r3]
 1571 0042 236F     		ldr	r3, [r4, #112]
 1572 0044 626F     		ldr	r2, [r4, #116]
 1573 0046 5A60     		str	r2, [r3, #4]
 1574 0048 636D     		ldr	r3, [r4, #84]
 1575 004a 43F48063 		orr	r3, r3, #1024
 1576 004e 6365     		str	r3, [r4, #84]
 1577 0050 E36C     		ldr	r3, [r4, #76]
 1578 0052 0BB1     		cbz	r3, .L224
 1579 0054 2046     		mov	r0, r4
 1580 0056 9847     		blx	r3
 1581              	.L224:
 1582 0058 10BD     		pop	{r4, pc}
 1584 005a 00BF     		.ident	"GCC: (GNU Tools for ARM Embedded Processors) 5.4.1 20160919 (release) [ARM/embedded-5-bran
ARM GAS  C:\Users\xiaofei\AppData\Local\Temp\ccYZB70f.s 			page 29

