ARM GAS  C:\Users\xiaofei\AppData\Local\Temp\ccfLzYTO.s 			page 1


   1              		.syntax unified
   2              		.cpu cortex-m7
   3              		.eabi_attribute 28, 1
   4              		.fpu fpv5-d16
   5              		.eabi_attribute 20, 1
   6              		.eabi_attribute 21, 1
   7              		.eabi_attribute 23, 3
   8              		.eabi_attribute 24, 1
   9              		.eabi_attribute 25, 1
  10              		.eabi_attribute 26, 1
  11              		.eabi_attribute 30, 1
  12              		.eabi_attribute 34, 1
  13              		.eabi_attribute 18, 4
  14              		.thumb
  15              		.syntax unified
  16              		.file	"stm32h7xx_it.c"
  17              		.section	.text.NMI_Handler,"ax",%progbits
  18              		.align	2
  19              		.global	NMI_Handler
  20              		.thumb
  21              		.thumb_func
  23              	NMI_Handler:
  24              		@ Volatile: function does not return.
  25              		@ args = 0, pretend = 0, frame = 0
  26              		@ frame_needed = 0, uses_anonymous_args = 0
  27              		@ link register save eliminated.
  28              	.L2:
  29 0000 FEE7     		b	.L2
  31 0002 00BF     		.section	.text.HardFault_Handler,"ax",%progbits
  32              		.align	2
  33              		.global	HardFault_Handler
  34              		.thumb
  35              		.thumb_func
  37              	HardFault_Handler:
  38              		@ Volatile: function does not return.
  39              		@ args = 0, pretend = 0, frame = 0
  40              		@ frame_needed = 0, uses_anonymous_args = 0
  41              		@ link register save eliminated.
  42              	.L4:
  43 0000 FEE7     		b	.L4
  45 0002 00BF     		.section	.text.MemManage_Handler,"ax",%progbits
  46              		.align	2
  47              		.global	MemManage_Handler
  48              		.thumb
  49              		.thumb_func
  51              	MemManage_Handler:
  52              		@ Volatile: function does not return.
  53              		@ args = 0, pretend = 0, frame = 0
  54              		@ frame_needed = 0, uses_anonymous_args = 0
  55              		@ link register save eliminated.
  56              	.L6:
  57 0000 FEE7     		b	.L6
  59 0002 00BF     		.section	.text.BusFault_Handler,"ax",%progbits
  60              		.align	2
  61              		.global	BusFault_Handler
  62              		.thumb
  63              		.thumb_func
ARM GAS  C:\Users\xiaofei\AppData\Local\Temp\ccfLzYTO.s 			page 2


  65              	BusFault_Handler:
  66              		@ Volatile: function does not return.
  67              		@ args = 0, pretend = 0, frame = 0
  68              		@ frame_needed = 0, uses_anonymous_args = 0
  69              		@ link register save eliminated.
  70              	.L8:
  71 0000 FEE7     		b	.L8
  73 0002 00BF     		.section	.text.UsageFault_Handler,"ax",%progbits
  74              		.align	2
  75              		.global	UsageFault_Handler
  76              		.thumb
  77              		.thumb_func
  79              	UsageFault_Handler:
  80              		@ Volatile: function does not return.
  81              		@ args = 0, pretend = 0, frame = 0
  82              		@ frame_needed = 0, uses_anonymous_args = 0
  83              		@ link register save eliminated.
  84              	.L10:
  85 0000 FEE7     		b	.L10
  87 0002 00BF     		.section	.text.DebugMon_Handler,"ax",%progbits
  88              		.align	2
  89              		.global	DebugMon_Handler
  90              		.thumb
  91              		.thumb_func
  93              	DebugMon_Handler:
  94              		@ args = 0, pretend = 0, frame = 0
  95              		@ frame_needed = 0, uses_anonymous_args = 0
  96              		@ link register save eliminated.
  97 0000 7047     		bx	lr
  99 0002 00BF     		.section	.text.USART1_IRQHandler,"ax",%progbits
 100              		.align	2
 101              		.global	USART1_IRQHandler
 102              		.thumb
 103              		.thumb_func
 105              	USART1_IRQHandler:
 106              		@ args = 0, pretend = 0, frame = 0
 107              		@ frame_needed = 0, uses_anonymous_args = 0
 108 0000 08B5     		push	{r3, lr}
 109 0002 0248     		ldr	r0, .L14
 110 0004 FFF7FEFF 		bl	HAL_UART_IRQHandler
 111 0008 08BD     		pop	{r3, pc}
 112              	.L15:
 113 000a 00BF     		.align	2
 114              	.L14:
 115 000c 00000000 		.word	huart1
 117              		.section	.text.TIM6_DAC_IRQHandler,"ax",%progbits
 118              		.align	2
 119              		.global	TIM6_DAC_IRQHandler
 120              		.thumb
 121              		.thumb_func
 123              	TIM6_DAC_IRQHandler:
 124              		@ args = 0, pretend = 0, frame = 0
 125              		@ frame_needed = 0, uses_anonymous_args = 0
 126 0000 08B5     		push	{r3, lr}
 127 0002 0248     		ldr	r0, .L18
 128 0004 FFF7FEFF 		bl	HAL_TIM_IRQHandler
 129 0008 08BD     		pop	{r3, pc}
ARM GAS  C:\Users\xiaofei\AppData\Local\Temp\ccfLzYTO.s 			page 3


 130              	.L19:
 131 000a 00BF     		.align	2
 132              	.L18:
 133 000c 00000000 		.word	htim6
 135              		.ident	"GCC: (GNU Tools for ARM Embedded Processors) 5.4.1 20160919 (release) [ARM/embedded-5-bran
ARM GAS  C:\Users\xiaofei\AppData\Local\Temp\ccfLzYTO.s 			page 4

