ARM GAS  C:\Users\xiaofei\AppData\Local\Temp\ccO2SmTh.s 			page 1


   1              		.syntax unified
   2              		.cpu cortex-m7
   3              		.eabi_attribute 28, 1
   4              		.fpu fpv5-d16
   5              		.eabi_attribute 20, 1
   6              		.eabi_attribute 21, 1
   7              		.eabi_attribute 23, 3
   8              		.eabi_attribute 24, 1
   9              		.eabi_attribute 25, 1
  10              		.eabi_attribute 26, 1
  11              		.eabi_attribute 30, 1
  12              		.eabi_attribute 34, 1
  13              		.eabi_attribute 18, 4
  14              		.thumb
  15              		.syntax unified
  16              		.file	"stm32h7xx_hal_pwr_ex.c"
  17              		.section	.text.HAL_PWREx_ConfigSupply,"ax",%progbits
  18              		.align	2
  19              		.global	HAL_PWREx_ConfigSupply
  20              		.thumb
  21              		.thumb_func
  23              	HAL_PWREx_ConfigSupply:
  24              		@ args = 0, pretend = 0, frame = 0
  25              		@ frame_needed = 0, uses_anonymous_args = 0
  26 0000 144B     		ldr	r3, .L10
  27 0002 DB68     		ldr	r3, [r3, #12]
  28 0004 13F0040F 		tst	r3, #4
  29 0008 07D1     		bne	.L2
  30 000a 124B     		ldr	r3, .L10
  31 000c DB68     		ldr	r3, [r3, #12]
  32 000e 03F00703 		and	r3, r3, #7
  33 0012 8342     		cmp	r3, r0
  34 0014 19D0     		beq	.L6
  35 0016 0120     		movs	r0, #1
  36 0018 7047     		bx	lr
  37              	.L2:
  38 001a 10B5     		push	{r4, lr}
  39 001c 0D4A     		ldr	r2, .L10
  40 001e D368     		ldr	r3, [r2, #12]
  41 0020 23F00703 		bic	r3, r3, #7
  42 0024 1843     		orrs	r0, r0, r3
  43 0026 D060     		str	r0, [r2, #12]
  44 0028 FFF7FEFF 		bl	HAL_GetTick
  45 002c 0446     		mov	r4, r0
  46 002e 05E0     		b	.L4
  47              	.L5:
  48 0030 FFF7FEFF 		bl	HAL_GetTick
  49 0034 001B     		subs	r0, r0, r4
  50 0036 B0F57A7F 		cmp	r0, #1000
  51 003a 08D8     		bhi	.L7
  52              	.L4:
  53 003c 054B     		ldr	r3, .L10
  54 003e 5B68     		ldr	r3, [r3, #4]
  55 0040 13F4005F 		tst	r3, #8192
  56 0044 F4D0     		beq	.L5
  57 0046 0020     		movs	r0, #0
  58 0048 10BD     		pop	{r4, pc}
ARM GAS  C:\Users\xiaofei\AppData\Local\Temp\ccO2SmTh.s 			page 2


  59              	.L6:
  60 004a 0020     		movs	r0, #0
  61 004c 7047     		bx	lr
  62              	.L7:
  63 004e 0120     		movs	r0, #1
  64 0050 10BD     		pop	{r4, pc}
  65              	.L11:
  66 0052 00BF     		.align	2
  67              	.L10:
  68 0054 00480258 		.word	1476544512
  70              		.section	.text.HAL_PWREx_GetSupplyConfig,"ax",%progbits
  71              		.align	2
  72              		.global	HAL_PWREx_GetSupplyConfig
  73              		.thumb
  74              		.thumb_func
  76              	HAL_PWREx_GetSupplyConfig:
  77              		@ args = 0, pretend = 0, frame = 0
  78              		@ frame_needed = 0, uses_anonymous_args = 0
  79              		@ link register save eliminated.
  80 0000 024B     		ldr	r3, .L13
  81 0002 D868     		ldr	r0, [r3, #12]
  82 0004 00F00700 		and	r0, r0, #7
  83 0008 7047     		bx	lr
  84              	.L14:
  85 000a 00BF     		.align	2
  86              	.L13:
  87 000c 00480258 		.word	1476544512
  89              		.section	.text.HAL_PWREx_ControlVoltageScaling,"ax",%progbits
  90              		.align	2
  91              		.global	HAL_PWREx_ControlVoltageScaling
  92              		.thumb
  93              		.thumb_func
  95              	HAL_PWREx_ControlVoltageScaling:
  96              		@ args = 0, pretend = 0, frame = 0
  97              		@ frame_needed = 0, uses_anonymous_args = 0
  98 0000 38B5     		push	{r3, r4, r5, lr}
  99 0002 344B     		ldr	r3, .L32
 100 0004 5B68     		ldr	r3, [r3, #4]
 101 0006 03F44043 		and	r3, r3, #49152
 102 000a 8342     		cmp	r3, r0
 103 000c 57D0     		beq	.L26
 104 000e 0446     		mov	r4, r0
 105 0010 F0B9     		cbnz	r0, .L17
 106 0012 304B     		ldr	r3, .L32
 107 0014 DB68     		ldr	r3, [r3, #12]
 108 0016 13F0020F 		tst	r3, #2
 109 001a 52D0     		beq	.L27
 110 001c 2D4A     		ldr	r2, .L32
 111 001e 9369     		ldr	r3, [r2, #24]
 112 0020 43F44043 		orr	r3, r3, #49152
 113 0024 9361     		str	r3, [r2, #24]
 114 0026 FFF7FEFF 		bl	HAL_GetTick
 115 002a 0446     		mov	r4, r0
 116 002c 05E0     		b	.L18
 117              	.L19:
 118 002e FFF7FEFF 		bl	HAL_GetTick
 119 0032 001B     		subs	r0, r0, r4
ARM GAS  C:\Users\xiaofei\AppData\Local\Temp\ccO2SmTh.s 			page 3


 120 0034 B0F57A7F 		cmp	r0, #1000
 121 0038 45D8     		bhi	.L28
 122              	.L18:
 123 003a 264B     		ldr	r3, .L32
 124 003c 5B68     		ldr	r3, [r3, #4]
 125 003e 13F4005F 		tst	r3, #8192
 126 0042 F4D0     		beq	.L19
 127 0044 244A     		ldr	r2, .L32+4
 128 0046 D36A     		ldr	r3, [r2, #44]
 129 0048 43F00103 		orr	r3, r3, #1
 130 004c D362     		str	r3, [r2, #44]
 131 004e 25E0     		b	.L20
 132              	.L17:
 133 0050 204B     		ldr	r3, .L32
 134 0052 5B68     		ldr	r3, [r3, #4]
 135 0054 03F44043 		and	r3, r3, #49152
 136 0058 B3F5404F 		cmp	r3, #49152
 137 005c 18D1     		bne	.L21
 138 005e 1E4B     		ldr	r3, .L32+4
 139 0060 DB6A     		ldr	r3, [r3, #44]
 140 0062 13F0010F 		tst	r3, #1
 141 0066 13D0     		beq	.L21
 142 0068 1B4A     		ldr	r2, .L32+4
 143 006a D36A     		ldr	r3, [r2, #44]
 144 006c 23F00103 		bic	r3, r3, #1
 145 0070 D362     		str	r3, [r2, #44]
 146 0072 FFF7FEFF 		bl	HAL_GetTick
 147 0076 0546     		mov	r5, r0
 148 0078 05E0     		b	.L22
 149              	.L23:
 150 007a FFF7FEFF 		bl	HAL_GetTick
 151 007e 401B     		subs	r0, r0, r5
 152 0080 B0F57A7F 		cmp	r0, #1000
 153 0084 21D8     		bhi	.L29
 154              	.L22:
 155 0086 134B     		ldr	r3, .L32
 156 0088 5B68     		ldr	r3, [r3, #4]
 157 008a 13F4005F 		tst	r3, #8192
 158 008e F4D0     		beq	.L23
 159              	.L21:
 160 0090 104B     		ldr	r3, .L32
 161 0092 9869     		ldr	r0, [r3, #24]
 162 0094 20F44040 		bic	r0, r0, #49152
 163 0098 2043     		orrs	r0, r0, r4
 164 009a 9861     		str	r0, [r3, #24]
 165              	.L20:
 166 009c FFF7FEFF 		bl	HAL_GetTick
 167 00a0 0446     		mov	r4, r0
 168 00a2 05E0     		b	.L24
 169              	.L25:
 170 00a4 FFF7FEFF 		bl	HAL_GetTick
 171 00a8 001B     		subs	r0, r0, r4
 172 00aa B0F57A7F 		cmp	r0, #1000
 173 00ae 0ED8     		bhi	.L30
 174              	.L24:
 175 00b0 084B     		ldr	r3, .L32
 176 00b2 5B68     		ldr	r3, [r3, #4]
ARM GAS  C:\Users\xiaofei\AppData\Local\Temp\ccO2SmTh.s 			page 4


 177 00b4 13F4005F 		tst	r3, #8192
 178 00b8 F4D0     		beq	.L25
 179 00ba 0020     		movs	r0, #0
 180 00bc 38BD     		pop	{r3, r4, r5, pc}
 181              	.L26:
 182 00be 0020     		movs	r0, #0
 183 00c0 38BD     		pop	{r3, r4, r5, pc}
 184              	.L27:
 185 00c2 0120     		movs	r0, #1
 186 00c4 38BD     		pop	{r3, r4, r5, pc}
 187              	.L28:
 188 00c6 0120     		movs	r0, #1
 189 00c8 38BD     		pop	{r3, r4, r5, pc}
 190              	.L29:
 191 00ca 0120     		movs	r0, #1
 192 00cc 38BD     		pop	{r3, r4, r5, pc}
 193              	.L30:
 194 00ce 0120     		movs	r0, #1
 195 00d0 38BD     		pop	{r3, r4, r5, pc}
 196              	.L33:
 197 00d2 00BF     		.align	2
 198              	.L32:
 199 00d4 00480258 		.word	1476544512
 200 00d8 00040058 		.word	1476396032
 202              		.section	.text.HAL_PWREx_GetVoltageRange,"ax",%progbits
 203              		.align	2
 204              		.global	HAL_PWREx_GetVoltageRange
 205              		.thumb
 206              		.thumb_func
 208              	HAL_PWREx_GetVoltageRange:
 209              		@ args = 0, pretend = 0, frame = 0
 210              		@ frame_needed = 0, uses_anonymous_args = 0
 211              		@ link register save eliminated.
 212 0000 024B     		ldr	r3, .L35
 213 0002 5868     		ldr	r0, [r3, #4]
 214 0004 00F44040 		and	r0, r0, #49152
 215 0008 7047     		bx	lr
 216              	.L36:
 217 000a 00BF     		.align	2
 218              	.L35:
 219 000c 00480258 		.word	1476544512
 221              		.section	.text.HAL_PWREx_ControlStopModeVoltageScaling,"ax",%progbits
 222              		.align	2
 223              		.global	HAL_PWREx_ControlStopModeVoltageScaling
 224              		.thumb
 225              		.thumb_func
 227              	HAL_PWREx_ControlStopModeVoltageScaling:
 228              		@ args = 0, pretend = 0, frame = 0
 229              		@ frame_needed = 0, uses_anonymous_args = 0
 230              		@ link register save eliminated.
 231 0000 034A     		ldr	r2, .L38
 232 0002 1368     		ldr	r3, [r2]
 233 0004 23F44043 		bic	r3, r3, #49152
 234 0008 1843     		orrs	r0, r0, r3
 235 000a 1060     		str	r0, [r2]
 236 000c 0020     		movs	r0, #0
 237 000e 7047     		bx	lr
ARM GAS  C:\Users\xiaofei\AppData\Local\Temp\ccO2SmTh.s 			page 5


 238              	.L39:
 239              		.align	2
 240              	.L38:
 241 0010 00480258 		.word	1476544512
 243              		.section	.text.HAL_PWREx_GetStopModeVoltageRange,"ax",%progbits
 244              		.align	2
 245              		.global	HAL_PWREx_GetStopModeVoltageRange
 246              		.thumb
 247              		.thumb_func
 249              	HAL_PWREx_GetStopModeVoltageRange:
 250              		@ args = 0, pretend = 0, frame = 0
 251              		@ frame_needed = 0, uses_anonymous_args = 0
 252              		@ link register save eliminated.
 253 0000 024B     		ldr	r3, .L41
 254 0002 1868     		ldr	r0, [r3]
 255 0004 00F44040 		and	r0, r0, #49152
 256 0008 7047     		bx	lr
 257              	.L42:
 258 000a 00BF     		.align	2
 259              	.L41:
 260 000c 00480258 		.word	1476544512
 262              		.section	.text.HAL_PWREx_EnterSTOPMode,"ax",%progbits
 263              		.align	2
 264              		.global	HAL_PWREx_EnterSTOPMode
 265              		.thumb
 266              		.thumb_func
 268              	HAL_PWREx_EnterSTOPMode:
 269              		@ args = 0, pretend = 0, frame = 0
 270              		@ frame_needed = 0, uses_anonymous_args = 0
 271              		@ link register save eliminated.
 272 0000 10B4     		push	{r4}
 273 0002 174C     		ldr	r4, .L50
 274 0004 2368     		ldr	r3, [r4]
 275 0006 23F00103 		bic	r3, r3, #1
 276 000a 1843     		orrs	r0, r0, r3
 277 000c 2060     		str	r0, [r4]
 278 000e BAB9     		cbnz	r2, .L44
 279 0010 2369     		ldr	r3, [r4, #16]
 280 0012 23F00103 		bic	r3, r3, #1
 281 0016 2361     		str	r3, [r4, #16]
 282 0018 124A     		ldr	r2, .L50+4
 283 001a 1369     		ldr	r3, [r2, #16]
 284 001c 43F00403 		orr	r3, r3, #4
 285 0020 1361     		str	r3, [r2, #16]
 286              		.syntax unified
 287              	@ 879 "Drivers/CMSIS/Include/cmsis_gcc.h" 1
 288 0022 BFF34F8F 		dsb 0xF
 289              	@ 0 "" 2
 290              	@ 868 "Drivers/CMSIS/Include/cmsis_gcc.h" 1
 291 0026 BFF36F8F 		isb 0xF
 292              	@ 0 "" 2
 293              		.thumb
 294              		.syntax unified
 295 002a 0129     		cmp	r1, #1
 296 002c 01D1     		bne	.L45
 297              		.syntax unified
 298              	@ 856 "Drivers/STM32H7xx_HAL_Driver/Src/stm32h7xx_hal_pwr_ex.c" 1
ARM GAS  C:\Users\xiaofei\AppData\Local\Temp\ccO2SmTh.s 			page 6


 299 002e 30BF     		wfi
 300              	@ 0 "" 2
 301              		.thumb
 302              		.syntax unified
 303 0030 00E0     		b	.L46
 304              	.L45:
 305              		.syntax unified
 306              	@ 861 "Drivers/STM32H7xx_HAL_Driver/Src/stm32h7xx_hal_pwr_ex.c" 1
 307 0032 20BF     		wfe
 308              	@ 0 "" 2
 309              		.thumb
 310              		.syntax unified
 311              	.L46:
 312 0034 0B4A     		ldr	r2, .L50+4
 313 0036 1369     		ldr	r3, [r2, #16]
 314 0038 23F00403 		bic	r3, r3, #4
 315 003c 1361     		str	r3, [r2, #16]
 316 003e 0CE0     		b	.L43
 317              	.L44:
 318 0040 012A     		cmp	r2, #1
 319 0042 05D1     		bne	.L48
 320 0044 064A     		ldr	r2, .L50
 321 0046 1369     		ldr	r3, [r2, #16]
 322 0048 23F00203 		bic	r3, r3, #2
 323 004c 1361     		str	r3, [r2, #16]
 324 004e 04E0     		b	.L43
 325              	.L48:
 326 0050 034A     		ldr	r2, .L50
 327 0052 1369     		ldr	r3, [r2, #16]
 328 0054 23F00403 		bic	r3, r3, #4
 329 0058 1361     		str	r3, [r2, #16]
 330              	.L43:
 331 005a 5DF8044B 		ldr	r4, [sp], #4
 332 005e 7047     		bx	lr
 333              	.L51:
 334              		.align	2
 335              	.L50:
 336 0060 00480258 		.word	1476544512
 337 0064 00ED00E0 		.word	-536810240
 339              		.section	.text.HAL_PWREx_ClearPendingEvent,"ax",%progbits
 340              		.align	2
 341              		.global	HAL_PWREx_ClearPendingEvent
 342              		.thumb
 343              		.thumb_func
 345              	HAL_PWREx_ClearPendingEvent:
 346              		@ args = 0, pretend = 0, frame = 0
 347              		@ frame_needed = 0, uses_anonymous_args = 0
 348              		@ link register save eliminated.
 349              		.syntax unified
 350              	@ 954 "Drivers/STM32H7xx_HAL_Driver/Src/stm32h7xx_hal_pwr_ex.c" 1
 351 0000 20BF     		wfe
 352              	@ 0 "" 2
 353              		.thumb
 354              		.syntax unified
 355 0002 7047     		bx	lr
 357              		.section	.text.HAL_PWREx_EnterSTANDBYMode,"ax",%progbits
 358              		.align	2
ARM GAS  C:\Users\xiaofei\AppData\Local\Temp\ccO2SmTh.s 			page 7


 359              		.global	HAL_PWREx_EnterSTANDBYMode
 360              		.thumb
 361              		.thumb_func
 363              	HAL_PWREx_EnterSTANDBYMode:
 364              		@ args = 0, pretend = 0, frame = 0
 365              		@ frame_needed = 0, uses_anonymous_args = 0
 366              		@ link register save eliminated.
 367 0000 58B9     		cbnz	r0, .L54
 368 0002 0D4A     		ldr	r2, .L57
 369 0004 1369     		ldr	r3, [r2, #16]
 370 0006 43F00103 		orr	r3, r3, #1
 371 000a 1361     		str	r3, [r2, #16]
 372 000c 0B4A     		ldr	r2, .L57+4
 373 000e 1369     		ldr	r3, [r2, #16]
 374 0010 43F00403 		orr	r3, r3, #4
 375 0014 1361     		str	r3, [r2, #16]
 376              		.syntax unified
 377              	@ 1024 "Drivers/STM32H7xx_HAL_Driver/Src/stm32h7xx_hal_pwr_ex.c" 1
 378 0016 30BF     		wfi
 379              	@ 0 "" 2
 380              		.thumb
 381              		.syntax unified
 382 0018 7047     		bx	lr
 383              	.L54:
 384 001a 0128     		cmp	r0, #1
 385 001c 05D1     		bne	.L56
 386 001e 064A     		ldr	r2, .L57
 387 0020 1369     		ldr	r3, [r2, #16]
 388 0022 43F00203 		orr	r3, r3, #2
 389 0026 1361     		str	r3, [r2, #16]
 390 0028 7047     		bx	lr
 391              	.L56:
 392 002a 034A     		ldr	r2, .L57
 393 002c 1369     		ldr	r3, [r2, #16]
 394 002e 43F00403 		orr	r3, r3, #4
 395 0032 1361     		str	r3, [r2, #16]
 396 0034 7047     		bx	lr
 397              	.L58:
 398 0036 00BF     		.align	2
 399              	.L57:
 400 0038 00480258 		.word	1476544512
 401 003c 00ED00E0 		.word	-536810240
 403              		.section	.text.HAL_PWREx_ConfigD3Domain,"ax",%progbits
 404              		.align	2
 405              		.global	HAL_PWREx_ConfigD3Domain
 406              		.thumb
 407              		.thumb_func
 409              	HAL_PWREx_ConfigD3Domain:
 410              		@ args = 0, pretend = 0, frame = 0
 411              		@ frame_needed = 0, uses_anonymous_args = 0
 412              		@ link register save eliminated.
 413 0000 034A     		ldr	r2, .L60
 414 0002 1369     		ldr	r3, [r2, #16]
 415 0004 23F40063 		bic	r3, r3, #2048
 416 0008 1843     		orrs	r0, r0, r3
 417 000a 1061     		str	r0, [r2, #16]
 418 000c 7047     		bx	lr
ARM GAS  C:\Users\xiaofei\AppData\Local\Temp\ccO2SmTh.s 			page 8


 419              	.L61:
 420 000e 00BF     		.align	2
 421              	.L60:
 422 0010 00480258 		.word	1476544512
 424              		.section	.text.HAL_PWREx_EnableFlashPowerDown,"ax",%progbits
 425              		.align	2
 426              		.global	HAL_PWREx_EnableFlashPowerDown
 427              		.thumb
 428              		.thumb_func
 430              	HAL_PWREx_EnableFlashPowerDown:
 431              		@ args = 0, pretend = 0, frame = 0
 432              		@ frame_needed = 0, uses_anonymous_args = 0
 433              		@ link register save eliminated.
 434 0000 024A     		ldr	r2, .L63
 435 0002 1368     		ldr	r3, [r2]
 436 0004 43F40073 		orr	r3, r3, #512
 437 0008 1360     		str	r3, [r2]
 438 000a 7047     		bx	lr
 439              	.L64:
 440              		.align	2
 441              	.L63:
 442 000c 00480258 		.word	1476544512
 444              		.section	.text.HAL_PWREx_DisableFlashPowerDown,"ax",%progbits
 445              		.align	2
 446              		.global	HAL_PWREx_DisableFlashPowerDown
 447              		.thumb
 448              		.thumb_func
 450              	HAL_PWREx_DisableFlashPowerDown:
 451              		@ args = 0, pretend = 0, frame = 0
 452              		@ frame_needed = 0, uses_anonymous_args = 0
 453              		@ link register save eliminated.
 454 0000 024A     		ldr	r2, .L66
 455 0002 1368     		ldr	r3, [r2]
 456 0004 23F40073 		bic	r3, r3, #512
 457 0008 1360     		str	r3, [r2]
 458 000a 7047     		bx	lr
 459              	.L67:
 460              		.align	2
 461              	.L66:
 462 000c 00480258 		.word	1476544512
 464              		.section	.text.HAL_PWREx_EnableWakeUpPin,"ax",%progbits
 465              		.align	2
 466              		.global	HAL_PWREx_EnableWakeUpPin
 467              		.thumb
 468              		.thumb_func
 470              	HAL_PWREx_EnableWakeUpPin:
 471              		@ args = 0, pretend = 0, frame = 0
 472              		@ frame_needed = 0, uses_anonymous_args = 0
 473              		@ link register save eliminated.
 474 0000 30B4     		push	{r4, r5}
 475 0002 4468     		ldr	r4, [r0, #4]
 476 0004 0368     		ldr	r3, [r0]
 477              		.syntax unified
 478              	@ 988 "Drivers/CMSIS/Include/cmsis_gcc.h" 1
 479 0006 93FAA3F2 		rbit r2, r3
 480              	@ 0 "" 2
 481              		.thumb
ARM GAS  C:\Users\xiaofei\AppData\Local\Temp\ccO2SmTh.s 			page 9


 482              		.syntax unified
 483 000a B2FA82F2 		clz	r2, r2
 484 000e 0832     		adds	r2, r2, #8
 485 0010 02F01F02 		and	r2, r2, #31
 486 0014 9440     		lsls	r4, r4, r2
 487 0016 1C43     		orrs	r4, r4, r3
 488 0018 8168     		ldr	r1, [r0, #8]
 489              		.syntax unified
 490              	@ 988 "Drivers/CMSIS/Include/cmsis_gcc.h" 1
 491 001a 93FAA3F2 		rbit r2, r3
 492              	@ 0 "" 2
 493              		.thumb
 494              		.syntax unified
 495 001e B2FA82F2 		clz	r2, r2
 496 0022 0832     		adds	r2, r2, #8
 497 0024 5200     		lsls	r2, r2, #1
 498 0026 02F01E02 		and	r2, r2, #30
 499 002a 01FA02F2 		lsl	r2, r1, r2
 500 002e 1443     		orrs	r4, r4, r2
 501              		.syntax unified
 502              	@ 988 "Drivers/CMSIS/Include/cmsis_gcc.h" 1
 503 0030 93FAA3F2 		rbit r2, r3
 504              	@ 0 "" 2
 505              		.thumb
 506              		.syntax unified
 507 0034 B2FA82F2 		clz	r2, r2
 508 0038 02F01F02 		and	r2, r2, #31
 509 003c 4FF48071 		mov	r1, #256
 510 0040 01FA02F2 		lsl	r2, r1, r2
 511 0044 1A43     		orrs	r2, r2, r3
 512              		.syntax unified
 513              	@ 988 "Drivers/CMSIS/Include/cmsis_gcc.h" 1
 514 0046 93FAA3F3 		rbit r3, r3
 515              	@ 0 "" 2
 516              		.thumb
 517              		.syntax unified
 518 004a B3FA83F3 		clz	r3, r3
 519 004e 5B00     		lsls	r3, r3, #1
 520 0050 03F01E03 		and	r3, r3, #30
 521 0054 4FF44031 		mov	r1, #196608
 522 0058 01FA03F3 		lsl	r3, r1, r3
 523 005c 1343     		orrs	r3, r3, r2
 524 005e 0A4D     		ldr	r5, .L70
 525 0060 A96A     		ldr	r1, [r5, #40]
 526 0062 21EA0303 		bic	r3, r1, r3
 527 0066 44EA0302 		orr	r2, r4, r3
 528 006a AA62     		str	r2, [r5, #40]
 529 006c 4FF0B042 		mov	r2, #1476395008
 530 0070 D2F89030 		ldr	r3, [r2, #144]
 531 0074 23F0FC53 		bic	r3, r3, #528482304
 532 0078 0168     		ldr	r1, [r0]
 533 007a 43EAC153 		orr	r3, r3, r1, lsl #23
 534 007e C2F89030 		str	r3, [r2, #144]
 535 0082 30BC     		pop	{r4, r5}
 536 0084 7047     		bx	lr
 537              	.L71:
 538 0086 00BF     		.align	2
ARM GAS  C:\Users\xiaofei\AppData\Local\Temp\ccO2SmTh.s 			page 10


 539              	.L70:
 540 0088 00480258 		.word	1476544512
 542              		.section	.text.HAL_PWREx_DisableWakeUpPin,"ax",%progbits
 543              		.align	2
 544              		.global	HAL_PWREx_DisableWakeUpPin
 545              		.thumb
 546              		.thumb_func
 548              	HAL_PWREx_DisableWakeUpPin:
 549              		@ args = 0, pretend = 0, frame = 0
 550              		@ frame_needed = 0, uses_anonymous_args = 0
 551              		@ link register save eliminated.
 552 0000 024A     		ldr	r2, .L73
 553 0002 936A     		ldr	r3, [r2, #40]
 554 0004 23EA0000 		bic	r0, r3, r0
 555 0008 9062     		str	r0, [r2, #40]
 556 000a 7047     		bx	lr
 557              	.L74:
 558              		.align	2
 559              	.L73:
 560 000c 00480258 		.word	1476544512
 562              		.section	.text.HAL_PWREx_GetWakeupFlag,"ax",%progbits
 563              		.align	2
 564              		.global	HAL_PWREx_GetWakeupFlag
 565              		.thumb
 566              		.thumb_func
 568              	HAL_PWREx_GetWakeupFlag:
 569              		@ args = 0, pretend = 0, frame = 0
 570              		@ frame_needed = 0, uses_anonymous_args = 0
 571              		@ link register save eliminated.
 572 0000 014B     		ldr	r3, .L76
 573 0002 5B6A     		ldr	r3, [r3, #36]
 574 0004 1840     		ands	r0, r0, r3
 575 0006 7047     		bx	lr
 576              	.L77:
 577              		.align	2
 578              	.L76:
 579 0008 00480258 		.word	1476544512
 581              		.section	.text.HAL_PWREx_ClearWakeupFlag,"ax",%progbits
 582              		.align	2
 583              		.global	HAL_PWREx_ClearWakeupFlag
 584              		.thumb
 585              		.thumb_func
 587              	HAL_PWREx_ClearWakeupFlag:
 588              		@ args = 0, pretend = 0, frame = 0
 589              		@ frame_needed = 0, uses_anonymous_args = 0
 590              		@ link register save eliminated.
 591 0000 054B     		ldr	r3, .L81
 592 0002 1A6A     		ldr	r2, [r3, #32]
 593 0004 0243     		orrs	r2, r2, r0
 594 0006 1A62     		str	r2, [r3, #32]
 595 0008 5B6A     		ldr	r3, [r3, #36]
 596 000a 1842     		tst	r0, r3
 597 000c 01D0     		beq	.L80
 598 000e 0120     		movs	r0, #1
 599 0010 7047     		bx	lr
 600              	.L80:
 601 0012 0020     		movs	r0, #0
ARM GAS  C:\Users\xiaofei\AppData\Local\Temp\ccO2SmTh.s 			page 11


 602 0014 7047     		bx	lr
 603              	.L82:
 604 0016 00BF     		.align	2
 605              	.L81:
 606 0018 00480258 		.word	1476544512
 608              		.section	.text.HAL_PWREx_WKUP1_Callback,"ax",%progbits
 609              		.align	2
 610              		.weak	HAL_PWREx_WKUP1_Callback
 611              		.thumb
 612              		.thumb_func
 614              	HAL_PWREx_WKUP1_Callback:
 615              		@ args = 0, pretend = 0, frame = 0
 616              		@ frame_needed = 0, uses_anonymous_args = 0
 617              		@ link register save eliminated.
 618 0000 7047     		bx	lr
 620 0002 00BF     		.section	.text.HAL_PWREx_WKUP2_Callback,"ax",%progbits
 621              		.align	2
 622              		.weak	HAL_PWREx_WKUP2_Callback
 623              		.thumb
 624              		.thumb_func
 626              	HAL_PWREx_WKUP2_Callback:
 627              		@ args = 0, pretend = 0, frame = 0
 628              		@ frame_needed = 0, uses_anonymous_args = 0
 629              		@ link register save eliminated.
 630 0000 7047     		bx	lr
 632 0002 00BF     		.section	.text.HAL_PWREx_WKUP3_Callback,"ax",%progbits
 633              		.align	2
 634              		.weak	HAL_PWREx_WKUP3_Callback
 635              		.thumb
 636              		.thumb_func
 638              	HAL_PWREx_WKUP3_Callback:
 639              		@ args = 0, pretend = 0, frame = 0
 640              		@ frame_needed = 0, uses_anonymous_args = 0
 641              		@ link register save eliminated.
 642 0000 7047     		bx	lr
 644 0002 00BF     		.section	.text.HAL_PWREx_WKUP4_Callback,"ax",%progbits
 645              		.align	2
 646              		.weak	HAL_PWREx_WKUP4_Callback
 647              		.thumb
 648              		.thumb_func
 650              	HAL_PWREx_WKUP4_Callback:
 651              		@ args = 0, pretend = 0, frame = 0
 652              		@ frame_needed = 0, uses_anonymous_args = 0
 653              		@ link register save eliminated.
 654 0000 7047     		bx	lr
 656 0002 00BF     		.section	.text.HAL_PWREx_WKUP5_Callback,"ax",%progbits
 657              		.align	2
 658              		.weak	HAL_PWREx_WKUP5_Callback
 659              		.thumb
 660              		.thumb_func
 662              	HAL_PWREx_WKUP5_Callback:
 663              		@ args = 0, pretend = 0, frame = 0
 664              		@ frame_needed = 0, uses_anonymous_args = 0
 665              		@ link register save eliminated.
 666 0000 7047     		bx	lr
 668 0002 00BF     		.section	.text.HAL_PWREx_WKUP6_Callback,"ax",%progbits
 669              		.align	2
ARM GAS  C:\Users\xiaofei\AppData\Local\Temp\ccO2SmTh.s 			page 12


 670              		.weak	HAL_PWREx_WKUP6_Callback
 671              		.thumb
 672              		.thumb_func
 674              	HAL_PWREx_WKUP6_Callback:
 675              		@ args = 0, pretend = 0, frame = 0
 676              		@ frame_needed = 0, uses_anonymous_args = 0
 677              		@ link register save eliminated.
 678 0000 7047     		bx	lr
 680 0002 00BF     		.section	.text.HAL_PWREx_WAKEUP_PIN_IRQHandler,"ax",%progbits
 681              		.align	2
 682              		.global	HAL_PWREx_WAKEUP_PIN_IRQHandler
 683              		.thumb
 684              		.thumb_func
 686              	HAL_PWREx_WAKEUP_PIN_IRQHandler:
 687              		@ args = 0, pretend = 0, frame = 0
 688              		@ frame_needed = 0, uses_anonymous_args = 0
 689 0000 08B5     		push	{r3, lr}
 690 0002 244B     		ldr	r3, .L97
 691 0004 5B6A     		ldr	r3, [r3, #36]
 692 0006 13F0010F 		tst	r3, #1
 693 000a 07D0     		beq	.L90
 694 000c 214A     		ldr	r2, .L97
 695 000e 136A     		ldr	r3, [r2, #32]
 696 0010 43F00103 		orr	r3, r3, #1
 697 0014 1362     		str	r3, [r2, #32]
 698 0016 FFF7FEFF 		bl	HAL_PWREx_WKUP1_Callback
 699 001a 08BD     		pop	{r3, pc}
 700              	.L90:
 701 001c 1D4B     		ldr	r3, .L97
 702 001e 5B6A     		ldr	r3, [r3, #36]
 703 0020 13F0020F 		tst	r3, #2
 704 0024 07D0     		beq	.L92
 705 0026 1B4A     		ldr	r2, .L97
 706 0028 136A     		ldr	r3, [r2, #32]
 707 002a 43F00203 		orr	r3, r3, #2
 708 002e 1362     		str	r3, [r2, #32]
 709 0030 FFF7FEFF 		bl	HAL_PWREx_WKUP2_Callback
 710 0034 08BD     		pop	{r3, pc}
 711              	.L92:
 712 0036 174B     		ldr	r3, .L97
 713 0038 5B6A     		ldr	r3, [r3, #36]
 714 003a 13F0040F 		tst	r3, #4
 715 003e 07D0     		beq	.L93
 716 0040 144A     		ldr	r2, .L97
 717 0042 136A     		ldr	r3, [r2, #32]
 718 0044 43F00403 		orr	r3, r3, #4
 719 0048 1362     		str	r3, [r2, #32]
 720 004a FFF7FEFF 		bl	HAL_PWREx_WKUP3_Callback
 721 004e 08BD     		pop	{r3, pc}
 722              	.L93:
 723 0050 104B     		ldr	r3, .L97
 724 0052 5B6A     		ldr	r3, [r3, #36]
 725 0054 13F0080F 		tst	r3, #8
 726 0058 07D0     		beq	.L94
 727 005a 0E4A     		ldr	r2, .L97
 728 005c 136A     		ldr	r3, [r2, #32]
 729 005e 43F00803 		orr	r3, r3, #8
ARM GAS  C:\Users\xiaofei\AppData\Local\Temp\ccO2SmTh.s 			page 13


 730 0062 1362     		str	r3, [r2, #32]
 731 0064 FFF7FEFF 		bl	HAL_PWREx_WKUP4_Callback
 732 0068 08BD     		pop	{r3, pc}
 733              	.L94:
 734 006a 0A4B     		ldr	r3, .L97
 735 006c 5B6A     		ldr	r3, [r3, #36]
 736 006e 13F0100F 		tst	r3, #16
 737 0072 07D0     		beq	.L95
 738 0074 074A     		ldr	r2, .L97
 739 0076 136A     		ldr	r3, [r2, #32]
 740 0078 43F01003 		orr	r3, r3, #16
 741 007c 1362     		str	r3, [r2, #32]
 742 007e FFF7FEFF 		bl	HAL_PWREx_WKUP5_Callback
 743 0082 08BD     		pop	{r3, pc}
 744              	.L95:
 745 0084 034A     		ldr	r2, .L97
 746 0086 136A     		ldr	r3, [r2, #32]
 747 0088 43F02003 		orr	r3, r3, #32
 748 008c 1362     		str	r3, [r2, #32]
 749 008e FFF7FEFF 		bl	HAL_PWREx_WKUP6_Callback
 750 0092 08BD     		pop	{r3, pc}
 751              	.L98:
 752              		.align	2
 753              	.L97:
 754 0094 00480258 		.word	1476544512
 756              		.section	.text.HAL_PWREx_EnableBkUpReg,"ax",%progbits
 757              		.align	2
 758              		.global	HAL_PWREx_EnableBkUpReg
 759              		.thumb
 760              		.thumb_func
 762              	HAL_PWREx_EnableBkUpReg:
 763              		@ args = 0, pretend = 0, frame = 0
 764              		@ frame_needed = 0, uses_anonymous_args = 0
 765 0000 10B5     		push	{r4, lr}
 766 0002 0C4A     		ldr	r2, .L105
 767 0004 9368     		ldr	r3, [r2, #8]
 768 0006 43F00103 		orr	r3, r3, #1
 769 000a 9360     		str	r3, [r2, #8]
 770 000c FFF7FEFF 		bl	HAL_GetTick
 771 0010 0446     		mov	r4, r0
 772 0012 05E0     		b	.L100
 773              	.L102:
 774 0014 FFF7FEFF 		bl	HAL_GetTick
 775 0018 001B     		subs	r0, r0, r4
 776 001a B0F57A7F 		cmp	r0, #1000
 777 001e 06D8     		bhi	.L103
 778              	.L100:
 779 0020 044B     		ldr	r3, .L105
 780 0022 9B68     		ldr	r3, [r3, #8]
 781 0024 13F4803F 		tst	r3, #65536
 782 0028 F4D0     		beq	.L102
 783 002a 0020     		movs	r0, #0
 784 002c 10BD     		pop	{r4, pc}
 785              	.L103:
 786 002e 0120     		movs	r0, #1
 787 0030 10BD     		pop	{r4, pc}
 788              	.L106:
ARM GAS  C:\Users\xiaofei\AppData\Local\Temp\ccO2SmTh.s 			page 14


 789 0032 00BF     		.align	2
 790              	.L105:
 791 0034 00480258 		.word	1476544512
 793              		.section	.text.HAL_PWREx_DisableBkUpReg,"ax",%progbits
 794              		.align	2
 795              		.global	HAL_PWREx_DisableBkUpReg
 796              		.thumb
 797              		.thumb_func
 799              	HAL_PWREx_DisableBkUpReg:
 800              		@ args = 0, pretend = 0, frame = 0
 801              		@ frame_needed = 0, uses_anonymous_args = 0
 802 0000 10B5     		push	{r4, lr}
 803 0002 0C4A     		ldr	r2, .L113
 804 0004 9368     		ldr	r3, [r2, #8]
 805 0006 23F00103 		bic	r3, r3, #1
 806 000a 9360     		str	r3, [r2, #8]
 807 000c FFF7FEFF 		bl	HAL_GetTick
 808 0010 0446     		mov	r4, r0
 809 0012 05E0     		b	.L108
 810              	.L110:
 811 0014 FFF7FEFF 		bl	HAL_GetTick
 812 0018 001B     		subs	r0, r0, r4
 813 001a B0F57A7F 		cmp	r0, #1000
 814 001e 06D8     		bhi	.L111
 815              	.L108:
 816 0020 044B     		ldr	r3, .L113
 817 0022 9B68     		ldr	r3, [r3, #8]
 818 0024 13F4803F 		tst	r3, #65536
 819 0028 F4D1     		bne	.L110
 820 002a 0020     		movs	r0, #0
 821 002c 10BD     		pop	{r4, pc}
 822              	.L111:
 823 002e 0120     		movs	r0, #1
 824 0030 10BD     		pop	{r4, pc}
 825              	.L114:
 826 0032 00BF     		.align	2
 827              	.L113:
 828 0034 00480258 		.word	1476544512
 830              		.section	.text.HAL_PWREx_EnableUSBReg,"ax",%progbits
 831              		.align	2
 832              		.global	HAL_PWREx_EnableUSBReg
 833              		.thumb
 834              		.thumb_func
 836              	HAL_PWREx_EnableUSBReg:
 837              		@ args = 0, pretend = 0, frame = 0
 838              		@ frame_needed = 0, uses_anonymous_args = 0
 839 0000 10B5     		push	{r4, lr}
 840 0002 0C4A     		ldr	r2, .L121
 841 0004 D368     		ldr	r3, [r2, #12]
 842 0006 43F00073 		orr	r3, r3, #33554432
 843 000a D360     		str	r3, [r2, #12]
 844 000c FFF7FEFF 		bl	HAL_GetTick
 845 0010 0446     		mov	r4, r0
 846 0012 05E0     		b	.L116
 847              	.L118:
 848 0014 FFF7FEFF 		bl	HAL_GetTick
 849 0018 001B     		subs	r0, r0, r4
ARM GAS  C:\Users\xiaofei\AppData\Local\Temp\ccO2SmTh.s 			page 15


 850 001a B0F57A7F 		cmp	r0, #1000
 851 001e 06D8     		bhi	.L119
 852              	.L116:
 853 0020 044B     		ldr	r3, .L121
 854 0022 DB68     		ldr	r3, [r3, #12]
 855 0024 13F0806F 		tst	r3, #67108864
 856 0028 F4D0     		beq	.L118
 857 002a 0020     		movs	r0, #0
 858 002c 10BD     		pop	{r4, pc}
 859              	.L119:
 860 002e 0120     		movs	r0, #1
 861 0030 10BD     		pop	{r4, pc}
 862              	.L122:
 863 0032 00BF     		.align	2
 864              	.L121:
 865 0034 00480258 		.word	1476544512
 867              		.section	.text.HAL_PWREx_DisableUSBReg,"ax",%progbits
 868              		.align	2
 869              		.global	HAL_PWREx_DisableUSBReg
 870              		.thumb
 871              		.thumb_func
 873              	HAL_PWREx_DisableUSBReg:
 874              		@ args = 0, pretend = 0, frame = 0
 875              		@ frame_needed = 0, uses_anonymous_args = 0
 876 0000 10B5     		push	{r4, lr}
 877 0002 0C4A     		ldr	r2, .L129
 878 0004 D368     		ldr	r3, [r2, #12]
 879 0006 23F00073 		bic	r3, r3, #33554432
 880 000a D360     		str	r3, [r2, #12]
 881 000c FFF7FEFF 		bl	HAL_GetTick
 882 0010 0446     		mov	r4, r0
 883 0012 05E0     		b	.L124
 884              	.L126:
 885 0014 FFF7FEFF 		bl	HAL_GetTick
 886 0018 001B     		subs	r0, r0, r4
 887 001a B0F57A7F 		cmp	r0, #1000
 888 001e 06D8     		bhi	.L127
 889              	.L124:
 890 0020 044B     		ldr	r3, .L129
 891 0022 DB68     		ldr	r3, [r3, #12]
 892 0024 13F0806F 		tst	r3, #67108864
 893 0028 F4D1     		bne	.L126
 894 002a 0020     		movs	r0, #0
 895 002c 10BD     		pop	{r4, pc}
 896              	.L127:
 897 002e 0120     		movs	r0, #1
 898 0030 10BD     		pop	{r4, pc}
 899              	.L130:
 900 0032 00BF     		.align	2
 901              	.L129:
 902 0034 00480258 		.word	1476544512
 904              		.section	.text.HAL_PWREx_EnableUSBVoltageDetector,"ax",%progbits
 905              		.align	2
 906              		.global	HAL_PWREx_EnableUSBVoltageDetector
 907              		.thumb
 908              		.thumb_func
 910              	HAL_PWREx_EnableUSBVoltageDetector:
ARM GAS  C:\Users\xiaofei\AppData\Local\Temp\ccO2SmTh.s 			page 16


 911              		@ args = 0, pretend = 0, frame = 0
 912              		@ frame_needed = 0, uses_anonymous_args = 0
 913              		@ link register save eliminated.
 914 0000 024A     		ldr	r2, .L132
 915 0002 D368     		ldr	r3, [r2, #12]
 916 0004 43F08073 		orr	r3, r3, #16777216
 917 0008 D360     		str	r3, [r2, #12]
 918 000a 7047     		bx	lr
 919              	.L133:
 920              		.align	2
 921              	.L132:
 922 000c 00480258 		.word	1476544512
 924              		.section	.text.HAL_PWREx_DisableUSBVoltageDetector,"ax",%progbits
 925              		.align	2
 926              		.global	HAL_PWREx_DisableUSBVoltageDetector
 927              		.thumb
 928              		.thumb_func
 930              	HAL_PWREx_DisableUSBVoltageDetector:
 931              		@ args = 0, pretend = 0, frame = 0
 932              		@ frame_needed = 0, uses_anonymous_args = 0
 933              		@ link register save eliminated.
 934 0000 024A     		ldr	r2, .L135
 935 0002 D368     		ldr	r3, [r2, #12]
 936 0004 23F08073 		bic	r3, r3, #16777216
 937 0008 D360     		str	r3, [r2, #12]
 938 000a 7047     		bx	lr
 939              	.L136:
 940              		.align	2
 941              	.L135:
 942 000c 00480258 		.word	1476544512
 944              		.section	.text.HAL_PWREx_EnableBatteryCharging,"ax",%progbits
 945              		.align	2
 946              		.global	HAL_PWREx_EnableBatteryCharging
 947              		.thumb
 948              		.thumb_func
 950              	HAL_PWREx_EnableBatteryCharging:
 951              		@ args = 0, pretend = 0, frame = 0
 952              		@ frame_needed = 0, uses_anonymous_args = 0
 953              		@ link register save eliminated.
 954 0000 054A     		ldr	r2, .L138
 955 0002 D368     		ldr	r3, [r2, #12]
 956 0004 23F40073 		bic	r3, r3, #512
 957 0008 1843     		orrs	r0, r0, r3
 958 000a D060     		str	r0, [r2, #12]
 959 000c D368     		ldr	r3, [r2, #12]
 960 000e 43F48073 		orr	r3, r3, #256
 961 0012 D360     		str	r3, [r2, #12]
 962 0014 7047     		bx	lr
 963              	.L139:
 964 0016 00BF     		.align	2
 965              	.L138:
 966 0018 00480258 		.word	1476544512
 968              		.section	.text.HAL_PWREx_DisableBatteryCharging,"ax",%progbits
 969              		.align	2
 970              		.global	HAL_PWREx_DisableBatteryCharging
 971              		.thumb
 972              		.thumb_func
ARM GAS  C:\Users\xiaofei\AppData\Local\Temp\ccO2SmTh.s 			page 17


 974              	HAL_PWREx_DisableBatteryCharging:
 975              		@ args = 0, pretend = 0, frame = 0
 976              		@ frame_needed = 0, uses_anonymous_args = 0
 977              		@ link register save eliminated.
 978 0000 024A     		ldr	r2, .L141
 979 0002 D368     		ldr	r3, [r2, #12]
 980 0004 23F48073 		bic	r3, r3, #256
 981 0008 D360     		str	r3, [r2, #12]
 982 000a 7047     		bx	lr
 983              	.L142:
 984              		.align	2
 985              	.L141:
 986 000c 00480258 		.word	1476544512
 988              		.section	.text.HAL_PWREx_EnableMonitoring,"ax",%progbits
 989              		.align	2
 990              		.global	HAL_PWREx_EnableMonitoring
 991              		.thumb
 992              		.thumb_func
 994              	HAL_PWREx_EnableMonitoring:
 995              		@ args = 0, pretend = 0, frame = 0
 996              		@ frame_needed = 0, uses_anonymous_args = 0
 997              		@ link register save eliminated.
 998 0000 024A     		ldr	r2, .L144
 999 0002 9368     		ldr	r3, [r2, #8]
 1000 0004 43F01003 		orr	r3, r3, #16
 1001 0008 9360     		str	r3, [r2, #8]
 1002 000a 7047     		bx	lr
 1003              	.L145:
 1004              		.align	2
 1005              	.L144:
 1006 000c 00480258 		.word	1476544512
 1008              		.section	.text.HAL_PWREx_DisableMonitoring,"ax",%progbits
 1009              		.align	2
 1010              		.global	HAL_PWREx_DisableMonitoring
 1011              		.thumb
 1012              		.thumb_func
 1014              	HAL_PWREx_DisableMonitoring:
 1015              		@ args = 0, pretend = 0, frame = 0
 1016              		@ frame_needed = 0, uses_anonymous_args = 0
 1017              		@ link register save eliminated.
 1018 0000 024A     		ldr	r2, .L147
 1019 0002 9368     		ldr	r3, [r2, #8]
 1020 0004 23F01003 		bic	r3, r3, #16
 1021 0008 9360     		str	r3, [r2, #8]
 1022 000a 7047     		bx	lr
 1023              	.L148:
 1024              		.align	2
 1025              	.L147:
 1026 000c 00480258 		.word	1476544512
 1028              		.section	.text.HAL_PWREx_GetTemperatureLevel,"ax",%progbits
 1029              		.align	2
 1030              		.global	HAL_PWREx_GetTemperatureLevel
 1031              		.thumb
 1032              		.thumb_func
 1034              	HAL_PWREx_GetTemperatureLevel:
 1035              		@ args = 0, pretend = 0, frame = 0
 1036              		@ frame_needed = 0, uses_anonymous_args = 0
ARM GAS  C:\Users\xiaofei\AppData\Local\Temp\ccO2SmTh.s 			page 18


 1037              		@ link register save eliminated.
 1038 0000 084B     		ldr	r3, .L153
 1039 0002 9B68     		ldr	r3, [r3, #8]
 1040 0004 03F44003 		and	r3, r3, #12582912
 1041 0008 B3F5800F 		cmp	r3, #4194304
 1042 000c 05D0     		beq	.L151
 1043 000e B3F5000F 		cmp	r3, #8388608
 1044 0012 05D1     		bne	.L152
 1045 0014 4FF40000 		mov	r0, #8388608
 1046 0018 7047     		bx	lr
 1047              	.L151:
 1048 001a 4FF48000 		mov	r0, #4194304
 1049 001e 7047     		bx	lr
 1050              	.L152:
 1051 0020 0020     		movs	r0, #0
 1052 0022 7047     		bx	lr
 1053              	.L154:
 1054              		.align	2
 1055              	.L153:
 1056 0024 00480258 		.word	1476544512
 1058              		.section	.text.HAL_PWREx_GetVBATLevel,"ax",%progbits
 1059              		.align	2
 1060              		.global	HAL_PWREx_GetVBATLevel
 1061              		.thumb
 1062              		.thumb_func
 1064              	HAL_PWREx_GetVBATLevel:
 1065              		@ args = 0, pretend = 0, frame = 0
 1066              		@ frame_needed = 0, uses_anonymous_args = 0
 1067              		@ link register save eliminated.
 1068 0000 084B     		ldr	r3, .L159
 1069 0002 9B68     		ldr	r3, [r3, #8]
 1070 0004 03F44013 		and	r3, r3, #3145728
 1071 0008 B3F5801F 		cmp	r3, #1048576
 1072 000c 05D0     		beq	.L157
 1073 000e B3F5001F 		cmp	r3, #2097152
 1074 0012 05D1     		bne	.L158
 1075 0014 4FF40010 		mov	r0, #2097152
 1076 0018 7047     		bx	lr
 1077              	.L157:
 1078 001a 4FF48010 		mov	r0, #1048576
 1079 001e 7047     		bx	lr
 1080              	.L158:
 1081 0020 0020     		movs	r0, #0
 1082 0022 7047     		bx	lr
 1083              	.L160:
 1084              		.align	2
 1085              	.L159:
 1086 0024 00480258 		.word	1476544512
 1088              		.section	.text.HAL_PWREx_ConfigAVD,"ax",%progbits
 1089              		.align	2
 1090              		.global	HAL_PWREx_ConfigAVD
 1091              		.thumb
 1092              		.thumb_func
 1094              	HAL_PWREx_ConfigAVD:
 1095              		@ args = 0, pretend = 0, frame = 0
 1096              		@ frame_needed = 0, uses_anonymous_args = 0
 1097              		@ link register save eliminated.
ARM GAS  C:\Users\xiaofei\AppData\Local\Temp\ccO2SmTh.s 			page 19


 1098 0000 2449     		ldr	r1, .L166
 1099 0002 0B68     		ldr	r3, [r1]
 1100 0004 23F4C022 		bic	r2, r3, #393216
 1101 0008 0368     		ldr	r3, [r0]
 1102 000a 1343     		orrs	r3, r3, r2
 1103 000c 0B60     		str	r3, [r1]
 1104 000e 4FF0B043 		mov	r3, #1476395008
 1105 0012 D3F88420 		ldr	r2, [r3, #132]
 1106 0016 22F48032 		bic	r2, r2, #65536
 1107 001a C3F88420 		str	r2, [r3, #132]
 1108 001e D3F88020 		ldr	r2, [r3, #128]
 1109 0022 22F48032 		bic	r2, r2, #65536
 1110 0026 C3F88020 		str	r2, [r3, #128]
 1111 002a 1A68     		ldr	r2, [r3]
 1112 002c 22F48032 		bic	r2, r2, #65536
 1113 0030 1A60     		str	r2, [r3]
 1114 0032 5A68     		ldr	r2, [r3, #4]
 1115 0034 22F48032 		bic	r2, r2, #65536
 1116 0038 5A60     		str	r2, [r3, #4]
 1117 003a 4368     		ldr	r3, [r0, #4]
 1118 003c 13F4803F 		tst	r3, #65536
 1119 0040 07D0     		beq	.L162
 1120 0042 4FF0B042 		mov	r2, #1476395008
 1121 0046 D2F88030 		ldr	r3, [r2, #128]
 1122 004a 43F48033 		orr	r3, r3, #65536
 1123 004e C2F88030 		str	r3, [r2, #128]
 1124              	.L162:
 1125 0052 4368     		ldr	r3, [r0, #4]
 1126 0054 13F4003F 		tst	r3, #131072
 1127 0058 07D0     		beq	.L163
 1128 005a 4FF0B042 		mov	r2, #1476395008
 1129 005e D2F88430 		ldr	r3, [r2, #132]
 1130 0062 43F48033 		orr	r3, r3, #65536
 1131 0066 C2F88430 		str	r3, [r2, #132]
 1132              	.L163:
 1133 006a 4368     		ldr	r3, [r0, #4]
 1134 006c 13F0010F 		tst	r3, #1
 1135 0070 05D0     		beq	.L164
 1136 0072 4FF0B042 		mov	r2, #1476395008
 1137 0076 1368     		ldr	r3, [r2]
 1138 0078 43F48033 		orr	r3, r3, #65536
 1139 007c 1360     		str	r3, [r2]
 1140              	.L164:
 1141 007e 4368     		ldr	r3, [r0, #4]
 1142 0080 13F0020F 		tst	r3, #2
 1143 0084 05D0     		beq	.L161
 1144 0086 4FF0B042 		mov	r2, #1476395008
 1145 008a 5368     		ldr	r3, [r2, #4]
 1146 008c 43F48033 		orr	r3, r3, #65536
 1147 0090 5360     		str	r3, [r2, #4]
 1148              	.L161:
 1149 0092 7047     		bx	lr
 1150              	.L167:
 1151              		.align	2
 1152              	.L166:
 1153 0094 00480258 		.word	1476544512
 1155              		.section	.text.HAL_PWREx_EnableAVD,"ax",%progbits
ARM GAS  C:\Users\xiaofei\AppData\Local\Temp\ccO2SmTh.s 			page 20


 1156              		.align	2
 1157              		.global	HAL_PWREx_EnableAVD
 1158              		.thumb
 1159              		.thumb_func
 1161              	HAL_PWREx_EnableAVD:
 1162              		@ args = 0, pretend = 0, frame = 0
 1163              		@ frame_needed = 0, uses_anonymous_args = 0
 1164              		@ link register save eliminated.
 1165 0000 024A     		ldr	r2, .L169
 1166 0002 1368     		ldr	r3, [r2]
 1167 0004 43F48033 		orr	r3, r3, #65536
 1168 0008 1360     		str	r3, [r2]
 1169 000a 7047     		bx	lr
 1170              	.L170:
 1171              		.align	2
 1172              	.L169:
 1173 000c 00480258 		.word	1476544512
 1175              		.section	.text.HAL_PWREx_DisableAVD,"ax",%progbits
 1176              		.align	2
 1177              		.global	HAL_PWREx_DisableAVD
 1178              		.thumb
 1179              		.thumb_func
 1181              	HAL_PWREx_DisableAVD:
 1182              		@ args = 0, pretend = 0, frame = 0
 1183              		@ frame_needed = 0, uses_anonymous_args = 0
 1184              		@ link register save eliminated.
 1185 0000 024A     		ldr	r2, .L172
 1186 0002 1368     		ldr	r3, [r2]
 1187 0004 23F48033 		bic	r3, r3, #65536
 1188 0008 1360     		str	r3, [r2]
 1189 000a 7047     		bx	lr
 1190              	.L173:
 1191              		.align	2
 1192              	.L172:
 1193 000c 00480258 		.word	1476544512
 1195              		.section	.text.HAL_PWREx_AVDCallback,"ax",%progbits
 1196              		.align	2
 1197              		.weak	HAL_PWREx_AVDCallback
 1198              		.thumb
 1199              		.thumb_func
 1201              	HAL_PWREx_AVDCallback:
 1202              		@ args = 0, pretend = 0, frame = 0
 1203              		@ frame_needed = 0, uses_anonymous_args = 0
 1204              		@ link register save eliminated.
 1205 0000 7047     		bx	lr
 1207 0002 00BF     		.section	.text.HAL_PWREx_PVD_AVD_IRQHandler,"ax",%progbits
 1208              		.align	2
 1209              		.global	HAL_PWREx_PVD_AVD_IRQHandler
 1210              		.thumb
 1211              		.thumb_func
 1213              	HAL_PWREx_PVD_AVD_IRQHandler:
 1214              		@ args = 0, pretend = 0, frame = 0
 1215              		@ frame_needed = 0, uses_anonymous_args = 0
 1216 0000 08B5     		push	{r3, lr}
 1217 0002 164B     		ldr	r3, .L179
 1218 0004 1B68     		ldr	r3, [r3]
 1219 0006 13F0100F 		tst	r3, #16
ARM GAS  C:\Users\xiaofei\AppData\Local\Temp\ccO2SmTh.s 			page 21


 1220 000a 10D0     		beq	.L176
 1221 000c 4FF0B043 		mov	r3, #1476395008
 1222 0010 D3F88830 		ldr	r3, [r3, #136]
 1223 0014 13F4803F 		tst	r3, #65536
 1224 0018 09D0     		beq	.L176
 1225 001a FFF7FEFF 		bl	HAL_PWR_PVDCallback
 1226 001e 4FF0B042 		mov	r2, #1476395008
 1227 0022 D2F88830 		ldr	r3, [r2, #136]
 1228 0026 43F48033 		orr	r3, r3, #65536
 1229 002a C2F88830 		str	r3, [r2, #136]
 1230              	.L176:
 1231 002e 0B4B     		ldr	r3, .L179
 1232 0030 1B68     		ldr	r3, [r3]
 1233 0032 13F4803F 		tst	r3, #65536
 1234 0036 10D0     		beq	.L175
 1235 0038 4FF0B043 		mov	r3, #1476395008
 1236 003c D3F88830 		ldr	r3, [r3, #136]
 1237 0040 13F4803F 		tst	r3, #65536
 1238 0044 09D0     		beq	.L175
 1239 0046 FFF7FEFF 		bl	HAL_PWREx_AVDCallback
 1240 004a 4FF0B042 		mov	r2, #1476395008
 1241 004e D2F88830 		ldr	r3, [r2, #136]
 1242 0052 43F48033 		orr	r3, r3, #65536
 1243 0056 C2F88830 		str	r3, [r2, #136]
 1244              	.L175:
 1245 005a 08BD     		pop	{r3, pc}
 1246              	.L180:
 1247              		.align	2
 1248              	.L179:
 1249 005c 00480258 		.word	1476544512
 1251              		.ident	"GCC: (GNU Tools for ARM Embedded Processors) 5.4.1 20160919 (release) [ARM/embedded-5-bran
ARM GAS  C:\Users\xiaofei\AppData\Local\Temp\ccO2SmTh.s 			page 22

