ARM GAS  C:\Users\xiaofei\AppData\Local\Temp\cccSmIPO.s 			page 1


   1              		.syntax unified
   2              		.cpu cortex-m7
   3              		.eabi_attribute 28, 1
   4              		.fpu fpv5-d16
   5              		.eabi_attribute 20, 1
   6              		.eabi_attribute 21, 1
   7              		.eabi_attribute 23, 3
   8              		.eabi_attribute 24, 1
   9              		.eabi_attribute 25, 1
  10              		.eabi_attribute 26, 1
  11              		.eabi_attribute 30, 1
  12              		.eabi_attribute 34, 1
  13              		.eabi_attribute 18, 4
  14              		.thumb
  15              		.syntax unified
  16              		.file	"stm32h7xx_hal_uart.c"
  17              		.section	.text.UART_EndTxTransfer,"ax",%progbits
  18              		.align	2
  19              		.thumb
  20              		.thumb_func
  22              	UART_EndTxTransfer:
  23              		@ args = 0, pretend = 0, frame = 0
  24              		@ frame_needed = 0, uses_anonymous_args = 0
  25              		@ link register save eliminated.
  26 0000 0268     		ldr	r2, [r0]
  27 0002 1368     		ldr	r3, [r2]
  28 0004 23F0C003 		bic	r3, r3, #192
  29 0008 1360     		str	r3, [r2]
  30 000a 0268     		ldr	r2, [r0]
  31 000c 9368     		ldr	r3, [r2, #8]
  32 000e 23F40003 		bic	r3, r3, #8388608
  33 0012 9360     		str	r3, [r2, #8]
  34 0014 2023     		movs	r3, #32
  35 0016 C0F88030 		str	r3, [r0, #128]
  36 001a 7047     		bx	lr
  38              		.section	.text.UART_EndRxTransfer,"ax",%progbits
  39              		.align	2
  40              		.thumb
  41              		.thumb_func
  43              	UART_EndRxTransfer:
  44              		@ args = 0, pretend = 0, frame = 0
  45              		@ frame_needed = 0, uses_anonymous_args = 0
  46              		@ link register save eliminated.
  47 0000 0268     		ldr	r2, [r0]
  48 0002 1368     		ldr	r3, [r2]
  49 0004 23F49073 		bic	r3, r3, #288
  50 0008 1360     		str	r3, [r2]
  51 000a 0268     		ldr	r2, [r0]
  52 000c 9168     		ldr	r1, [r2, #8]
  53 000e 044B     		ldr	r3, .L3
  54 0010 0B40     		ands	r3, r3, r1
  55 0012 9360     		str	r3, [r2, #8]
  56 0014 2023     		movs	r3, #32
  57 0016 C0F88430 		str	r3, [r0, #132]
  58 001a 0023     		movs	r3, #0
  59 001c C366     		str	r3, [r0, #108]
  60 001e 7047     		bx	lr
ARM GAS  C:\Users\xiaofei\AppData\Local\Temp\cccSmIPO.s 			page 2


  61              	.L4:
  62              		.align	2
  63              	.L3:
  64 0020 FEFFFFEF 		.word	-268435458
  66              		.section	.text.UART_TxISR_8BIT,"ax",%progbits
  67              		.align	2
  68              		.thumb
  69              		.thumb_func
  71              	UART_TxISR_8BIT:
  72              		@ args = 0, pretend = 0, frame = 0
  73              		@ frame_needed = 0, uses_anonymous_args = 0
  74              		@ link register save eliminated.
  75 0000 D0F88030 		ldr	r3, [r0, #128]
  76 0004 212B     		cmp	r3, #33
  77 0006 1CD1     		bne	.L5
  78 0008 B0F85630 		ldrh	r3, [r0, #86]
  79 000c 9BB2     		uxth	r3, r3
  80 000e 53B9     		cbnz	r3, .L7
  81 0010 0268     		ldr	r2, [r0]
  82 0012 1368     		ldr	r3, [r2]
  83 0014 23F08003 		bic	r3, r3, #128
  84 0018 1360     		str	r3, [r2]
  85 001a 0268     		ldr	r2, [r0]
  86 001c 1368     		ldr	r3, [r2]
  87 001e 43F04003 		orr	r3, r3, #64
  88 0022 1360     		str	r3, [r2]
  89 0024 7047     		bx	lr
  90              	.L7:
  91 0026 0368     		ldr	r3, [r0]
  92 0028 026D     		ldr	r2, [r0, #80]
  93 002a 1278     		ldrb	r2, [r2]	@ zero_extendqisi2
  94 002c 9A62     		str	r2, [r3, #40]
  95 002e 036D     		ldr	r3, [r0, #80]
  96 0030 0133     		adds	r3, r3, #1
  97 0032 0365     		str	r3, [r0, #80]
  98 0034 B0F85630 		ldrh	r3, [r0, #86]
  99 0038 9BB2     		uxth	r3, r3
 100 003a 013B     		subs	r3, r3, #1
 101 003c 9BB2     		uxth	r3, r3
 102 003e A0F85630 		strh	r3, [r0, #86]	@ movhi
 103              	.L5:
 104 0042 7047     		bx	lr
 106              		.section	.text.UART_TxISR_16BIT,"ax",%progbits
 107              		.align	2
 108              		.thumb
 109              		.thumb_func
 111              	UART_TxISR_16BIT:
 112              		@ args = 0, pretend = 0, frame = 0
 113              		@ frame_needed = 0, uses_anonymous_args = 0
 114              		@ link register save eliminated.
 115 0000 D0F88030 		ldr	r3, [r0, #128]
 116 0004 212B     		cmp	r3, #33
 117 0006 1ED1     		bne	.L8
 118 0008 B0F85630 		ldrh	r3, [r0, #86]
 119 000c 9BB2     		uxth	r3, r3
 120 000e 53B9     		cbnz	r3, .L10
 121 0010 0268     		ldr	r2, [r0]
ARM GAS  C:\Users\xiaofei\AppData\Local\Temp\cccSmIPO.s 			page 3


 122 0012 1368     		ldr	r3, [r2]
 123 0014 23F08003 		bic	r3, r3, #128
 124 0018 1360     		str	r3, [r2]
 125 001a 0268     		ldr	r2, [r0]
 126 001c 1368     		ldr	r3, [r2]
 127 001e 43F04003 		orr	r3, r3, #64
 128 0022 1360     		str	r3, [r2]
 129 0024 7047     		bx	lr
 130              	.L10:
 131 0026 036D     		ldr	r3, [r0, #80]
 132 0028 0268     		ldr	r2, [r0]
 133 002a 1B88     		ldrh	r3, [r3]
 134 002c C3F30803 		ubfx	r3, r3, #0, #9
 135 0030 9362     		str	r3, [r2, #40]
 136 0032 036D     		ldr	r3, [r0, #80]
 137 0034 0233     		adds	r3, r3, #2
 138 0036 0365     		str	r3, [r0, #80]
 139 0038 B0F85630 		ldrh	r3, [r0, #86]
 140 003c 9BB2     		uxth	r3, r3
 141 003e 013B     		subs	r3, r3, #1
 142 0040 9BB2     		uxth	r3, r3
 143 0042 A0F85630 		strh	r3, [r0, #86]	@ movhi
 144              	.L8:
 145 0046 7047     		bx	lr
 147              		.section	.text.UART_TxISR_8BIT_FIFOEN,"ax",%progbits
 148              		.align	2
 149              		.thumb
 150              		.thumb_func
 152              	UART_TxISR_8BIT_FIFOEN:
 153              		@ args = 0, pretend = 0, frame = 0
 154              		@ frame_needed = 0, uses_anonymous_args = 0
 155              		@ link register save eliminated.
 156 0000 D0F88030 		ldr	r3, [r0, #128]
 157 0004 212B     		cmp	r3, #33
 158 0006 27D1     		bne	.L11
 159 0008 B0F86A30 		ldrh	r3, [r0, #106]
 160 000c 22E0     		b	.L13
 161              	.L16:
 162 000e B0F85620 		ldrh	r2, [r0, #86]
 163 0012 92B2     		uxth	r2, r2
 164 0014 52B9     		cbnz	r2, .L14
 165 0016 0268     		ldr	r2, [r0]
 166 0018 9368     		ldr	r3, [r2, #8]
 167 001a 23F40003 		bic	r3, r3, #8388608
 168 001e 9360     		str	r3, [r2, #8]
 169 0020 0268     		ldr	r2, [r0]
 170 0022 1368     		ldr	r3, [r2]
 171 0024 43F04003 		orr	r3, r3, #64
 172 0028 1360     		str	r3, [r2]
 173 002a 7047     		bx	lr
 174              	.L14:
 175 002c 0268     		ldr	r2, [r0]
 176 002e D169     		ldr	r1, [r2, #28]
 177 0030 11F0800F 		tst	r1, #128
 178 0034 0CD0     		beq	.L15
 179 0036 016D     		ldr	r1, [r0, #80]
 180 0038 0978     		ldrb	r1, [r1]	@ zero_extendqisi2
ARM GAS  C:\Users\xiaofei\AppData\Local\Temp\cccSmIPO.s 			page 4


 181 003a 9162     		str	r1, [r2, #40]
 182 003c 026D     		ldr	r2, [r0, #80]
 183 003e 0132     		adds	r2, r2, #1
 184 0040 0265     		str	r2, [r0, #80]
 185 0042 B0F85620 		ldrh	r2, [r0, #86]
 186 0046 92B2     		uxth	r2, r2
 187 0048 013A     		subs	r2, r2, #1
 188 004a 92B2     		uxth	r2, r2
 189 004c A0F85620 		strh	r2, [r0, #86]	@ movhi
 190              	.L15:
 191 0050 013B     		subs	r3, r3, #1
 192 0052 9BB2     		uxth	r3, r3
 193              	.L13:
 194 0054 002B     		cmp	r3, #0
 195 0056 DAD1     		bne	.L16
 196              	.L11:
 197 0058 7047     		bx	lr
 199 005a 00BF     		.section	.text.UART_TxISR_16BIT_FIFOEN,"ax",%progbits
 200              		.align	2
 201              		.thumb
 202              		.thumb_func
 204              	UART_TxISR_16BIT_FIFOEN:
 205              		@ args = 0, pretend = 0, frame = 0
 206              		@ frame_needed = 0, uses_anonymous_args = 0
 207              		@ link register save eliminated.
 208 0000 D0F88030 		ldr	r3, [r0, #128]
 209 0004 212B     		cmp	r3, #33
 210 0006 29D1     		bne	.L17
 211 0008 B0F86A30 		ldrh	r3, [r0, #106]
 212 000c 24E0     		b	.L19
 213              	.L22:
 214 000e B0F85620 		ldrh	r2, [r0, #86]
 215 0012 92B2     		uxth	r2, r2
 216 0014 52B9     		cbnz	r2, .L20
 217 0016 0268     		ldr	r2, [r0]
 218 0018 9368     		ldr	r3, [r2, #8]
 219 001a 23F40003 		bic	r3, r3, #8388608
 220 001e 9360     		str	r3, [r2, #8]
 221 0020 0268     		ldr	r2, [r0]
 222 0022 1368     		ldr	r3, [r2]
 223 0024 43F04003 		orr	r3, r3, #64
 224 0028 1360     		str	r3, [r2]
 225 002a 7047     		bx	lr
 226              	.L20:
 227 002c 0268     		ldr	r2, [r0]
 228 002e D169     		ldr	r1, [r2, #28]
 229 0030 11F0800F 		tst	r1, #128
 230 0034 0ED0     		beq	.L21
 231 0036 016D     		ldr	r1, [r0, #80]
 232 0038 0988     		ldrh	r1, [r1]
 233 003a C1F30801 		ubfx	r1, r1, #0, #9
 234 003e 9162     		str	r1, [r2, #40]
 235 0040 026D     		ldr	r2, [r0, #80]
 236 0042 0232     		adds	r2, r2, #2
 237 0044 0265     		str	r2, [r0, #80]
 238 0046 B0F85620 		ldrh	r2, [r0, #86]
 239 004a 92B2     		uxth	r2, r2
ARM GAS  C:\Users\xiaofei\AppData\Local\Temp\cccSmIPO.s 			page 5


 240 004c 013A     		subs	r2, r2, #1
 241 004e 92B2     		uxth	r2, r2
 242 0050 A0F85620 		strh	r2, [r0, #86]	@ movhi
 243              	.L21:
 244 0054 013B     		subs	r3, r3, #1
 245 0056 9BB2     		uxth	r3, r3
 246              	.L19:
 247 0058 002B     		cmp	r3, #0
 248 005a D8D1     		bne	.L22
 249              	.L17:
 250 005c 7047     		bx	lr
 252 005e 00BF     		.section	.text.HAL_UART_MspInit,"ax",%progbits
 253              		.align	2
 254              		.weak	HAL_UART_MspInit
 255              		.thumb
 256              		.thumb_func
 258              	HAL_UART_MspInit:
 259              		@ args = 0, pretend = 0, frame = 0
 260              		@ frame_needed = 0, uses_anonymous_args = 0
 261              		@ link register save eliminated.
 262 0000 7047     		bx	lr
 264 0002 00BF     		.section	.text.HAL_UART_MspDeInit,"ax",%progbits
 265              		.align	2
 266              		.weak	HAL_UART_MspDeInit
 267              		.thumb
 268              		.thumb_func
 270              	HAL_UART_MspDeInit:
 271              		@ args = 0, pretend = 0, frame = 0
 272              		@ frame_needed = 0, uses_anonymous_args = 0
 273              		@ link register save eliminated.
 274 0000 7047     		bx	lr
 276 0002 00BF     		.section	.text.HAL_UART_DeInit,"ax",%progbits
 277              		.align	2
 278              		.global	HAL_UART_DeInit
 279              		.thumb
 280              		.thumb_func
 282              	HAL_UART_DeInit:
 283              		@ args = 0, pretend = 0, frame = 0
 284              		@ frame_needed = 0, uses_anonymous_args = 0
 285 0000 E0B1     		cbz	r0, .L27
 286 0002 38B5     		push	{r3, r4, r5, lr}
 287 0004 0446     		mov	r4, r0
 288 0006 2423     		movs	r3, #36
 289 0008 C0F88030 		str	r3, [r0, #128]
 290 000c 0268     		ldr	r2, [r0]
 291 000e 1368     		ldr	r3, [r2]
 292 0010 23F00103 		bic	r3, r3, #1
 293 0014 1360     		str	r3, [r2]
 294 0016 0368     		ldr	r3, [r0]
 295 0018 0025     		movs	r5, #0
 296 001a 1D60     		str	r5, [r3]
 297 001c 0368     		ldr	r3, [r0]
 298 001e 5D60     		str	r5, [r3, #4]
 299 0020 0368     		ldr	r3, [r0]
 300 0022 9D60     		str	r5, [r3, #8]
 301 0024 FFF7FEFF 		bl	HAL_UART_MspDeInit
 302 0028 C4F88850 		str	r5, [r4, #136]
ARM GAS  C:\Users\xiaofei\AppData\Local\Temp\cccSmIPO.s 			page 6


 303 002c C4F88050 		str	r5, [r4, #128]
 304 0030 C4F88450 		str	r5, [r4, #132]
 305 0034 84F87C50 		strb	r5, [r4, #124]
 306 0038 2846     		mov	r0, r5
 307 003a 38BD     		pop	{r3, r4, r5, pc}
 308              	.L27:
 309 003c 0120     		movs	r0, #1
 310 003e 7047     		bx	lr
 312              		.section	.text.HAL_UART_Transmit_IT,"ax",%progbits
 313              		.align	2
 314              		.global	HAL_UART_Transmit_IT
 315              		.thumb
 316              		.thumb_func
 318              	HAL_UART_Transmit_IT:
 319              		@ args = 0, pretend = 0, frame = 0
 320              		@ frame_needed = 0, uses_anonymous_args = 0
 321              		@ link register save eliminated.
 322 0000 D0F88030 		ldr	r3, [r0, #128]
 323 0004 202B     		cmp	r3, #32
 324 0006 44D1     		bne	.L37
 325 0008 002A     		cmp	r2, #0
 326 000a 18BF     		it	ne
 327 000c 0029     		cmpne	r1, #0
 328 000e 42D0     		beq	.L38
 329 0010 90F87C30 		ldrb	r3, [r0, #124]	@ zero_extendqisi2
 330 0014 012B     		cmp	r3, #1
 331 0016 40D0     		beq	.L39
 332 0018 0123     		movs	r3, #1
 333 001a 80F87C30 		strb	r3, [r0, #124]
 334 001e 0165     		str	r1, [r0, #80]
 335 0020 A0F85420 		strh	r2, [r0, #84]	@ movhi
 336 0024 A0F85620 		strh	r2, [r0, #86]	@ movhi
 337 0028 0023     		movs	r3, #0
 338 002a 0367     		str	r3, [r0, #112]
 339 002c C0F88830 		str	r3, [r0, #136]
 340 0030 2123     		movs	r3, #33
 341 0032 C0F88030 		str	r3, [r0, #128]
 342 0036 436E     		ldr	r3, [r0, #100]
 343 0038 B3F1005F 		cmp	r3, #536870912
 344 003c 14D1     		bne	.L32
 345 003e 8368     		ldr	r3, [r0, #8]
 346 0040 B3F5805F 		cmp	r3, #4096
 347 0044 04D1     		bne	.L33
 348 0046 0369     		ldr	r3, [r0, #16]
 349 0048 13B9     		cbnz	r3, .L33
 350 004a 154B     		ldr	r3, .L40
 351 004c 0367     		str	r3, [r0, #112]
 352 004e 01E0     		b	.L34
 353              	.L33:
 354 0050 144B     		ldr	r3, .L40+4
 355 0052 0367     		str	r3, [r0, #112]
 356              	.L34:
 357 0054 0023     		movs	r3, #0
 358 0056 80F87C30 		strb	r3, [r0, #124]
 359 005a 0168     		ldr	r1, [r0]
 360 005c 8A68     		ldr	r2, [r1, #8]
 361 005e 42F40002 		orr	r2, r2, #8388608
ARM GAS  C:\Users\xiaofei\AppData\Local\Temp\cccSmIPO.s 			page 7


 362 0062 8A60     		str	r2, [r1, #8]
 363 0064 1846     		mov	r0, r3
 364 0066 7047     		bx	lr
 365              	.L32:
 366 0068 8368     		ldr	r3, [r0, #8]
 367 006a B3F5805F 		cmp	r3, #4096
 368 006e 04D1     		bne	.L35
 369 0070 0369     		ldr	r3, [r0, #16]
 370 0072 13B9     		cbnz	r3, .L35
 371 0074 0C4B     		ldr	r3, .L40+8
 372 0076 0367     		str	r3, [r0, #112]
 373 0078 01E0     		b	.L36
 374              	.L35:
 375 007a 0C4B     		ldr	r3, .L40+12
 376 007c 0367     		str	r3, [r0, #112]
 377              	.L36:
 378 007e 0023     		movs	r3, #0
 379 0080 80F87C30 		strb	r3, [r0, #124]
 380 0084 0168     		ldr	r1, [r0]
 381 0086 0A68     		ldr	r2, [r1]
 382 0088 42F08002 		orr	r2, r2, #128
 383 008c 0A60     		str	r2, [r1]
 384 008e 1846     		mov	r0, r3
 385 0090 7047     		bx	lr
 386              	.L37:
 387 0092 0220     		movs	r0, #2
 388 0094 7047     		bx	lr
 389              	.L38:
 390 0096 0120     		movs	r0, #1
 391 0098 7047     		bx	lr
 392              	.L39:
 393 009a 0220     		movs	r0, #2
 394 009c 7047     		bx	lr
 395              	.L41:
 396 009e 00BF     		.align	2
 397              	.L40:
 398 00a0 00000000 		.word	UART_TxISR_16BIT_FIFOEN
 399 00a4 00000000 		.word	UART_TxISR_8BIT_FIFOEN
 400 00a8 00000000 		.word	UART_TxISR_16BIT
 401 00ac 00000000 		.word	UART_TxISR_8BIT
 403              		.section	.text.HAL_UART_Receive_IT,"ax",%progbits
 404              		.align	2
 405              		.global	HAL_UART_Receive_IT
 406              		.thumb
 407              		.thumb_func
 409              	HAL_UART_Receive_IT:
 410              		@ args = 0, pretend = 0, frame = 0
 411              		@ frame_needed = 0, uses_anonymous_args = 0
 412              		@ link register save eliminated.
 413 0000 D0F88430 		ldr	r3, [r0, #132]
 414 0004 202B     		cmp	r3, #32
 415 0006 7DD1     		bne	.L56
 416 0008 002A     		cmp	r2, #0
 417 000a 18BF     		it	ne
 418 000c 0029     		cmpne	r1, #0
 419 000e 7BD0     		beq	.L57
 420 0010 90F87C30 		ldrb	r3, [r0, #124]	@ zero_extendqisi2
ARM GAS  C:\Users\xiaofei\AppData\Local\Temp\cccSmIPO.s 			page 8


 421 0014 012B     		cmp	r3, #1
 422 0016 79D0     		beq	.L58
 423 0018 0123     		movs	r3, #1
 424 001a 80F87C30 		strb	r3, [r0, #124]
 425 001e 8165     		str	r1, [r0, #88]
 426 0020 A0F85C20 		strh	r2, [r0, #92]	@ movhi
 427 0024 A0F85E20 		strh	r2, [r0, #94]	@ movhi
 428 0028 0023     		movs	r3, #0
 429 002a C366     		str	r3, [r0, #108]
 430 002c 8368     		ldr	r3, [r0, #8]
 431 002e B3F5805F 		cmp	r3, #4096
 432 0032 0AD1     		bne	.L44
 433 0034 0369     		ldr	r3, [r0, #16]
 434 0036 23B9     		cbnz	r3, .L45
 435 0038 40F2FF13 		movw	r3, #511
 436 003c A0F86030 		strh	r3, [r0, #96]	@ movhi
 437 0040 1EE0     		b	.L46
 438              	.L45:
 439 0042 FF23     		movs	r3, #255
 440 0044 A0F86030 		strh	r3, [r0, #96]	@ movhi
 441 0048 1AE0     		b	.L46
 442              	.L44:
 443 004a 4BB9     		cbnz	r3, .L47
 444 004c 0369     		ldr	r3, [r0, #16]
 445 004e 1BB9     		cbnz	r3, .L48
 446 0050 FF23     		movs	r3, #255
 447 0052 A0F86030 		strh	r3, [r0, #96]	@ movhi
 448 0056 13E0     		b	.L46
 449              	.L48:
 450 0058 7F23     		movs	r3, #127
 451 005a A0F86030 		strh	r3, [r0, #96]	@ movhi
 452 005e 0FE0     		b	.L46
 453              	.L47:
 454 0060 B3F1805F 		cmp	r3, #268435456
 455 0064 09D1     		bne	.L49
 456 0066 0369     		ldr	r3, [r0, #16]
 457 0068 1BB9     		cbnz	r3, .L50
 458 006a 7F23     		movs	r3, #127
 459 006c A0F86030 		strh	r3, [r0, #96]	@ movhi
 460 0070 06E0     		b	.L46
 461              	.L50:
 462 0072 3F23     		movs	r3, #63
 463 0074 A0F86030 		strh	r3, [r0, #96]	@ movhi
 464 0078 02E0     		b	.L46
 465              	.L49:
 466 007a 0023     		movs	r3, #0
 467 007c A0F86030 		strh	r3, [r0, #96]	@ movhi
 468              	.L46:
 469 0080 0023     		movs	r3, #0
 470 0082 C0F88830 		str	r3, [r0, #136]
 471 0086 2223     		movs	r3, #34
 472 0088 C0F88430 		str	r3, [r0, #132]
 473 008c 0168     		ldr	r1, [r0]
 474 008e 8B68     		ldr	r3, [r1, #8]
 475 0090 43F00103 		orr	r3, r3, #1
 476 0094 8B60     		str	r3, [r1, #8]
 477 0096 436E     		ldr	r3, [r0, #100]
ARM GAS  C:\Users\xiaofei\AppData\Local\Temp\cccSmIPO.s 			page 9


 478 0098 B3F1005F 		cmp	r3, #536870912
 479 009c 1DD1     		bne	.L51
 480 009e B0F86830 		ldrh	r3, [r0, #104]
 481 00a2 9A42     		cmp	r2, r3
 482 00a4 19D3     		bcc	.L51
 483 00a6 8368     		ldr	r3, [r0, #8]
 484 00a8 B3F5805F 		cmp	r3, #4096
 485 00ac 04D1     		bne	.L52
 486 00ae 0369     		ldr	r3, [r0, #16]
 487 00b0 13B9     		cbnz	r3, .L52
 488 00b2 174B     		ldr	r3, .L59
 489 00b4 C366     		str	r3, [r0, #108]
 490 00b6 01E0     		b	.L53
 491              	.L52:
 492 00b8 164B     		ldr	r3, .L59+4
 493 00ba C366     		str	r3, [r0, #108]
 494              	.L53:
 495 00bc 0023     		movs	r3, #0
 496 00be 80F87C30 		strb	r3, [r0, #124]
 497 00c2 0168     		ldr	r1, [r0]
 498 00c4 0A68     		ldr	r2, [r1]
 499 00c6 42F48072 		orr	r2, r2, #256
 500 00ca 0A60     		str	r2, [r1]
 501 00cc 0168     		ldr	r1, [r0]
 502 00ce 8A68     		ldr	r2, [r1, #8]
 503 00d0 42F08052 		orr	r2, r2, #268435456
 504 00d4 8A60     		str	r2, [r1, #8]
 505 00d6 1846     		mov	r0, r3
 506 00d8 7047     		bx	lr
 507              	.L51:
 508 00da 8368     		ldr	r3, [r0, #8]
 509 00dc B3F5805F 		cmp	r3, #4096
 510 00e0 04D1     		bne	.L54
 511 00e2 0369     		ldr	r3, [r0, #16]
 512 00e4 13B9     		cbnz	r3, .L54
 513 00e6 0C4B     		ldr	r3, .L59+8
 514 00e8 C366     		str	r3, [r0, #108]
 515 00ea 01E0     		b	.L55
 516              	.L54:
 517 00ec 0B4B     		ldr	r3, .L59+12
 518 00ee C366     		str	r3, [r0, #108]
 519              	.L55:
 520 00f0 0023     		movs	r3, #0
 521 00f2 80F87C30 		strb	r3, [r0, #124]
 522 00f6 0168     		ldr	r1, [r0]
 523 00f8 0A68     		ldr	r2, [r1]
 524 00fa 42F49072 		orr	r2, r2, #288
 525 00fe 0A60     		str	r2, [r1]
 526 0100 1846     		mov	r0, r3
 527 0102 7047     		bx	lr
 528              	.L56:
 529 0104 0220     		movs	r0, #2
 530 0106 7047     		bx	lr
 531              	.L57:
 532 0108 0120     		movs	r0, #1
 533 010a 7047     		bx	lr
 534              	.L58:
ARM GAS  C:\Users\xiaofei\AppData\Local\Temp\cccSmIPO.s 			page 10


 535 010c 0220     		movs	r0, #2
 536 010e 7047     		bx	lr
 537              	.L60:
 538              		.align	2
 539              	.L59:
 540 0110 00000000 		.word	UART_RxISR_16BIT_FIFOEN
 541 0114 00000000 		.word	UART_RxISR_8BIT_FIFOEN
 542 0118 00000000 		.word	UART_RxISR_16BIT
 543 011c 00000000 		.word	UART_RxISR_8BIT
 545              		.section	.text.HAL_UART_Transmit_DMA,"ax",%progbits
 546              		.align	2
 547              		.global	HAL_UART_Transmit_DMA
 548              		.thumb
 549              		.thumb_func
 551              	HAL_UART_Transmit_DMA:
 552              		@ args = 0, pretend = 0, frame = 0
 553              		@ frame_needed = 0, uses_anonymous_args = 0
 554 0000 10B5     		push	{r4, lr}
 555 0002 D0F88040 		ldr	r4, [r0, #128]
 556 0006 202C     		cmp	r4, #32
 557 0008 42D1     		bne	.L64
 558 000a 002A     		cmp	r2, #0
 559 000c 18BF     		it	ne
 560 000e 0029     		cmpne	r1, #0
 561 0010 40D0     		beq	.L65
 562 0012 90F87C30 		ldrb	r3, [r0, #124]	@ zero_extendqisi2
 563 0016 012B     		cmp	r3, #1
 564 0018 3ED0     		beq	.L66
 565 001a 1346     		mov	r3, r2
 566 001c 0446     		mov	r4, r0
 567 001e 0122     		movs	r2, #1
 568 0020 80F87C20 		strb	r2, [r0, #124]
 569 0024 0165     		str	r1, [r0, #80]
 570 0026 A0F85430 		strh	r3, [r0, #84]	@ movhi
 571 002a A0F85630 		strh	r3, [r0, #86]	@ movhi
 572 002e 0022     		movs	r2, #0
 573 0030 C0F88820 		str	r2, [r0, #136]
 574 0034 2122     		movs	r2, #33
 575 0036 C0F88020 		str	r2, [r0, #128]
 576 003a 426F     		ldr	r2, [r0, #116]
 577 003c E2B1     		cbz	r2, .L63
 578 003e 1749     		ldr	r1, .L68
 579 0040 D163     		str	r1, [r2, #60]
 580 0042 426F     		ldr	r2, [r0, #116]
 581 0044 1649     		ldr	r1, .L68+4
 582 0046 1164     		str	r1, [r2, #64]
 583 0048 426F     		ldr	r2, [r0, #116]
 584 004a 1649     		ldr	r1, .L68+8
 585 004c D164     		str	r1, [r2, #76]
 586 004e 426F     		ldr	r2, [r0, #116]
 587 0050 0021     		movs	r1, #0
 588 0052 1165     		str	r1, [r2, #80]
 589 0054 0268     		ldr	r2, [r0]
 590 0056 2832     		adds	r2, r2, #40
 591 0058 016D     		ldr	r1, [r0, #80]
 592 005a 406F     		ldr	r0, [r0, #116]
 593 005c FFF7FEFF 		bl	HAL_DMA_Start_IT
ARM GAS  C:\Users\xiaofei\AppData\Local\Temp\cccSmIPO.s 			page 11


 594 0060 50B1     		cbz	r0, .L63
 595 0062 1023     		movs	r3, #16
 596 0064 C4F88830 		str	r3, [r4, #136]
 597 0068 0023     		movs	r3, #0
 598 006a 84F87C30 		strb	r3, [r4, #124]
 599 006e 2023     		movs	r3, #32
 600 0070 C4F88030 		str	r3, [r4, #128]
 601 0074 0120     		movs	r0, #1
 602 0076 10BD     		pop	{r4, pc}
 603              	.L63:
 604 0078 2368     		ldr	r3, [r4]
 605 007a 4022     		movs	r2, #64
 606 007c 1A62     		str	r2, [r3, #32]
 607 007e 0020     		movs	r0, #0
 608 0080 84F87C00 		strb	r0, [r4, #124]
 609 0084 2268     		ldr	r2, [r4]
 610 0086 9368     		ldr	r3, [r2, #8]
 611 0088 43F08003 		orr	r3, r3, #128
 612 008c 9360     		str	r3, [r2, #8]
 613 008e 10BD     		pop	{r4, pc}
 614              	.L64:
 615 0090 0220     		movs	r0, #2
 616 0092 10BD     		pop	{r4, pc}
 617              	.L65:
 618 0094 0120     		movs	r0, #1
 619 0096 10BD     		pop	{r4, pc}
 620              	.L66:
 621 0098 0220     		movs	r0, #2
 622 009a 10BD     		pop	{r4, pc}
 623              	.L69:
 624              		.align	2
 625              	.L68:
 626 009c 00000000 		.word	UART_DMATransmitCplt
 627 00a0 00000000 		.word	UART_DMATxHalfCplt
 628 00a4 00000000 		.word	UART_DMAError
 630              		.section	.text.HAL_UART_Receive_DMA,"ax",%progbits
 631              		.align	2
 632              		.global	HAL_UART_Receive_DMA
 633              		.thumb
 634              		.thumb_func
 636              	HAL_UART_Receive_DMA:
 637              		@ args = 0, pretend = 0, frame = 0
 638              		@ frame_needed = 0, uses_anonymous_args = 0
 639 0000 10B5     		push	{r4, lr}
 640 0002 D0F88440 		ldr	r4, [r0, #132]
 641 0006 202C     		cmp	r4, #32
 642 0008 47D1     		bne	.L73
 643 000a 002A     		cmp	r2, #0
 644 000c 18BF     		it	ne
 645 000e 0029     		cmpne	r1, #0
 646 0010 45D0     		beq	.L74
 647 0012 90F87C30 		ldrb	r3, [r0, #124]	@ zero_extendqisi2
 648 0016 012B     		cmp	r3, #1
 649 0018 43D0     		beq	.L75
 650 001a 1346     		mov	r3, r2
 651 001c 0446     		mov	r4, r0
 652 001e 0122     		movs	r2, #1
ARM GAS  C:\Users\xiaofei\AppData\Local\Temp\cccSmIPO.s 			page 12


 653 0020 80F87C20 		strb	r2, [r0, #124]
 654 0024 8165     		str	r1, [r0, #88]
 655 0026 A0F85C30 		strh	r3, [r0, #92]	@ movhi
 656 002a 0022     		movs	r2, #0
 657 002c C0F88820 		str	r2, [r0, #136]
 658 0030 2222     		movs	r2, #34
 659 0032 C0F88420 		str	r2, [r0, #132]
 660 0036 826F     		ldr	r2, [r0, #120]
 661 0038 E2B1     		cbz	r2, .L72
 662 003a 1B49     		ldr	r1, .L77
 663 003c D163     		str	r1, [r2, #60]
 664 003e 826F     		ldr	r2, [r0, #120]
 665 0040 1A49     		ldr	r1, .L77+4
 666 0042 1164     		str	r1, [r2, #64]
 667 0044 826F     		ldr	r2, [r0, #120]
 668 0046 1A49     		ldr	r1, .L77+8
 669 0048 D164     		str	r1, [r2, #76]
 670 004a 826F     		ldr	r2, [r0, #120]
 671 004c 0021     		movs	r1, #0
 672 004e 1165     		str	r1, [r2, #80]
 673 0050 0168     		ldr	r1, [r0]
 674 0052 826D     		ldr	r2, [r0, #88]
 675 0054 2431     		adds	r1, r1, #36
 676 0056 806F     		ldr	r0, [r0, #120]
 677 0058 FFF7FEFF 		bl	HAL_DMA_Start_IT
 678 005c 50B1     		cbz	r0, .L72
 679 005e 1023     		movs	r3, #16
 680 0060 C4F88830 		str	r3, [r4, #136]
 681 0064 0023     		movs	r3, #0
 682 0066 84F87C30 		strb	r3, [r4, #124]
 683 006a 2023     		movs	r3, #32
 684 006c C4F88030 		str	r3, [r4, #128]
 685 0070 0120     		movs	r0, #1
 686 0072 10BD     		pop	{r4, pc}
 687              	.L72:
 688 0074 0020     		movs	r0, #0
 689 0076 84F87C00 		strb	r0, [r4, #124]
 690 007a 2268     		ldr	r2, [r4]
 691 007c 1368     		ldr	r3, [r2]
 692 007e 43F48073 		orr	r3, r3, #256
 693 0082 1360     		str	r3, [r2]
 694 0084 2268     		ldr	r2, [r4]
 695 0086 9368     		ldr	r3, [r2, #8]
 696 0088 43F00103 		orr	r3, r3, #1
 697 008c 9360     		str	r3, [r2, #8]
 698 008e 2268     		ldr	r2, [r4]
 699 0090 9368     		ldr	r3, [r2, #8]
 700 0092 43F04003 		orr	r3, r3, #64
 701 0096 9360     		str	r3, [r2, #8]
 702 0098 10BD     		pop	{r4, pc}
 703              	.L73:
 704 009a 0220     		movs	r0, #2
 705 009c 10BD     		pop	{r4, pc}
 706              	.L74:
 707 009e 0120     		movs	r0, #1
 708 00a0 10BD     		pop	{r4, pc}
 709              	.L75:
ARM GAS  C:\Users\xiaofei\AppData\Local\Temp\cccSmIPO.s 			page 13


 710 00a2 0220     		movs	r0, #2
 711 00a4 10BD     		pop	{r4, pc}
 712              	.L78:
 713 00a6 00BF     		.align	2
 714              	.L77:
 715 00a8 00000000 		.word	UART_DMAReceiveCplt
 716 00ac 00000000 		.word	UART_DMARxHalfCplt
 717 00b0 00000000 		.word	UART_DMAError
 719              		.section	.text.HAL_UART_DMAPause,"ax",%progbits
 720              		.align	2
 721              		.global	HAL_UART_DMAPause
 722              		.thumb
 723              		.thumb_func
 725              	HAL_UART_DMAPause:
 726              		@ args = 0, pretend = 0, frame = 0
 727              		@ frame_needed = 0, uses_anonymous_args = 0
 728              		@ link register save eliminated.
 729 0000 D0F88010 		ldr	r1, [r0, #128]
 730 0004 D0F88420 		ldr	r2, [r0, #132]
 731 0008 90F87C30 		ldrb	r3, [r0, #124]	@ zero_extendqisi2
 732 000c 012B     		cmp	r3, #1
 733 000e 28D0     		beq	.L83
 734 0010 10B4     		push	{r4}
 735 0012 0123     		movs	r3, #1
 736 0014 80F87C30 		strb	r3, [r0, #124]
 737 0018 0368     		ldr	r3, [r0]
 738 001a 9C68     		ldr	r4, [r3, #8]
 739 001c 14F0800F 		tst	r4, #128
 740 0020 05D0     		beq	.L81
 741 0022 2129     		cmp	r1, #33
 742 0024 03D1     		bne	.L81
 743 0026 9968     		ldr	r1, [r3, #8]
 744 0028 21F08001 		bic	r1, r1, #128
 745 002c 9960     		str	r1, [r3, #8]
 746              	.L81:
 747 002e 0368     		ldr	r3, [r0]
 748 0030 9968     		ldr	r1, [r3, #8]
 749 0032 11F0400F 		tst	r1, #64
 750 0036 0FD0     		beq	.L82
 751 0038 222A     		cmp	r2, #34
 752 003a 0DD1     		bne	.L82
 753 003c 1A68     		ldr	r2, [r3]
 754 003e 22F48072 		bic	r2, r2, #256
 755 0042 1A60     		str	r2, [r3]
 756 0044 0268     		ldr	r2, [r0]
 757 0046 9368     		ldr	r3, [r2, #8]
 758 0048 23F00103 		bic	r3, r3, #1
 759 004c 9360     		str	r3, [r2, #8]
 760 004e 0268     		ldr	r2, [r0]
 761 0050 9368     		ldr	r3, [r2, #8]
 762 0052 23F04003 		bic	r3, r3, #64
 763 0056 9360     		str	r3, [r2, #8]
 764              	.L82:
 765 0058 0023     		movs	r3, #0
 766 005a 80F87C30 		strb	r3, [r0, #124]
 767 005e 1846     		mov	r0, r3
 768 0060 01E0     		b	.L80
ARM GAS  C:\Users\xiaofei\AppData\Local\Temp\cccSmIPO.s 			page 14


 769              	.L83:
 770 0062 0220     		movs	r0, #2
 771 0064 7047     		bx	lr
 772              	.L80:
 773 0066 5DF8044B 		ldr	r4, [sp], #4
 774 006a 7047     		bx	lr
 776              		.section	.text.HAL_UART_DMAResume,"ax",%progbits
 777              		.align	2
 778              		.global	HAL_UART_DMAResume
 779              		.thumb
 780              		.thumb_func
 782              	HAL_UART_DMAResume:
 783              		@ args = 0, pretend = 0, frame = 0
 784              		@ frame_needed = 0, uses_anonymous_args = 0
 785              		@ link register save eliminated.
 786 0000 90F87C30 		ldrb	r3, [r0, #124]	@ zero_extendqisi2
 787 0004 012B     		cmp	r3, #1
 788 0006 26D0     		beq	.L90
 789 0008 0123     		movs	r3, #1
 790 000a 80F87C30 		strb	r3, [r0, #124]
 791 000e D0F88030 		ldr	r3, [r0, #128]
 792 0012 212B     		cmp	r3, #33
 793 0014 04D1     		bne	.L88
 794 0016 0268     		ldr	r2, [r0]
 795 0018 9368     		ldr	r3, [r2, #8]
 796 001a 43F08003 		orr	r3, r3, #128
 797 001e 9360     		str	r3, [r2, #8]
 798              	.L88:
 799 0020 D0F88430 		ldr	r3, [r0, #132]
 800 0024 222B     		cmp	r3, #34
 801 0026 11D1     		bne	.L89
 802 0028 0368     		ldr	r3, [r0]
 803 002a 0822     		movs	r2, #8
 804 002c 1A62     		str	r2, [r3, #32]
 805 002e 0268     		ldr	r2, [r0]
 806 0030 1368     		ldr	r3, [r2]
 807 0032 43F48073 		orr	r3, r3, #256
 808 0036 1360     		str	r3, [r2]
 809 0038 0268     		ldr	r2, [r0]
 810 003a 9368     		ldr	r3, [r2, #8]
 811 003c 43F00103 		orr	r3, r3, #1
 812 0040 9360     		str	r3, [r2, #8]
 813 0042 0268     		ldr	r2, [r0]
 814 0044 9368     		ldr	r3, [r2, #8]
 815 0046 43F04003 		orr	r3, r3, #64
 816 004a 9360     		str	r3, [r2, #8]
 817              	.L89:
 818 004c 0023     		movs	r3, #0
 819 004e 80F87C30 		strb	r3, [r0, #124]
 820 0052 1846     		mov	r0, r3
 821 0054 7047     		bx	lr
 822              	.L90:
 823 0056 0220     		movs	r0, #2
 824 0058 7047     		bx	lr
 826 005a 00BF     		.section	.text.HAL_UART_DMAStop,"ax",%progbits
 827              		.align	2
 828              		.global	HAL_UART_DMAStop
ARM GAS  C:\Users\xiaofei\AppData\Local\Temp\cccSmIPO.s 			page 15


 829              		.thumb
 830              		.thumb_func
 832              	HAL_UART_DMAStop:
 833              		@ args = 0, pretend = 0, frame = 0
 834              		@ frame_needed = 0, uses_anonymous_args = 0
 835 0000 38B5     		push	{r3, r4, r5, lr}
 836 0002 0446     		mov	r4, r0
 837 0004 D0F88010 		ldr	r1, [r0, #128]
 838 0008 D0F88450 		ldr	r5, [r0, #132]
 839 000c 0368     		ldr	r3, [r0]
 840 000e 9A68     		ldr	r2, [r3, #8]
 841 0010 12F0800F 		tst	r2, #128
 842 0014 17D0     		beq	.L92
 843 0016 2129     		cmp	r1, #33
 844 0018 15D1     		bne	.L92
 845 001a 9A68     		ldr	r2, [r3, #8]
 846 001c 22F08002 		bic	r2, r2, #128
 847 0020 9A60     		str	r2, [r3, #8]
 848 0022 406F     		ldr	r0, [r0, #116]
 849 0024 60B1     		cbz	r0, .L93
 850 0026 FFF7FEFF 		bl	HAL_DMA_Abort
 851 002a 48B1     		cbz	r0, .L93
 852 002c 606F     		ldr	r0, [r4, #116]
 853 002e FFF7FEFF 		bl	HAL_DMA_GetError
 854 0032 2028     		cmp	r0, #32
 855 0034 04D1     		bne	.L93
 856 0036 1023     		movs	r3, #16
 857 0038 C4F88830 		str	r3, [r4, #136]
 858 003c 0320     		movs	r0, #3
 859 003e 38BD     		pop	{r3, r4, r5, pc}
 860              	.L93:
 861 0040 2046     		mov	r0, r4
 862 0042 FFF7FEFF 		bl	UART_EndTxTransfer
 863              	.L92:
 864 0046 2368     		ldr	r3, [r4]
 865 0048 9A68     		ldr	r2, [r3, #8]
 866 004a 12F0400F 		tst	r2, #64
 867 004e 19D0     		beq	.L96
 868 0050 222D     		cmp	r5, #34
 869 0052 19D1     		bne	.L97
 870 0054 9A68     		ldr	r2, [r3, #8]
 871 0056 22F04002 		bic	r2, r2, #64
 872 005a 9A60     		str	r2, [r3, #8]
 873 005c A06F     		ldr	r0, [r4, #120]
 874 005e 60B1     		cbz	r0, .L95
 875 0060 FFF7FEFF 		bl	HAL_DMA_Abort
 876 0064 48B1     		cbz	r0, .L95
 877 0066 A06F     		ldr	r0, [r4, #120]
 878 0068 FFF7FEFF 		bl	HAL_DMA_GetError
 879 006c 2028     		cmp	r0, #32
 880 006e 04D1     		bne	.L95
 881 0070 1023     		movs	r3, #16
 882 0072 C4F88830 		str	r3, [r4, #136]
 883 0076 0320     		movs	r0, #3
 884 0078 38BD     		pop	{r3, r4, r5, pc}
 885              	.L95:
 886 007a 2046     		mov	r0, r4
ARM GAS  C:\Users\xiaofei\AppData\Local\Temp\cccSmIPO.s 			page 16


 887 007c FFF7FEFF 		bl	UART_EndRxTransfer
 888 0080 0020     		movs	r0, #0
 889 0082 38BD     		pop	{r3, r4, r5, pc}
 890              	.L96:
 891 0084 0020     		movs	r0, #0
 892 0086 38BD     		pop	{r3, r4, r5, pc}
 893              	.L97:
 894 0088 0020     		movs	r0, #0
 895 008a 38BD     		pop	{r3, r4, r5, pc}
 897              		.section	.text.HAL_UART_Abort,"ax",%progbits
 898              		.align	2
 899              		.global	HAL_UART_Abort
 900              		.thumb
 901              		.thumb_func
 903              	HAL_UART_Abort:
 904              		@ args = 0, pretend = 0, frame = 0
 905              		@ frame_needed = 0, uses_anonymous_args = 0
 906 0000 10B5     		push	{r4, lr}
 907 0002 0446     		mov	r4, r0
 908 0004 0268     		ldr	r2, [r0]
 909 0006 1368     		ldr	r3, [r2]
 910 0008 23F4F073 		bic	r3, r3, #480
 911 000c 1360     		str	r3, [r2]
 912 000e 0268     		ldr	r2, [r0]
 913 0010 9168     		ldr	r1, [r2, #8]
 914 0012 2C4B     		ldr	r3, .L105
 915 0014 0B40     		ands	r3, r3, r1
 916 0016 9360     		str	r3, [r2, #8]
 917 0018 0368     		ldr	r3, [r0]
 918 001a 9A68     		ldr	r2, [r3, #8]
 919 001c 12F0800F 		tst	r2, #128
 920 0020 15D0     		beq	.L100
 921 0022 9A68     		ldr	r2, [r3, #8]
 922 0024 22F08002 		bic	r2, r2, #128
 923 0028 9A60     		str	r2, [r3, #8]
 924 002a 436F     		ldr	r3, [r0, #116]
 925 002c 7BB1     		cbz	r3, .L100
 926 002e 0022     		movs	r2, #0
 927 0030 1A65     		str	r2, [r3, #80]
 928 0032 406F     		ldr	r0, [r0, #116]
 929 0034 FFF7FEFF 		bl	HAL_DMA_Abort
 930 0038 48B1     		cbz	r0, .L100
 931 003a 606F     		ldr	r0, [r4, #116]
 932 003c FFF7FEFF 		bl	HAL_DMA_GetError
 933 0040 2028     		cmp	r0, #32
 934 0042 04D1     		bne	.L100
 935 0044 1023     		movs	r3, #16
 936 0046 C4F88830 		str	r3, [r4, #136]
 937 004a 0320     		movs	r0, #3
 938 004c 10BD     		pop	{r4, pc}
 939              	.L100:
 940 004e 2368     		ldr	r3, [r4]
 941 0050 9A68     		ldr	r2, [r3, #8]
 942 0052 12F0400F 		tst	r2, #64
 943 0056 15D0     		beq	.L102
 944 0058 9A68     		ldr	r2, [r3, #8]
 945 005a 22F04002 		bic	r2, r2, #64
ARM GAS  C:\Users\xiaofei\AppData\Local\Temp\cccSmIPO.s 			page 17


 946 005e 9A60     		str	r2, [r3, #8]
 947 0060 A36F     		ldr	r3, [r4, #120]
 948 0062 7BB1     		cbz	r3, .L102
 949 0064 0022     		movs	r2, #0
 950 0066 1A65     		str	r2, [r3, #80]
 951 0068 A06F     		ldr	r0, [r4, #120]
 952 006a FFF7FEFF 		bl	HAL_DMA_Abort
 953 006e 48B1     		cbz	r0, .L102
 954 0070 A06F     		ldr	r0, [r4, #120]
 955 0072 FFF7FEFF 		bl	HAL_DMA_GetError
 956 0076 2028     		cmp	r0, #32
 957 0078 04D1     		bne	.L102
 958 007a 1023     		movs	r3, #16
 959 007c C4F88830 		str	r3, [r4, #136]
 960 0080 0320     		movs	r0, #3
 961 0082 10BD     		pop	{r4, pc}
 962              	.L102:
 963 0084 0023     		movs	r3, #0
 964 0086 A4F85630 		strh	r3, [r4, #86]	@ movhi
 965 008a A4F85E30 		strh	r3, [r4, #94]	@ movhi
 966 008e 2368     		ldr	r3, [r4]
 967 0090 0F22     		movs	r2, #15
 968 0092 1A62     		str	r2, [r3, #32]
 969 0094 636E     		ldr	r3, [r4, #100]
 970 0096 B3F1005F 		cmp	r3, #536870912
 971 009a 04D1     		bne	.L103
 972 009c 2268     		ldr	r2, [r4]
 973 009e 9369     		ldr	r3, [r2, #24]
 974 00a0 43F01003 		orr	r3, r3, #16
 975 00a4 9361     		str	r3, [r2, #24]
 976              	.L103:
 977 00a6 2268     		ldr	r2, [r4]
 978 00a8 9369     		ldr	r3, [r2, #24]
 979 00aa 43F00803 		orr	r3, r3, #8
 980 00ae 9361     		str	r3, [r2, #24]
 981 00b0 2023     		movs	r3, #32
 982 00b2 C4F88030 		str	r3, [r4, #128]
 983 00b6 C4F88430 		str	r3, [r4, #132]
 984 00ba 0020     		movs	r0, #0
 985 00bc C4F88800 		str	r0, [r4, #136]
 986 00c0 10BD     		pop	{r4, pc}
 987              	.L106:
 988 00c2 00BF     		.align	2
 989              	.L105:
 990 00c4 FEFF7FEF 		.word	-276824066
 992              		.section	.text.HAL_UART_AbortTransmit,"ax",%progbits
 993              		.align	2
 994              		.global	HAL_UART_AbortTransmit
 995              		.thumb
 996              		.thumb_func
 998              	HAL_UART_AbortTransmit:
 999              		@ args = 0, pretend = 0, frame = 0
 1000              		@ frame_needed = 0, uses_anonymous_args = 0
 1001 0000 10B5     		push	{r4, lr}
 1002 0002 0446     		mov	r4, r0
 1003 0004 0268     		ldr	r2, [r0]
 1004 0006 1368     		ldr	r3, [r2]
ARM GAS  C:\Users\xiaofei\AppData\Local\Temp\cccSmIPO.s 			page 18


 1005 0008 23F0C003 		bic	r3, r3, #192
 1006 000c 1360     		str	r3, [r2]
 1007 000e 0268     		ldr	r2, [r0]
 1008 0010 9368     		ldr	r3, [r2, #8]
 1009 0012 23F40003 		bic	r3, r3, #8388608
 1010 0016 9360     		str	r3, [r2, #8]
 1011 0018 0368     		ldr	r3, [r0]
 1012 001a 9A68     		ldr	r2, [r3, #8]
 1013 001c 12F0800F 		tst	r2, #128
 1014 0020 15D0     		beq	.L108
 1015 0022 9A68     		ldr	r2, [r3, #8]
 1016 0024 22F08002 		bic	r2, r2, #128
 1017 0028 9A60     		str	r2, [r3, #8]
 1018 002a 436F     		ldr	r3, [r0, #116]
 1019 002c 7BB1     		cbz	r3, .L108
 1020 002e 0022     		movs	r2, #0
 1021 0030 1A65     		str	r2, [r3, #80]
 1022 0032 406F     		ldr	r0, [r0, #116]
 1023 0034 FFF7FEFF 		bl	HAL_DMA_Abort
 1024 0038 48B1     		cbz	r0, .L108
 1025 003a 606F     		ldr	r0, [r4, #116]
 1026 003c FFF7FEFF 		bl	HAL_DMA_GetError
 1027 0040 2028     		cmp	r0, #32
 1028 0042 04D1     		bne	.L108
 1029 0044 1023     		movs	r3, #16
 1030 0046 C4F88830 		str	r3, [r4, #136]
 1031 004a 0320     		movs	r0, #3
 1032 004c 10BD     		pop	{r4, pc}
 1033              	.L108:
 1034 004e 0023     		movs	r3, #0
 1035 0050 A4F85630 		strh	r3, [r4, #86]	@ movhi
 1036 0054 636E     		ldr	r3, [r4, #100]
 1037 0056 B3F1005F 		cmp	r3, #536870912
 1038 005a 04D1     		bne	.L110
 1039 005c 2268     		ldr	r2, [r4]
 1040 005e 9369     		ldr	r3, [r2, #24]
 1041 0060 43F01003 		orr	r3, r3, #16
 1042 0064 9361     		str	r3, [r2, #24]
 1043              	.L110:
 1044 0066 2023     		movs	r3, #32
 1045 0068 C4F88030 		str	r3, [r4, #128]
 1046 006c 0020     		movs	r0, #0
 1047 006e 10BD     		pop	{r4, pc}
 1049              		.section	.text.HAL_UART_AbortReceive,"ax",%progbits
 1050              		.align	2
 1051              		.global	HAL_UART_AbortReceive
 1052              		.thumb
 1053              		.thumb_func
 1055              	HAL_UART_AbortReceive:
 1056              		@ args = 0, pretend = 0, frame = 0
 1057              		@ frame_needed = 0, uses_anonymous_args = 0
 1058 0000 10B5     		push	{r4, lr}
 1059 0002 0446     		mov	r4, r0
 1060 0004 0268     		ldr	r2, [r0]
 1061 0006 1368     		ldr	r3, [r2]
 1062 0008 23F49073 		bic	r3, r3, #288
 1063 000c 1360     		str	r3, [r2]
ARM GAS  C:\Users\xiaofei\AppData\Local\Temp\cccSmIPO.s 			page 19


 1064 000e 0268     		ldr	r2, [r0]
 1065 0010 9168     		ldr	r1, [r2, #8]
 1066 0012 164B     		ldr	r3, .L116
 1067 0014 0B40     		ands	r3, r3, r1
 1068 0016 9360     		str	r3, [r2, #8]
 1069 0018 0368     		ldr	r3, [r0]
 1070 001a 9A68     		ldr	r2, [r3, #8]
 1071 001c 12F0400F 		tst	r2, #64
 1072 0020 15D0     		beq	.L113
 1073 0022 9A68     		ldr	r2, [r3, #8]
 1074 0024 22F04002 		bic	r2, r2, #64
 1075 0028 9A60     		str	r2, [r3, #8]
 1076 002a 836F     		ldr	r3, [r0, #120]
 1077 002c 7BB1     		cbz	r3, .L113
 1078 002e 0022     		movs	r2, #0
 1079 0030 1A65     		str	r2, [r3, #80]
 1080 0032 806F     		ldr	r0, [r0, #120]
 1081 0034 FFF7FEFF 		bl	HAL_DMA_Abort
 1082 0038 48B1     		cbz	r0, .L113
 1083 003a A06F     		ldr	r0, [r4, #120]
 1084 003c FFF7FEFF 		bl	HAL_DMA_GetError
 1085 0040 2028     		cmp	r0, #32
 1086 0042 04D1     		bne	.L113
 1087 0044 1023     		movs	r3, #16
 1088 0046 C4F88830 		str	r3, [r4, #136]
 1089 004a 0320     		movs	r0, #3
 1090 004c 10BD     		pop	{r4, pc}
 1091              	.L113:
 1092 004e 0020     		movs	r0, #0
 1093 0050 A4F85E00 		strh	r0, [r4, #94]	@ movhi
 1094 0054 2368     		ldr	r3, [r4]
 1095 0056 0F22     		movs	r2, #15
 1096 0058 1A62     		str	r2, [r3, #32]
 1097 005a 2268     		ldr	r2, [r4]
 1098 005c 9369     		ldr	r3, [r2, #24]
 1099 005e 43F00803 		orr	r3, r3, #8
 1100 0062 9361     		str	r3, [r2, #24]
 1101 0064 2023     		movs	r3, #32
 1102 0066 C4F88430 		str	r3, [r4, #132]
 1103 006a 10BD     		pop	{r4, pc}
 1104              	.L117:
 1105              		.align	2
 1106              	.L116:
 1107 006c FEFFFFEF 		.word	-268435458
 1109              		.section	.text.HAL_UART_TxCpltCallback,"ax",%progbits
 1110              		.align	2
 1111              		.weak	HAL_UART_TxCpltCallback
 1112              		.thumb
 1113              		.thumb_func
 1115              	HAL_UART_TxCpltCallback:
 1116              		@ args = 0, pretend = 0, frame = 0
 1117              		@ frame_needed = 0, uses_anonymous_args = 0
 1118              		@ link register save eliminated.
 1119 0000 7047     		bx	lr
 1121 0002 00BF     		.section	.text.UART_DMATransmitCplt,"ax",%progbits
 1122              		.align	2
 1123              		.thumb
ARM GAS  C:\Users\xiaofei\AppData\Local\Temp\cccSmIPO.s 			page 20


 1124              		.thumb_func
 1126              	UART_DMATransmitCplt:
 1127              		@ args = 0, pretend = 0, frame = 0
 1128              		@ frame_needed = 0, uses_anonymous_args = 0
 1129 0000 08B5     		push	{r3, lr}
 1130 0002 836B     		ldr	r3, [r0, #56]
 1131 0004 C269     		ldr	r2, [r0, #28]
 1132 0006 B2F5807F 		cmp	r2, #256
 1133 000a 0DD0     		beq	.L120
 1134 000c 0022     		movs	r2, #0
 1135 000e A3F85620 		strh	r2, [r3, #86]	@ movhi
 1136 0012 1968     		ldr	r1, [r3]
 1137 0014 8A68     		ldr	r2, [r1, #8]
 1138 0016 22F08002 		bic	r2, r2, #128
 1139 001a 8A60     		str	r2, [r1, #8]
 1140 001c 1A68     		ldr	r2, [r3]
 1141 001e 1368     		ldr	r3, [r2]
 1142 0020 43F04003 		orr	r3, r3, #64
 1143 0024 1360     		str	r3, [r2]
 1144 0026 08BD     		pop	{r3, pc}
 1145              	.L120:
 1146 0028 1846     		mov	r0, r3
 1147 002a FFF7FEFF 		bl	HAL_UART_TxCpltCallback
 1148 002e 08BD     		pop	{r3, pc}
 1150              		.section	.text.UART_EndTransmit_IT,"ax",%progbits
 1151              		.align	2
 1152              		.thumb
 1153              		.thumb_func
 1155              	UART_EndTransmit_IT:
 1156              		@ args = 0, pretend = 0, frame = 0
 1157              		@ frame_needed = 0, uses_anonymous_args = 0
 1158 0000 08B5     		push	{r3, lr}
 1159 0002 0168     		ldr	r1, [r0]
 1160 0004 0A68     		ldr	r2, [r1]
 1161 0006 22F04002 		bic	r2, r2, #64
 1162 000a 0A60     		str	r2, [r1]
 1163 000c 2022     		movs	r2, #32
 1164 000e C0F88020 		str	r2, [r0, #128]
 1165 0012 0022     		movs	r2, #0
 1166 0014 0267     		str	r2, [r0, #112]
 1167 0016 FFF7FEFF 		bl	HAL_UART_TxCpltCallback
 1168 001a 08BD     		pop	{r3, pc}
 1170              		.section	.text.HAL_UART_TxHalfCpltCallback,"ax",%progbits
 1171              		.align	2
 1172              		.weak	HAL_UART_TxHalfCpltCallback
 1173              		.thumb
 1174              		.thumb_func
 1176              	HAL_UART_TxHalfCpltCallback:
 1177              		@ args = 0, pretend = 0, frame = 0
 1178              		@ frame_needed = 0, uses_anonymous_args = 0
 1179              		@ link register save eliminated.
 1180 0000 7047     		bx	lr
 1182 0002 00BF     		.section	.text.UART_DMATxHalfCplt,"ax",%progbits
 1183              		.align	2
 1184              		.thumb
 1185              		.thumb_func
 1187              	UART_DMATxHalfCplt:
ARM GAS  C:\Users\xiaofei\AppData\Local\Temp\cccSmIPO.s 			page 21


 1188              		@ args = 0, pretend = 0, frame = 0
 1189              		@ frame_needed = 0, uses_anonymous_args = 0
 1190 0000 08B5     		push	{r3, lr}
 1191 0002 806B     		ldr	r0, [r0, #56]
 1192 0004 FFF7FEFF 		bl	HAL_UART_TxHalfCpltCallback
 1193 0008 08BD     		pop	{r3, pc}
 1195 000a 00BF     		.section	.text.HAL_UART_RxCpltCallback,"ax",%progbits
 1196              		.align	2
 1197              		.weak	HAL_UART_RxCpltCallback
 1198              		.thumb
 1199              		.thumb_func
 1201              	HAL_UART_RxCpltCallback:
 1202              		@ args = 0, pretend = 0, frame = 0
 1203              		@ frame_needed = 0, uses_anonymous_args = 0
 1204              		@ link register save eliminated.
 1205 0000 7047     		bx	lr
 1207 0002 00BF     		.section	.text.UART_RxISR_8BIT,"ax",%progbits
 1208              		.align	2
 1209              		.thumb
 1210              		.thumb_func
 1212              	UART_RxISR_8BIT:
 1213              		@ args = 0, pretend = 0, frame = 0
 1214              		@ frame_needed = 0, uses_anonymous_args = 0
 1215 0000 08B5     		push	{r3, lr}
 1216 0002 B0F86020 		ldrh	r2, [r0, #96]
 1217 0006 D0F88430 		ldr	r3, [r0, #132]
 1218 000a 222B     		cmp	r3, #34
 1219 000c 25D1     		bne	.L130
 1220 000e 0368     		ldr	r3, [r0]
 1221 0010 5B6A     		ldr	r3, [r3, #36]
 1222 0012 816D     		ldr	r1, [r0, #88]
 1223 0014 D2B2     		uxtb	r2, r2
 1224 0016 1A40     		ands	r2, r2, r3
 1225 0018 0A70     		strb	r2, [r1]
 1226 001a 836D     		ldr	r3, [r0, #88]
 1227 001c 0133     		adds	r3, r3, #1
 1228 001e 8365     		str	r3, [r0, #88]
 1229 0020 B0F85E30 		ldrh	r3, [r0, #94]
 1230 0024 9BB2     		uxth	r3, r3
 1231 0026 013B     		subs	r3, r3, #1
 1232 0028 9BB2     		uxth	r3, r3
 1233 002a A0F85E30 		strh	r3, [r0, #94]	@ movhi
 1234 002e B0F85E30 		ldrh	r3, [r0, #94]
 1235 0032 9BB2     		uxth	r3, r3
 1236 0034 B3B9     		cbnz	r3, .L129
 1237 0036 0268     		ldr	r2, [r0]
 1238 0038 1368     		ldr	r3, [r2]
 1239 003a 23F49073 		bic	r3, r3, #288
 1240 003e 1360     		str	r3, [r2]
 1241 0040 0268     		ldr	r2, [r0]
 1242 0042 9368     		ldr	r3, [r2, #8]
 1243 0044 23F00103 		bic	r3, r3, #1
 1244 0048 9360     		str	r3, [r2, #8]
 1245 004a 2023     		movs	r3, #32
 1246 004c C0F88430 		str	r3, [r0, #132]
 1247 0050 0023     		movs	r3, #0
 1248 0052 C366     		str	r3, [r0, #108]
ARM GAS  C:\Users\xiaofei\AppData\Local\Temp\cccSmIPO.s 			page 22


 1249 0054 FFF7FEFF 		bl	HAL_UART_RxCpltCallback
 1250 0058 08BD     		pop	{r3, pc}
 1251              	.L130:
 1252 005a 0268     		ldr	r2, [r0]
 1253 005c 9369     		ldr	r3, [r2, #24]
 1254 005e 43F00803 		orr	r3, r3, #8
 1255 0062 9361     		str	r3, [r2, #24]
 1256              	.L129:
 1257 0064 08BD     		pop	{r3, pc}
 1259 0066 00BF     		.section	.text.UART_RxISR_16BIT,"ax",%progbits
 1260              		.align	2
 1261              		.thumb
 1262              		.thumb_func
 1264              	UART_RxISR_16BIT:
 1265              		@ args = 0, pretend = 0, frame = 0
 1266              		@ frame_needed = 0, uses_anonymous_args = 0
 1267 0000 08B5     		push	{r3, lr}
 1268 0002 B0F86020 		ldrh	r2, [r0, #96]
 1269 0006 D0F88430 		ldr	r3, [r0, #132]
 1270 000a 222B     		cmp	r3, #34
 1271 000c 24D1     		bne	.L134
 1272 000e 0368     		ldr	r3, [r0]
 1273 0010 596A     		ldr	r1, [r3, #36]
 1274 0012 836D     		ldr	r3, [r0, #88]
 1275 0014 0A40     		ands	r2, r2, r1
 1276 0016 1A80     		strh	r2, [r3]	@ movhi
 1277 0018 836D     		ldr	r3, [r0, #88]
 1278 001a 0233     		adds	r3, r3, #2
 1279 001c 8365     		str	r3, [r0, #88]
 1280 001e B0F85E30 		ldrh	r3, [r0, #94]
 1281 0022 9BB2     		uxth	r3, r3
 1282 0024 013B     		subs	r3, r3, #1
 1283 0026 9BB2     		uxth	r3, r3
 1284 0028 A0F85E30 		strh	r3, [r0, #94]	@ movhi
 1285 002c B0F85E30 		ldrh	r3, [r0, #94]
 1286 0030 9BB2     		uxth	r3, r3
 1287 0032 B3B9     		cbnz	r3, .L133
 1288 0034 0268     		ldr	r2, [r0]
 1289 0036 1368     		ldr	r3, [r2]
 1290 0038 23F49073 		bic	r3, r3, #288
 1291 003c 1360     		str	r3, [r2]
 1292 003e 0268     		ldr	r2, [r0]
 1293 0040 9368     		ldr	r3, [r2, #8]
 1294 0042 23F00103 		bic	r3, r3, #1
 1295 0046 9360     		str	r3, [r2, #8]
 1296 0048 2023     		movs	r3, #32
 1297 004a C0F88430 		str	r3, [r0, #132]
 1298 004e 0023     		movs	r3, #0
 1299 0050 C366     		str	r3, [r0, #108]
 1300 0052 FFF7FEFF 		bl	HAL_UART_RxCpltCallback
 1301 0056 08BD     		pop	{r3, pc}
 1302              	.L134:
 1303 0058 0268     		ldr	r2, [r0]
 1304 005a 9369     		ldr	r3, [r2, #24]
 1305 005c 43F00803 		orr	r3, r3, #8
 1306 0060 9361     		str	r3, [r2, #24]
 1307              	.L133:
ARM GAS  C:\Users\xiaofei\AppData\Local\Temp\cccSmIPO.s 			page 23


 1308 0062 08BD     		pop	{r3, pc}
 1310              		.section	.text.UART_RxISR_8BIT_FIFOEN,"ax",%progbits
 1311              		.align	2
 1312              		.thumb
 1313              		.thumb_func
 1315              	UART_RxISR_8BIT_FIFOEN:
 1316              		@ args = 0, pretend = 0, frame = 0
 1317              		@ frame_needed = 0, uses_anonymous_args = 0
 1318 0000 70B5     		push	{r4, r5, r6, lr}
 1319 0002 B0F86060 		ldrh	r6, [r0, #96]
 1320 0006 D0F88430 		ldr	r3, [r0, #132]
 1321 000a 222B     		cmp	r3, #34
 1322 000c 42D1     		bne	.L138
 1323 000e 0446     		mov	r4, r0
 1324 0010 B0F86850 		ldrh	r5, [r0, #104]
 1325 0014 27E0     		b	.L139
 1326              	.L141:
 1327 0016 2368     		ldr	r3, [r4]
 1328 0018 5B6A     		ldr	r3, [r3, #36]
 1329 001a A26D     		ldr	r2, [r4, #88]
 1330 001c F1B2     		uxtb	r1, r6
 1331 001e 0B40     		ands	r3, r3, r1
 1332 0020 1370     		strb	r3, [r2]
 1333 0022 A36D     		ldr	r3, [r4, #88]
 1334 0024 0133     		adds	r3, r3, #1
 1335 0026 A365     		str	r3, [r4, #88]
 1336 0028 B4F85E30 		ldrh	r3, [r4, #94]
 1337 002c 9BB2     		uxth	r3, r3
 1338 002e 013B     		subs	r3, r3, #1
 1339 0030 9BB2     		uxth	r3, r3
 1340 0032 A4F85E30 		strh	r3, [r4, #94]	@ movhi
 1341 0036 B4F85E30 		ldrh	r3, [r4, #94]
 1342 003a 9BB2     		uxth	r3, r3
 1343 003c 8BB9     		cbnz	r3, .L140
 1344 003e 2268     		ldr	r2, [r4]
 1345 0040 1368     		ldr	r3, [r2]
 1346 0042 23F48073 		bic	r3, r3, #256
 1347 0046 1360     		str	r3, [r2]
 1348 0048 2268     		ldr	r2, [r4]
 1349 004a 9168     		ldr	r1, [r2, #8]
 1350 004c 144B     		ldr	r3, .L144
 1351 004e 0B40     		ands	r3, r3, r1
 1352 0050 9360     		str	r3, [r2, #8]
 1353 0052 2023     		movs	r3, #32
 1354 0054 C4F88430 		str	r3, [r4, #132]
 1355 0058 0023     		movs	r3, #0
 1356 005a E366     		str	r3, [r4, #108]
 1357 005c 2046     		mov	r0, r4
 1358 005e FFF7FEFF 		bl	HAL_UART_RxCpltCallback
 1359              	.L140:
 1360 0062 013D     		subs	r5, r5, #1
 1361 0064 ADB2     		uxth	r5, r5
 1362              	.L139:
 1363 0066 002D     		cmp	r5, #0
 1364 0068 D5D1     		bne	.L141
 1365 006a B4F85E30 		ldrh	r3, [r4, #94]
 1366 006e 9BB2     		uxth	r3, r3
ARM GAS  C:\Users\xiaofei\AppData\Local\Temp\cccSmIPO.s 			page 24


 1367 0070 ABB1     		cbz	r3, .L137
 1368 0072 B4F86820 		ldrh	r2, [r4, #104]
 1369 0076 9342     		cmp	r3, r2
 1370 0078 11D2     		bcs	.L137
 1371 007a 2268     		ldr	r2, [r4]
 1372 007c 9368     		ldr	r3, [r2, #8]
 1373 007e 23F08053 		bic	r3, r3, #268435456
 1374 0082 9360     		str	r3, [r2, #8]
 1375 0084 074B     		ldr	r3, .L144+4
 1376 0086 E366     		str	r3, [r4, #108]
 1377 0088 2268     		ldr	r2, [r4]
 1378 008a 1368     		ldr	r3, [r2]
 1379 008c 43F02003 		orr	r3, r3, #32
 1380 0090 1360     		str	r3, [r2]
 1381 0092 70BD     		pop	{r4, r5, r6, pc}
 1382              	.L138:
 1383 0094 0268     		ldr	r2, [r0]
 1384 0096 9369     		ldr	r3, [r2, #24]
 1385 0098 43F00803 		orr	r3, r3, #8
 1386 009c 9361     		str	r3, [r2, #24]
 1387              	.L137:
 1388 009e 70BD     		pop	{r4, r5, r6, pc}
 1389              	.L145:
 1390              		.align	2
 1391              	.L144:
 1392 00a0 FEFFFFEF 		.word	-268435458
 1393 00a4 00000000 		.word	UART_RxISR_8BIT
 1395              		.section	.text.UART_RxISR_16BIT_FIFOEN,"ax",%progbits
 1396              		.align	2
 1397              		.thumb
 1398              		.thumb_func
 1400              	UART_RxISR_16BIT_FIFOEN:
 1401              		@ args = 0, pretend = 0, frame = 0
 1402              		@ frame_needed = 0, uses_anonymous_args = 0
 1403 0000 70B5     		push	{r4, r5, r6, lr}
 1404 0002 B0F86060 		ldrh	r6, [r0, #96]
 1405 0006 D0F88430 		ldr	r3, [r0, #132]
 1406 000a 222B     		cmp	r3, #34
 1407 000c 41D1     		bne	.L147
 1408 000e 0446     		mov	r4, r0
 1409 0010 B0F86850 		ldrh	r5, [r0, #104]
 1410 0014 26E0     		b	.L148
 1411              	.L150:
 1412 0016 2368     		ldr	r3, [r4]
 1413 0018 5B6A     		ldr	r3, [r3, #36]
 1414 001a A26D     		ldr	r2, [r4, #88]
 1415 001c 3340     		ands	r3, r3, r6
 1416 001e 1380     		strh	r3, [r2]	@ movhi
 1417 0020 A36D     		ldr	r3, [r4, #88]
 1418 0022 0233     		adds	r3, r3, #2
 1419 0024 A365     		str	r3, [r4, #88]
 1420 0026 B4F85E30 		ldrh	r3, [r4, #94]
 1421 002a 9BB2     		uxth	r3, r3
 1422 002c 013B     		subs	r3, r3, #1
 1423 002e 9BB2     		uxth	r3, r3
 1424 0030 A4F85E30 		strh	r3, [r4, #94]	@ movhi
 1425 0034 B4F85E30 		ldrh	r3, [r4, #94]
ARM GAS  C:\Users\xiaofei\AppData\Local\Temp\cccSmIPO.s 			page 25


 1426 0038 9BB2     		uxth	r3, r3
 1427 003a 8BB9     		cbnz	r3, .L149
 1428 003c 2268     		ldr	r2, [r4]
 1429 003e 1368     		ldr	r3, [r2]
 1430 0040 23F48073 		bic	r3, r3, #256
 1431 0044 1360     		str	r3, [r2]
 1432 0046 2268     		ldr	r2, [r4]
 1433 0048 9168     		ldr	r1, [r2, #8]
 1434 004a 154B     		ldr	r3, .L153
 1435 004c 0B40     		ands	r3, r3, r1
 1436 004e 9360     		str	r3, [r2, #8]
 1437 0050 2023     		movs	r3, #32
 1438 0052 C4F88430 		str	r3, [r4, #132]
 1439 0056 0023     		movs	r3, #0
 1440 0058 E366     		str	r3, [r4, #108]
 1441 005a 2046     		mov	r0, r4
 1442 005c FFF7FEFF 		bl	HAL_UART_RxCpltCallback
 1443              	.L149:
 1444 0060 013D     		subs	r5, r5, #1
 1445 0062 ADB2     		uxth	r5, r5
 1446              	.L148:
 1447 0064 002D     		cmp	r5, #0
 1448 0066 D6D1     		bne	.L150
 1449 0068 B4F85E30 		ldrh	r3, [r4, #94]
 1450 006c 9BB2     		uxth	r3, r3
 1451 006e ABB1     		cbz	r3, .L146
 1452 0070 B4F86820 		ldrh	r2, [r4, #104]
 1453 0074 9342     		cmp	r3, r2
 1454 0076 11D2     		bcs	.L146
 1455 0078 2268     		ldr	r2, [r4]
 1456 007a 9368     		ldr	r3, [r2, #8]
 1457 007c 23F08053 		bic	r3, r3, #268435456
 1458 0080 9360     		str	r3, [r2, #8]
 1459 0082 084B     		ldr	r3, .L153+4
 1460 0084 E366     		str	r3, [r4, #108]
 1461 0086 2268     		ldr	r2, [r4]
 1462 0088 1368     		ldr	r3, [r2]
 1463 008a 43F02003 		orr	r3, r3, #32
 1464 008e 1360     		str	r3, [r2]
 1465 0090 70BD     		pop	{r4, r5, r6, pc}
 1466              	.L147:
 1467 0092 0268     		ldr	r2, [r0]
 1468 0094 9369     		ldr	r3, [r2, #24]
 1469 0096 43F00803 		orr	r3, r3, #8
 1470 009a 9361     		str	r3, [r2, #24]
 1471              	.L146:
 1472 009c 70BD     		pop	{r4, r5, r6, pc}
 1473              	.L154:
 1474 009e 00BF     		.align	2
 1475              	.L153:
 1476 00a0 FEFFFFEF 		.word	-268435458
 1477 00a4 00000000 		.word	UART_RxISR_16BIT
 1479              		.section	.text.UART_DMAReceiveCplt,"ax",%progbits
 1480              		.align	2
 1481              		.thumb
 1482              		.thumb_func
 1484              	UART_DMAReceiveCplt:
ARM GAS  C:\Users\xiaofei\AppData\Local\Temp\cccSmIPO.s 			page 26


 1485              		@ args = 0, pretend = 0, frame = 0
 1486              		@ frame_needed = 0, uses_anonymous_args = 0
 1487 0000 08B5     		push	{r3, lr}
 1488 0002 836B     		ldr	r3, [r0, #56]
 1489 0004 C269     		ldr	r2, [r0, #28]
 1490 0006 B2F5807F 		cmp	r2, #256
 1491 000a 14D0     		beq	.L156
 1492 000c 0022     		movs	r2, #0
 1493 000e A3F85E20 		strh	r2, [r3, #94]	@ movhi
 1494 0012 1968     		ldr	r1, [r3]
 1495 0014 0A68     		ldr	r2, [r1]
 1496 0016 22F48072 		bic	r2, r2, #256
 1497 001a 0A60     		str	r2, [r1]
 1498 001c 1968     		ldr	r1, [r3]
 1499 001e 8A68     		ldr	r2, [r1, #8]
 1500 0020 22F00102 		bic	r2, r2, #1
 1501 0024 8A60     		str	r2, [r1, #8]
 1502 0026 1968     		ldr	r1, [r3]
 1503 0028 8A68     		ldr	r2, [r1, #8]
 1504 002a 22F04002 		bic	r2, r2, #64
 1505 002e 8A60     		str	r2, [r1, #8]
 1506 0030 2022     		movs	r2, #32
 1507 0032 C3F88420 		str	r2, [r3, #132]
 1508              	.L156:
 1509 0036 1846     		mov	r0, r3
 1510 0038 FFF7FEFF 		bl	HAL_UART_RxCpltCallback
 1511 003c 08BD     		pop	{r3, pc}
 1513 003e 00BF     		.section	.text.HAL_UART_RxHalfCpltCallback,"ax",%progbits
 1514              		.align	2
 1515              		.weak	HAL_UART_RxHalfCpltCallback
 1516              		.thumb
 1517              		.thumb_func
 1519              	HAL_UART_RxHalfCpltCallback:
 1520              		@ args = 0, pretend = 0, frame = 0
 1521              		@ frame_needed = 0, uses_anonymous_args = 0
 1522              		@ link register save eliminated.
 1523 0000 7047     		bx	lr
 1525 0002 00BF     		.section	.text.UART_DMARxHalfCplt,"ax",%progbits
 1526              		.align	2
 1527              		.thumb
 1528              		.thumb_func
 1530              	UART_DMARxHalfCplt:
 1531              		@ args = 0, pretend = 0, frame = 0
 1532              		@ frame_needed = 0, uses_anonymous_args = 0
 1533 0000 08B5     		push	{r3, lr}
 1534 0002 806B     		ldr	r0, [r0, #56]
 1535 0004 FFF7FEFF 		bl	HAL_UART_RxHalfCpltCallback
 1536 0008 08BD     		pop	{r3, pc}
 1538 000a 00BF     		.section	.text.HAL_UART_ErrorCallback,"ax",%progbits
 1539              		.align	2
 1540              		.weak	HAL_UART_ErrorCallback
 1541              		.thumb
 1542              		.thumb_func
 1544              	HAL_UART_ErrorCallback:
 1545              		@ args = 0, pretend = 0, frame = 0
 1546              		@ frame_needed = 0, uses_anonymous_args = 0
 1547              		@ link register save eliminated.
ARM GAS  C:\Users\xiaofei\AppData\Local\Temp\cccSmIPO.s 			page 27


 1548 0000 7047     		bx	lr
 1550 0002 00BF     		.section	.text.UART_DMAError,"ax",%progbits
 1551              		.align	2
 1552              		.thumb
 1553              		.thumb_func
 1555              	UART_DMAError:
 1556              		@ args = 0, pretend = 0, frame = 0
 1557              		@ frame_needed = 0, uses_anonymous_args = 0
 1558 0000 38B5     		push	{r3, r4, r5, lr}
 1559 0002 846B     		ldr	r4, [r0, #56]
 1560 0004 D4F88020 		ldr	r2, [r4, #128]
 1561 0008 D4F88450 		ldr	r5, [r4, #132]
 1562 000c 2368     		ldr	r3, [r4]
 1563 000e 9B68     		ldr	r3, [r3, #8]
 1564 0010 13F0800F 		tst	r3, #128
 1565 0014 07D0     		beq	.L163
 1566 0016 212A     		cmp	r2, #33
 1567 0018 05D1     		bne	.L163
 1568 001a 0023     		movs	r3, #0
 1569 001c A4F85630 		strh	r3, [r4, #86]	@ movhi
 1570 0020 2046     		mov	r0, r4
 1571 0022 FFF7FEFF 		bl	UART_EndTxTransfer
 1572              	.L163:
 1573 0026 2368     		ldr	r3, [r4]
 1574 0028 9B68     		ldr	r3, [r3, #8]
 1575 002a 13F0400F 		tst	r3, #64
 1576 002e 07D0     		beq	.L164
 1577 0030 222D     		cmp	r5, #34
 1578 0032 05D1     		bne	.L164
 1579 0034 0023     		movs	r3, #0
 1580 0036 A4F85E30 		strh	r3, [r4, #94]	@ movhi
 1581 003a 2046     		mov	r0, r4
 1582 003c FFF7FEFF 		bl	UART_EndRxTransfer
 1583              	.L164:
 1584 0040 D4F88830 		ldr	r3, [r4, #136]
 1585 0044 43F01003 		orr	r3, r3, #16
 1586 0048 C4F88830 		str	r3, [r4, #136]
 1587 004c 2046     		mov	r0, r4
 1588 004e FFF7FEFF 		bl	HAL_UART_ErrorCallback
 1589 0052 38BD     		pop	{r3, r4, r5, pc}
 1591              		.section	.text.HAL_UART_IRQHandler,"ax",%progbits
 1592              		.align	2
 1593              		.global	HAL_UART_IRQHandler
 1594              		.thumb
 1595              		.thumb_func
 1597              	HAL_UART_IRQHandler:
 1598              		@ args = 0, pretend = 0, frame = 0
 1599              		@ frame_needed = 0, uses_anonymous_args = 0
 1600 0000 70B5     		push	{r4, r5, r6, lr}
 1601 0002 0446     		mov	r4, r0
 1602 0004 0168     		ldr	r1, [r0]
 1603 0006 CB69     		ldr	r3, [r1, #28]
 1604 0008 0D68     		ldr	r5, [r1]
 1605 000a 8868     		ldr	r0, [r1, #8]
 1606 000c 40F60F02 		movw	r2, #2063
 1607 0010 1A40     		ands	r2, r3, r2
 1608 0012 0FD1     		bne	.L167
ARM GAS  C:\Users\xiaofei\AppData\Local\Temp\cccSmIPO.s 			page 28


 1609 0014 13F0200F 		tst	r3, #32
 1610 0018 0CD0     		beq	.L167
 1611 001a 15F0200F 		tst	r5, #32
 1612 001e 02D1     		bne	.L168
 1613 0020 10F0805F 		tst	r0, #268435456
 1614 0024 06D0     		beq	.L167
 1615              	.L168:
 1616 0026 E36E     		ldr	r3, [r4, #108]
 1617 0028 002B     		cmp	r3, #0
 1618 002a 00F0D180 		beq	.L166
 1619 002e 2046     		mov	r0, r4
 1620 0030 9847     		blx	r3
 1621 0032 70BD     		pop	{r4, r5, r6, pc}
 1622              	.L167:
 1623 0034 002A     		cmp	r2, #0
 1624 0036 00F09480 		beq	.L170
 1625 003a 664A     		ldr	r2, .L190
 1626 003c 0240     		ands	r2, r0, r2
 1627 003e 03D1     		bne	.L171
 1628 0040 654E     		ldr	r6, .L190+4
 1629 0042 3542     		tst	r5, r6
 1630 0044 00F08D80 		beq	.L170
 1631              	.L171:
 1632 0048 13F0010F 		tst	r3, #1
 1633 004c 09D0     		beq	.L172
 1634 004e 15F4807F 		tst	r5, #256
 1635 0052 06D0     		beq	.L172
 1636 0054 0126     		movs	r6, #1
 1637 0056 0E62     		str	r6, [r1, #32]
 1638 0058 D4F88810 		ldr	r1, [r4, #136]
 1639 005c 3143     		orrs	r1, r1, r6
 1640 005e C4F88810 		str	r1, [r4, #136]
 1641              	.L172:
 1642 0062 13F0020F 		tst	r3, #2
 1643 0066 0BD0     		beq	.L173
 1644 0068 10F0010F 		tst	r0, #1
 1645 006c 08D0     		beq	.L173
 1646 006e 2168     		ldr	r1, [r4]
 1647 0070 0226     		movs	r6, #2
 1648 0072 0E62     		str	r6, [r1, #32]
 1649 0074 D4F88810 		ldr	r1, [r4, #136]
 1650 0078 41F00401 		orr	r1, r1, #4
 1651 007c C4F88810 		str	r1, [r4, #136]
 1652              	.L173:
 1653 0080 13F0040F 		tst	r3, #4
 1654 0084 0BD0     		beq	.L174
 1655 0086 10F0010F 		tst	r0, #1
 1656 008a 08D0     		beq	.L174
 1657 008c 2168     		ldr	r1, [r4]
 1658 008e 0426     		movs	r6, #4
 1659 0090 0E62     		str	r6, [r1, #32]
 1660 0092 D4F88810 		ldr	r1, [r4, #136]
 1661 0096 41F00201 		orr	r1, r1, #2
 1662 009a C4F88810 		str	r1, [r4, #136]
 1663              	.L174:
 1664 009e 13F0080F 		tst	r3, #8
 1665 00a2 0BD0     		beq	.L175
ARM GAS  C:\Users\xiaofei\AppData\Local\Temp\cccSmIPO.s 			page 29


 1666 00a4 15F0200F 		tst	r5, #32
 1667 00a8 00D1     		bne	.L176
 1668 00aa 3AB1     		cbz	r2, .L175
 1669              	.L176:
 1670 00ac 2268     		ldr	r2, [r4]
 1671 00ae 0821     		movs	r1, #8
 1672 00b0 1162     		str	r1, [r2, #32]
 1673 00b2 D4F88820 		ldr	r2, [r4, #136]
 1674 00b6 0A43     		orrs	r2, r2, r1
 1675 00b8 C4F88820 		str	r2, [r4, #136]
 1676              	.L175:
 1677 00bc 13F4006F 		tst	r3, #2048
 1678 00c0 0CD0     		beq	.L177
 1679 00c2 15F0806F 		tst	r5, #67108864
 1680 00c6 09D0     		beq	.L177
 1681 00c8 2268     		ldr	r2, [r4]
 1682 00ca 4FF40061 		mov	r1, #2048
 1683 00ce 1162     		str	r1, [r2, #32]
 1684 00d0 D4F88820 		ldr	r2, [r4, #136]
 1685 00d4 42F02002 		orr	r2, r2, #32
 1686 00d8 C4F88820 		str	r2, [r4, #136]
 1687              	.L177:
 1688 00dc D4F88820 		ldr	r2, [r4, #136]
 1689 00e0 002A     		cmp	r2, #0
 1690 00e2 75D0     		beq	.L166
 1691 00e4 13F0200F 		tst	r3, #32
 1692 00e8 09D0     		beq	.L178
 1693 00ea 15F0200F 		tst	r5, #32
 1694 00ee 02D1     		bne	.L179
 1695 00f0 10F0805F 		tst	r0, #268435456
 1696 00f4 03D0     		beq	.L178
 1697              	.L179:
 1698 00f6 E36E     		ldr	r3, [r4, #108]
 1699 00f8 0BB1     		cbz	r3, .L178
 1700 00fa 2046     		mov	r0, r4
 1701 00fc 9847     		blx	r3
 1702              	.L178:
 1703 00fe D4F88820 		ldr	r2, [r4, #136]
 1704 0102 2368     		ldr	r3, [r4]
 1705 0104 9B68     		ldr	r3, [r3, #8]
 1706 0106 13F0400F 		tst	r3, #64
 1707 010a 02D1     		bne	.L180
 1708 010c 12F0280F 		tst	r2, #40
 1709 0110 20D0     		beq	.L181
 1710              	.L180:
 1711 0112 2046     		mov	r0, r4
 1712 0114 FFF7FEFF 		bl	UART_EndRxTransfer
 1713 0118 2368     		ldr	r3, [r4]
 1714 011a 9A68     		ldr	r2, [r3, #8]
 1715 011c 12F0400F 		tst	r2, #64
 1716 0120 14D0     		beq	.L182
 1717 0122 9A68     		ldr	r2, [r3, #8]
 1718 0124 22F04002 		bic	r2, r2, #64
 1719 0128 9A60     		str	r2, [r3, #8]
 1720 012a A36F     		ldr	r3, [r4, #120]
 1721 012c 53B1     		cbz	r3, .L183
 1722 012e 2B4A     		ldr	r2, .L190+8
ARM GAS  C:\Users\xiaofei\AppData\Local\Temp\cccSmIPO.s 			page 30


 1723 0130 1A65     		str	r2, [r3, #80]
 1724 0132 A06F     		ldr	r0, [r4, #120]
 1725 0134 FFF7FEFF 		bl	HAL_DMA_Abort_IT
 1726 0138 0028     		cmp	r0, #0
 1727 013a 49D0     		beq	.L166
 1728 013c A06F     		ldr	r0, [r4, #120]
 1729 013e 036D     		ldr	r3, [r0, #80]
 1730 0140 9847     		blx	r3
 1731 0142 70BD     		pop	{r4, r5, r6, pc}
 1732              	.L183:
 1733 0144 2046     		mov	r0, r4
 1734 0146 FFF7FEFF 		bl	HAL_UART_ErrorCallback
 1735 014a 70BD     		pop	{r4, r5, r6, pc}
 1736              	.L182:
 1737 014c 2046     		mov	r0, r4
 1738 014e FFF7FEFF 		bl	HAL_UART_ErrorCallback
 1739 0152 70BD     		pop	{r4, r5, r6, pc}
 1740              	.L181:
 1741 0154 2046     		mov	r0, r4
 1742 0156 FFF7FEFF 		bl	HAL_UART_ErrorCallback
 1743 015a 0023     		movs	r3, #0
 1744 015c C4F88830 		str	r3, [r4, #136]
 1745 0160 70BD     		pop	{r4, r5, r6, pc}
 1746              	.L170:
 1747 0162 13F4801F 		tst	r3, #1048576
 1748 0166 09D0     		beq	.L184
 1749 0168 10F4800F 		tst	r0, #4194304
 1750 016c 06D0     		beq	.L184
 1751 016e 4FF48013 		mov	r3, #1048576
 1752 0172 0B62     		str	r3, [r1, #32]
 1753 0174 2046     		mov	r0, r4
 1754 0176 FFF7FEFF 		bl	HAL_UARTEx_WakeupCallback
 1755 017a 70BD     		pop	{r4, r5, r6, pc}
 1756              	.L184:
 1757 017c 13F0800F 		tst	r3, #128
 1758 0180 0AD0     		beq	.L185
 1759 0182 15F0800F 		tst	r5, #128
 1760 0186 02D1     		bne	.L186
 1761 0188 10F4000F 		tst	r0, #8388608
 1762 018c 04D0     		beq	.L185
 1763              	.L186:
 1764 018e 236F     		ldr	r3, [r4, #112]
 1765 0190 F3B1     		cbz	r3, .L166
 1766 0192 2046     		mov	r0, r4
 1767 0194 9847     		blx	r3
 1768 0196 70BD     		pop	{r4, r5, r6, pc}
 1769              	.L185:
 1770 0198 13F0400F 		tst	r3, #64
 1771 019c 06D0     		beq	.L187
 1772 019e 15F0400F 		tst	r5, #64
 1773 01a2 03D0     		beq	.L187
 1774 01a4 2046     		mov	r0, r4
 1775 01a6 FFF7FEFF 		bl	UART_EndTransmit_IT
 1776 01aa 70BD     		pop	{r4, r5, r6, pc}
 1777              	.L187:
 1778 01ac 13F4000F 		tst	r3, #8388608
 1779 01b0 06D0     		beq	.L188
ARM GAS  C:\Users\xiaofei\AppData\Local\Temp\cccSmIPO.s 			page 31


 1780 01b2 15F0804F 		tst	r5, #1073741824
 1781 01b6 03D0     		beq	.L188
 1782 01b8 2046     		mov	r0, r4
 1783 01ba FFF7FEFF 		bl	HAL_UARTEx_TxFifoEmptyCallback
 1784 01be 70BD     		pop	{r4, r5, r6, pc}
 1785              	.L188:
 1786 01c0 13F0807F 		tst	r3, #16777216
 1787 01c4 04D0     		beq	.L166
 1788 01c6 002D     		cmp	r5, #0
 1789 01c8 02DA     		bge	.L166
 1790 01ca 2046     		mov	r0, r4
 1791 01cc FFF7FEFF 		bl	HAL_UARTEx_RxFifoFullCallback
 1792              	.L166:
 1793 01d0 70BD     		pop	{r4, r5, r6, pc}
 1794              	.L191:
 1795 01d2 00BF     		.align	2
 1796              	.L190:
 1797 01d4 01000010 		.word	268435457
 1798 01d8 20010004 		.word	67109152
 1799 01dc 00000000 		.word	UART_DMAAbortOnError
 1801              		.section	.text.UART_DMAAbortOnError,"ax",%progbits
 1802              		.align	2
 1803              		.thumb
 1804              		.thumb_func
 1806              	UART_DMAAbortOnError:
 1807              		@ args = 0, pretend = 0, frame = 0
 1808              		@ frame_needed = 0, uses_anonymous_args = 0
 1809 0000 08B5     		push	{r3, lr}
 1810 0002 806B     		ldr	r0, [r0, #56]
 1811 0004 0023     		movs	r3, #0
 1812 0006 A0F85E30 		strh	r3, [r0, #94]	@ movhi
 1813 000a A0F85630 		strh	r3, [r0, #86]	@ movhi
 1814 000e FFF7FEFF 		bl	HAL_UART_ErrorCallback
 1815 0012 08BD     		pop	{r3, pc}
 1817              		.section	.text.HAL_UART_AbortCpltCallback,"ax",%progbits
 1818              		.align	2
 1819              		.weak	HAL_UART_AbortCpltCallback
 1820              		.thumb
 1821              		.thumb_func
 1823              	HAL_UART_AbortCpltCallback:
 1824              		@ args = 0, pretend = 0, frame = 0
 1825              		@ frame_needed = 0, uses_anonymous_args = 0
 1826              		@ link register save eliminated.
 1827 0000 7047     		bx	lr
 1829 0002 00BF     		.section	.text.HAL_UART_Abort_IT,"ax",%progbits
 1830              		.align	2
 1831              		.global	HAL_UART_Abort_IT
 1832              		.thumb
 1833              		.thumb_func
 1835              	HAL_UART_Abort_IT:
 1836              		@ args = 0, pretend = 0, frame = 0
 1837              		@ frame_needed = 0, uses_anonymous_args = 0
 1838 0000 10B5     		push	{r4, lr}
 1839 0002 0446     		mov	r4, r0
 1840 0004 0268     		ldr	r2, [r0]
 1841 0006 1368     		ldr	r3, [r2]
 1842 0008 23F4F073 		bic	r3, r3, #480
ARM GAS  C:\Users\xiaofei\AppData\Local\Temp\cccSmIPO.s 			page 32


 1843 000c 1360     		str	r3, [r2]
 1844 000e 0268     		ldr	r2, [r0]
 1845 0010 9168     		ldr	r1, [r2, #8]
 1846 0012 364B     		ldr	r3, .L209
 1847 0014 0B40     		ands	r3, r3, r1
 1848 0016 9360     		str	r3, [r2, #8]
 1849 0018 436F     		ldr	r3, [r0, #116]
 1850 001a 4BB1     		cbz	r3, .L196
 1851 001c 0268     		ldr	r2, [r0]
 1852 001e 9268     		ldr	r2, [r2, #8]
 1853 0020 12F0800F 		tst	r2, #128
 1854 0024 02D0     		beq	.L197
 1855 0026 324A     		ldr	r2, .L209+4
 1856 0028 1A65     		str	r2, [r3, #80]
 1857 002a 01E0     		b	.L196
 1858              	.L197:
 1859 002c 0022     		movs	r2, #0
 1860 002e 1A65     		str	r2, [r3, #80]
 1861              	.L196:
 1862 0030 A36F     		ldr	r3, [r4, #120]
 1863 0032 4BB1     		cbz	r3, .L198
 1864 0034 2268     		ldr	r2, [r4]
 1865 0036 9268     		ldr	r2, [r2, #8]
 1866 0038 12F0400F 		tst	r2, #64
 1867 003c 02D0     		beq	.L199
 1868 003e 2D4A     		ldr	r2, .L209+8
 1869 0040 1A65     		str	r2, [r3, #80]
 1870 0042 01E0     		b	.L198
 1871              	.L199:
 1872 0044 0022     		movs	r2, #0
 1873 0046 1A65     		str	r2, [r3, #80]
 1874              	.L198:
 1875 0048 2368     		ldr	r3, [r4]
 1876 004a 9A68     		ldr	r2, [r3, #8]
 1877 004c 12F0800F 		tst	r2, #128
 1878 0050 0DD0     		beq	.L204
 1879 0052 9A68     		ldr	r2, [r3, #8]
 1880 0054 22F08002 		bic	r2, r2, #128
 1881 0058 9A60     		str	r2, [r3, #8]
 1882 005a 606F     		ldr	r0, [r4, #116]
 1883 005c 48B1     		cbz	r0, .L205
 1884 005e FFF7FEFF 		bl	HAL_DMA_Abort_IT
 1885 0062 40B1     		cbz	r0, .L206
 1886 0064 636F     		ldr	r3, [r4, #116]
 1887 0066 0022     		movs	r2, #0
 1888 0068 1A65     		str	r2, [r3, #80]
 1889 006a 0122     		movs	r2, #1
 1890 006c 04E0     		b	.L200
 1891              	.L204:
 1892 006e 0122     		movs	r2, #1
 1893 0070 02E0     		b	.L200
 1894              	.L205:
 1895 0072 0122     		movs	r2, #1
 1896 0074 00E0     		b	.L200
 1897              	.L206:
 1898 0076 0022     		movs	r2, #0
 1899              	.L200:
ARM GAS  C:\Users\xiaofei\AppData\Local\Temp\cccSmIPO.s 			page 33


 1900 0078 2368     		ldr	r3, [r4]
 1901 007a 9968     		ldr	r1, [r3, #8]
 1902 007c 11F0400F 		tst	r1, #64
 1903 0080 0ED0     		beq	.L201
 1904 0082 9968     		ldr	r1, [r3, #8]
 1905 0084 21F04001 		bic	r1, r1, #64
 1906 0088 9960     		str	r1, [r3, #8]
 1907 008a A06F     		ldr	r0, [r4, #120]
 1908 008c 40B1     		cbz	r0, .L201
 1909 008e FFF7FEFF 		bl	HAL_DMA_Abort_IT
 1910 0092 20B1     		cbz	r0, .L207
 1911 0094 A36F     		ldr	r3, [r4, #120]
 1912 0096 0022     		movs	r2, #0
 1913 0098 1A65     		str	r2, [r3, #80]
 1914 009a 0122     		movs	r2, #1
 1915 009c 00E0     		b	.L201
 1916              	.L207:
 1917 009e 0022     		movs	r2, #0
 1918              	.L201:
 1919 00a0 0AB3     		cbz	r2, .L202
 1920 00a2 0023     		movs	r3, #0
 1921 00a4 A4F85630 		strh	r3, [r4, #86]	@ movhi
 1922 00a8 A4F85E30 		strh	r3, [r4, #94]	@ movhi
 1923 00ac E366     		str	r3, [r4, #108]
 1924 00ae 2367     		str	r3, [r4, #112]
 1925 00b0 C4F88830 		str	r3, [r4, #136]
 1926 00b4 2368     		ldr	r3, [r4]
 1927 00b6 0F22     		movs	r2, #15
 1928 00b8 1A62     		str	r2, [r3, #32]
 1929 00ba 636E     		ldr	r3, [r4, #100]
 1930 00bc B3F1005F 		cmp	r3, #536870912
 1931 00c0 04D1     		bne	.L203
 1932 00c2 2268     		ldr	r2, [r4]
 1933 00c4 9369     		ldr	r3, [r2, #24]
 1934 00c6 43F01003 		orr	r3, r3, #16
 1935 00ca 9361     		str	r3, [r2, #24]
 1936              	.L203:
 1937 00cc 2268     		ldr	r2, [r4]
 1938 00ce 9369     		ldr	r3, [r2, #24]
 1939 00d0 43F00803 		orr	r3, r3, #8
 1940 00d4 9361     		str	r3, [r2, #24]
 1941 00d6 2023     		movs	r3, #32
 1942 00d8 C4F88030 		str	r3, [r4, #128]
 1943 00dc C4F88430 		str	r3, [r4, #132]
 1944 00e0 2046     		mov	r0, r4
 1945 00e2 FFF7FEFF 		bl	HAL_UART_AbortCpltCallback
 1946              	.L202:
 1947 00e6 0020     		movs	r0, #0
 1948 00e8 10BD     		pop	{r4, pc}
 1949              	.L210:
 1950 00ea 00BF     		.align	2
 1951              	.L209:
 1952 00ec FEFF7FEF 		.word	-276824066
 1953 00f0 00000000 		.word	UART_DMATxAbortCallback
 1954 00f4 00000000 		.word	UART_DMARxAbortCallback
 1956              		.section	.text.UART_DMARxAbortCallback,"ax",%progbits
 1957              		.align	2
ARM GAS  C:\Users\xiaofei\AppData\Local\Temp\cccSmIPO.s 			page 34


 1958              		.thumb
 1959              		.thumb_func
 1961              	UART_DMARxAbortCallback:
 1962              		@ args = 0, pretend = 0, frame = 0
 1963              		@ frame_needed = 0, uses_anonymous_args = 0
 1964 0000 08B5     		push	{r3, lr}
 1965 0002 806B     		ldr	r0, [r0, #56]
 1966 0004 836F     		ldr	r3, [r0, #120]
 1967 0006 0022     		movs	r2, #0
 1968 0008 1A65     		str	r2, [r3, #80]
 1969 000a 436F     		ldr	r3, [r0, #116]
 1970 000c 0BB1     		cbz	r3, .L212
 1971 000e 1B6D     		ldr	r3, [r3, #80]
 1972 0010 ABB9     		cbnz	r3, .L211
 1973              	.L212:
 1974 0012 0023     		movs	r3, #0
 1975 0014 A0F85630 		strh	r3, [r0, #86]	@ movhi
 1976 0018 A0F85E30 		strh	r3, [r0, #94]	@ movhi
 1977 001c C0F88830 		str	r3, [r0, #136]
 1978 0020 0368     		ldr	r3, [r0]
 1979 0022 0F22     		movs	r2, #15
 1980 0024 1A62     		str	r2, [r3, #32]
 1981 0026 0268     		ldr	r2, [r0]
 1982 0028 9369     		ldr	r3, [r2, #24]
 1983 002a 43F00803 		orr	r3, r3, #8
 1984 002e 9361     		str	r3, [r2, #24]
 1985 0030 2023     		movs	r3, #32
 1986 0032 C0F88030 		str	r3, [r0, #128]
 1987 0036 C0F88430 		str	r3, [r0, #132]
 1988 003a FFF7FEFF 		bl	HAL_UART_AbortCpltCallback
 1989              	.L211:
 1990 003e 08BD     		pop	{r3, pc}
 1992              		.section	.text.UART_DMATxAbortCallback,"ax",%progbits
 1993              		.align	2
 1994              		.thumb
 1995              		.thumb_func
 1997              	UART_DMATxAbortCallback:
 1998              		@ args = 0, pretend = 0, frame = 0
 1999              		@ frame_needed = 0, uses_anonymous_args = 0
 2000 0000 08B5     		push	{r3, lr}
 2001 0002 806B     		ldr	r0, [r0, #56]
 2002 0004 436F     		ldr	r3, [r0, #116]
 2003 0006 0022     		movs	r2, #0
 2004 0008 1A65     		str	r2, [r3, #80]
 2005 000a 836F     		ldr	r3, [r0, #120]
 2006 000c 0BB1     		cbz	r3, .L216
 2007 000e 1B6D     		ldr	r3, [r3, #80]
 2008 0010 CBB9     		cbnz	r3, .L215
 2009              	.L216:
 2010 0012 0023     		movs	r3, #0
 2011 0014 A0F85630 		strh	r3, [r0, #86]	@ movhi
 2012 0018 A0F85E30 		strh	r3, [r0, #94]	@ movhi
 2013 001c C0F88830 		str	r3, [r0, #136]
 2014 0020 0368     		ldr	r3, [r0]
 2015 0022 0F22     		movs	r2, #15
 2016 0024 1A62     		str	r2, [r3, #32]
 2017 0026 436E     		ldr	r3, [r0, #100]
ARM GAS  C:\Users\xiaofei\AppData\Local\Temp\cccSmIPO.s 			page 35


 2018 0028 B3F1005F 		cmp	r3, #536870912
 2019 002c 04D1     		bne	.L218
 2020 002e 0268     		ldr	r2, [r0]
 2021 0030 9369     		ldr	r3, [r2, #24]
 2022 0032 43F01003 		orr	r3, r3, #16
 2023 0036 9361     		str	r3, [r2, #24]
 2024              	.L218:
 2025 0038 2023     		movs	r3, #32
 2026 003a C0F88030 		str	r3, [r0, #128]
 2027 003e C0F88430 		str	r3, [r0, #132]
 2028 0042 FFF7FEFF 		bl	HAL_UART_AbortCpltCallback
 2029              	.L215:
 2030 0046 08BD     		pop	{r3, pc}
 2032              		.section	.text.HAL_UART_AbortTransmitCpltCallback,"ax",%progbits
 2033              		.align	2
 2034              		.weak	HAL_UART_AbortTransmitCpltCallback
 2035              		.thumb
 2036              		.thumb_func
 2038              	HAL_UART_AbortTransmitCpltCallback:
 2039              		@ args = 0, pretend = 0, frame = 0
 2040              		@ frame_needed = 0, uses_anonymous_args = 0
 2041              		@ link register save eliminated.
 2042 0000 7047     		bx	lr
 2044 0002 00BF     		.section	.text.HAL_UART_AbortTransmit_IT,"ax",%progbits
 2045              		.align	2
 2046              		.global	HAL_UART_AbortTransmit_IT
 2047              		.thumb
 2048              		.thumb_func
 2050              	HAL_UART_AbortTransmit_IT:
 2051              		@ args = 0, pretend = 0, frame = 0
 2052              		@ frame_needed = 0, uses_anonymous_args = 0
 2053 0000 10B5     		push	{r4, lr}
 2054 0002 0446     		mov	r4, r0
 2055 0004 0268     		ldr	r2, [r0]
 2056 0006 1368     		ldr	r3, [r2]
 2057 0008 23F0C003 		bic	r3, r3, #192
 2058 000c 1360     		str	r3, [r2]
 2059 000e 0268     		ldr	r2, [r0]
 2060 0010 9368     		ldr	r3, [r2, #8]
 2061 0012 23F40003 		bic	r3, r3, #8388608
 2062 0016 9360     		str	r3, [r2, #8]
 2063 0018 0368     		ldr	r3, [r0]
 2064 001a 9A68     		ldr	r2, [r3, #8]
 2065 001c 12F0800F 		tst	r2, #128
 2066 0020 19D0     		beq	.L222
 2067 0022 9A68     		ldr	r2, [r3, #8]
 2068 0024 22F08002 		bic	r2, r2, #128
 2069 0028 9A60     		str	r2, [r3, #8]
 2070 002a 436F     		ldr	r3, [r0, #116]
 2071 002c 4BB1     		cbz	r3, .L223
 2072 002e 144A     		ldr	r2, .L227
 2073 0030 1A65     		str	r2, [r3, #80]
 2074 0032 406F     		ldr	r0, [r0, #116]
 2075 0034 FFF7FEFF 		bl	HAL_DMA_Abort_IT
 2076 0038 F8B1     		cbz	r0, .L224
 2077 003a 606F     		ldr	r0, [r4, #116]
 2078 003c 036D     		ldr	r3, [r0, #80]
ARM GAS  C:\Users\xiaofei\AppData\Local\Temp\cccSmIPO.s 			page 36


 2079 003e 9847     		blx	r3
 2080 0040 1BE0     		b	.L224
 2081              	.L223:
 2082 0042 0023     		movs	r3, #0
 2083 0044 A0F85630 		strh	r3, [r0, #86]	@ movhi
 2084 0048 0367     		str	r3, [r0, #112]
 2085 004a 2023     		movs	r3, #32
 2086 004c C0F88030 		str	r3, [r0, #128]
 2087 0050 FFF7FEFF 		bl	HAL_UART_AbortTransmitCpltCallback
 2088 0054 11E0     		b	.L224
 2089              	.L222:
 2090 0056 0022     		movs	r2, #0
 2091 0058 A0F85620 		strh	r2, [r0, #86]	@ movhi
 2092 005c 0267     		str	r2, [r0, #112]
 2093 005e 426E     		ldr	r2, [r0, #100]
 2094 0060 B2F1005F 		cmp	r2, #536870912
 2095 0064 03D1     		bne	.L225
 2096 0066 9A69     		ldr	r2, [r3, #24]
 2097 0068 42F01002 		orr	r2, r2, #16
 2098 006c 9A61     		str	r2, [r3, #24]
 2099              	.L225:
 2100 006e 2023     		movs	r3, #32
 2101 0070 C4F88030 		str	r3, [r4, #128]
 2102 0074 2046     		mov	r0, r4
 2103 0076 FFF7FEFF 		bl	HAL_UART_AbortTransmitCpltCallback
 2104              	.L224:
 2105 007a 0020     		movs	r0, #0
 2106 007c 10BD     		pop	{r4, pc}
 2107              	.L228:
 2108 007e 00BF     		.align	2
 2109              	.L227:
 2110 0080 00000000 		.word	UART_DMATxOnlyAbortCallback
 2112              		.section	.text.UART_DMATxOnlyAbortCallback,"ax",%progbits
 2113              		.align	2
 2114              		.thumb
 2115              		.thumb_func
 2117              	UART_DMATxOnlyAbortCallback:
 2118              		@ args = 0, pretend = 0, frame = 0
 2119              		@ frame_needed = 0, uses_anonymous_args = 0
 2120 0000 08B5     		push	{r3, lr}
 2121 0002 806B     		ldr	r0, [r0, #56]
 2122 0004 0023     		movs	r3, #0
 2123 0006 A0F85630 		strh	r3, [r0, #86]	@ movhi
 2124 000a 436E     		ldr	r3, [r0, #100]
 2125 000c B3F1005F 		cmp	r3, #536870912
 2126 0010 04D1     		bne	.L230
 2127 0012 0268     		ldr	r2, [r0]
 2128 0014 9369     		ldr	r3, [r2, #24]
 2129 0016 43F01003 		orr	r3, r3, #16
 2130 001a 9361     		str	r3, [r2, #24]
 2131              	.L230:
 2132 001c 2023     		movs	r3, #32
 2133 001e C0F88030 		str	r3, [r0, #128]
 2134 0022 FFF7FEFF 		bl	HAL_UART_AbortTransmitCpltCallback
 2135 0026 08BD     		pop	{r3, pc}
 2137              		.section	.text.HAL_UART_AbortReceiveCpltCallback,"ax",%progbits
 2138              		.align	2
ARM GAS  C:\Users\xiaofei\AppData\Local\Temp\cccSmIPO.s 			page 37


 2139              		.weak	HAL_UART_AbortReceiveCpltCallback
 2140              		.thumb
 2141              		.thumb_func
 2143              	HAL_UART_AbortReceiveCpltCallback:
 2144              		@ args = 0, pretend = 0, frame = 0
 2145              		@ frame_needed = 0, uses_anonymous_args = 0
 2146              		@ link register save eliminated.
 2147 0000 7047     		bx	lr
 2149 0002 00BF     		.section	.text.HAL_UART_AbortReceive_IT,"ax",%progbits
 2150              		.align	2
 2151              		.global	HAL_UART_AbortReceive_IT
 2152              		.thumb
 2153              		.thumb_func
 2155              	HAL_UART_AbortReceive_IT:
 2156              		@ args = 0, pretend = 0, frame = 0
 2157              		@ frame_needed = 0, uses_anonymous_args = 0
 2158 0000 10B5     		push	{r4, lr}
 2159 0002 0446     		mov	r4, r0
 2160 0004 0268     		ldr	r2, [r0]
 2161 0006 1368     		ldr	r3, [r2]
 2162 0008 23F49073 		bic	r3, r3, #288
 2163 000c 1360     		str	r3, [r2]
 2164 000e 0268     		ldr	r2, [r0]
 2165 0010 9168     		ldr	r1, [r2, #8]
 2166 0012 1B4B     		ldr	r3, .L238
 2167 0014 0B40     		ands	r3, r3, r1
 2168 0016 9360     		str	r3, [r2, #8]
 2169 0018 0368     		ldr	r3, [r0]
 2170 001a 9A68     		ldr	r2, [r3, #8]
 2171 001c 12F0400F 		tst	r2, #64
 2172 0020 21D0     		beq	.L234
 2173 0022 9A68     		ldr	r2, [r3, #8]
 2174 0024 22F04002 		bic	r2, r2, #64
 2175 0028 9A60     		str	r2, [r3, #8]
 2176 002a 836F     		ldr	r3, [r0, #120]
 2177 002c 4BB1     		cbz	r3, .L235
 2178 002e 154A     		ldr	r2, .L238+4
 2179 0030 1A65     		str	r2, [r3, #80]
 2180 0032 806F     		ldr	r0, [r0, #120]
 2181 0034 FFF7FEFF 		bl	HAL_DMA_Abort_IT
 2182 0038 00B3     		cbz	r0, .L236
 2183 003a A06F     		ldr	r0, [r4, #120]
 2184 003c 036D     		ldr	r3, [r0, #80]
 2185 003e 9847     		blx	r3
 2186 0040 1CE0     		b	.L236
 2187              	.L235:
 2188 0042 0023     		movs	r3, #0
 2189 0044 A0F85E30 		strh	r3, [r0, #94]	@ movhi
 2190 0048 8365     		str	r3, [r0, #88]
 2191 004a 0368     		ldr	r3, [r0]
 2192 004c 0F22     		movs	r2, #15
 2193 004e 1A62     		str	r2, [r3, #32]
 2194 0050 0268     		ldr	r2, [r0]
 2195 0052 9369     		ldr	r3, [r2, #24]
 2196 0054 43F00803 		orr	r3, r3, #8
 2197 0058 9361     		str	r3, [r2, #24]
 2198 005a 2023     		movs	r3, #32
ARM GAS  C:\Users\xiaofei\AppData\Local\Temp\cccSmIPO.s 			page 38


 2199 005c C0F88430 		str	r3, [r0, #132]
 2200 0060 FFF7FEFF 		bl	HAL_UART_AbortReceiveCpltCallback
 2201 0064 0AE0     		b	.L236
 2202              	.L234:
 2203 0066 0022     		movs	r2, #0
 2204 0068 A0F85E20 		strh	r2, [r0, #94]	@ movhi
 2205 006c 8265     		str	r2, [r0, #88]
 2206 006e 0F22     		movs	r2, #15
 2207 0070 1A62     		str	r2, [r3, #32]
 2208 0072 2023     		movs	r3, #32
 2209 0074 C0F88430 		str	r3, [r0, #132]
 2210 0078 FFF7FEFF 		bl	HAL_UART_AbortReceiveCpltCallback
 2211              	.L236:
 2212 007c 0020     		movs	r0, #0
 2213 007e 10BD     		pop	{r4, pc}
 2214              	.L239:
 2215              		.align	2
 2216              	.L238:
 2217 0080 FEFFFFEF 		.word	-268435458
 2218 0084 00000000 		.word	UART_DMARxOnlyAbortCallback
 2220              		.section	.text.UART_DMARxOnlyAbortCallback,"ax",%progbits
 2221              		.align	2
 2222              		.thumb
 2223              		.thumb_func
 2225              	UART_DMARxOnlyAbortCallback:
 2226              		@ args = 0, pretend = 0, frame = 0
 2227              		@ frame_needed = 0, uses_anonymous_args = 0
 2228 0000 08B5     		push	{r3, lr}
 2229 0002 806B     		ldr	r0, [r0, #56]
 2230 0004 0023     		movs	r3, #0
 2231 0006 A0F85E30 		strh	r3, [r0, #94]	@ movhi
 2232 000a 0368     		ldr	r3, [r0]
 2233 000c 0F22     		movs	r2, #15
 2234 000e 1A62     		str	r2, [r3, #32]
 2235 0010 0268     		ldr	r2, [r0]
 2236 0012 9369     		ldr	r3, [r2, #24]
 2237 0014 43F00803 		orr	r3, r3, #8
 2238 0018 9361     		str	r3, [r2, #24]
 2239 001a 2023     		movs	r3, #32
 2240 001c C0F88430 		str	r3, [r0, #132]
 2241 0020 FFF7FEFF 		bl	HAL_UART_AbortReceiveCpltCallback
 2242 0024 08BD     		pop	{r3, pc}
 2244 0026 00BF     		.section	.text.HAL_UART_ReceiverTimeout_Config,"ax",%progbits
 2245              		.align	2
 2246              		.global	HAL_UART_ReceiverTimeout_Config
 2247              		.thumb
 2248              		.thumb_func
 2250              	HAL_UART_ReceiverTimeout_Config:
 2251              		@ args = 0, pretend = 0, frame = 0
 2252              		@ frame_needed = 0, uses_anonymous_args = 0
 2253              		@ link register save eliminated.
 2254 0000 0368     		ldr	r3, [r0]
 2255 0002 044A     		ldr	r2, .L244
 2256 0004 9342     		cmp	r3, r2
 2257 0006 04D0     		beq	.L242
 2258 0008 5A69     		ldr	r2, [r3, #20]
 2259 000a 02F07F42 		and	r2, r2, #-16777216
ARM GAS  C:\Users\xiaofei\AppData\Local\Temp\cccSmIPO.s 			page 39


 2260 000e 1143     		orrs	r1, r1, r2
 2261 0010 5961     		str	r1, [r3, #20]
 2262              	.L242:
 2263 0012 7047     		bx	lr
 2264              	.L245:
 2265              		.align	2
 2266              	.L244:
 2267 0014 000C0058 		.word	1476398080
 2269              		.section	.text.HAL_UART_EnableReceiverTimeout,"ax",%progbits
 2270              		.align	2
 2271              		.global	HAL_UART_EnableReceiverTimeout
 2272              		.thumb
 2273              		.thumb_func
 2275              	HAL_UART_EnableReceiverTimeout:
 2276              		@ args = 0, pretend = 0, frame = 0
 2277              		@ frame_needed = 0, uses_anonymous_args = 0
 2278              		@ link register save eliminated.
 2279 0000 0368     		ldr	r3, [r0]
 2280 0002 114A     		ldr	r2, .L251
 2281 0004 9342     		cmp	r3, r2
 2282 0006 19D0     		beq	.L248
 2283 0008 D0F88020 		ldr	r2, [r0, #128]
 2284 000c 202A     		cmp	r2, #32
 2285 000e 17D1     		bne	.L249
 2286 0010 90F87C20 		ldrb	r2, [r0, #124]	@ zero_extendqisi2
 2287 0014 012A     		cmp	r2, #1
 2288 0016 15D0     		beq	.L250
 2289 0018 0122     		movs	r2, #1
 2290 001a 80F87C20 		strb	r2, [r0, #124]
 2291 001e 2422     		movs	r2, #36
 2292 0020 C0F88020 		str	r2, [r0, #128]
 2293 0024 5A68     		ldr	r2, [r3, #4]
 2294 0026 42F40002 		orr	r2, r2, #8388608
 2295 002a 5A60     		str	r2, [r3, #4]
 2296 002c 2023     		movs	r3, #32
 2297 002e C0F88030 		str	r3, [r0, #128]
 2298 0032 0023     		movs	r3, #0
 2299 0034 80F87C30 		strb	r3, [r0, #124]
 2300 0038 1846     		mov	r0, r3
 2301 003a 7047     		bx	lr
 2302              	.L248:
 2303 003c 0120     		movs	r0, #1
 2304 003e 7047     		bx	lr
 2305              	.L249:
 2306 0040 0220     		movs	r0, #2
 2307 0042 7047     		bx	lr
 2308              	.L250:
 2309 0044 0220     		movs	r0, #2
 2310 0046 7047     		bx	lr
 2311              	.L252:
 2312              		.align	2
 2313              	.L251:
 2314 0048 000C0058 		.word	1476398080
 2316              		.section	.text.HAL_UART_DisableReceiverTimeout,"ax",%progbits
 2317              		.align	2
 2318              		.global	HAL_UART_DisableReceiverTimeout
 2319              		.thumb
ARM GAS  C:\Users\xiaofei\AppData\Local\Temp\cccSmIPO.s 			page 40


 2320              		.thumb_func
 2322              	HAL_UART_DisableReceiverTimeout:
 2323              		@ args = 0, pretend = 0, frame = 0
 2324              		@ frame_needed = 0, uses_anonymous_args = 0
 2325              		@ link register save eliminated.
 2326 0000 0368     		ldr	r3, [r0]
 2327 0002 114A     		ldr	r2, .L258
 2328 0004 9342     		cmp	r3, r2
 2329 0006 19D0     		beq	.L255
 2330 0008 D0F88020 		ldr	r2, [r0, #128]
 2331 000c 202A     		cmp	r2, #32
 2332 000e 17D1     		bne	.L256
 2333 0010 90F87C20 		ldrb	r2, [r0, #124]	@ zero_extendqisi2
 2334 0014 012A     		cmp	r2, #1
 2335 0016 15D0     		beq	.L257
 2336 0018 0122     		movs	r2, #1
 2337 001a 80F87C20 		strb	r2, [r0, #124]
 2338 001e 2422     		movs	r2, #36
 2339 0020 C0F88020 		str	r2, [r0, #128]
 2340 0024 5A68     		ldr	r2, [r3, #4]
 2341 0026 22F40002 		bic	r2, r2, #8388608
 2342 002a 5A60     		str	r2, [r3, #4]
 2343 002c 2023     		movs	r3, #32
 2344 002e C0F88030 		str	r3, [r0, #128]
 2345 0032 0023     		movs	r3, #0
 2346 0034 80F87C30 		strb	r3, [r0, #124]
 2347 0038 1846     		mov	r0, r3
 2348 003a 7047     		bx	lr
 2349              	.L255:
 2350 003c 0120     		movs	r0, #1
 2351 003e 7047     		bx	lr
 2352              	.L256:
 2353 0040 0220     		movs	r0, #2
 2354 0042 7047     		bx	lr
 2355              	.L257:
 2356 0044 0220     		movs	r0, #2
 2357 0046 7047     		bx	lr
 2358              	.L259:
 2359              		.align	2
 2360              	.L258:
 2361 0048 000C0058 		.word	1476398080
 2363              		.section	.text.HAL_MultiProcessor_EnterMuteMode,"ax",%progbits
 2364              		.align	2
 2365              		.global	HAL_MultiProcessor_EnterMuteMode
 2366              		.thumb
 2367              		.thumb_func
 2369              	HAL_MultiProcessor_EnterMuteMode:
 2370              		@ args = 0, pretend = 0, frame = 0
 2371              		@ frame_needed = 0, uses_anonymous_args = 0
 2372              		@ link register save eliminated.
 2373 0000 0268     		ldr	r2, [r0]
 2374 0002 9369     		ldr	r3, [r2, #24]
 2375 0004 43F00403 		orr	r3, r3, #4
 2376 0008 9361     		str	r3, [r2, #24]
 2377 000a 7047     		bx	lr
 2379              		.section	.text.HAL_HalfDuplex_EnableTransmitter,"ax",%progbits
 2380              		.align	2
ARM GAS  C:\Users\xiaofei\AppData\Local\Temp\cccSmIPO.s 			page 41


 2381              		.global	HAL_HalfDuplex_EnableTransmitter
 2382              		.thumb
 2383              		.thumb_func
 2385              	HAL_HalfDuplex_EnableTransmitter:
 2386              		@ args = 0, pretend = 0, frame = 0
 2387              		@ frame_needed = 0, uses_anonymous_args = 0
 2388              		@ link register save eliminated.
 2389 0000 90F87C30 		ldrb	r3, [r0, #124]	@ zero_extendqisi2
 2390 0004 012B     		cmp	r3, #1
 2391 0006 17D0     		beq	.L263
 2392 0008 0123     		movs	r3, #1
 2393 000a 80F87C30 		strb	r3, [r0, #124]
 2394 000e 2423     		movs	r3, #36
 2395 0010 C0F88030 		str	r3, [r0, #128]
 2396 0014 0268     		ldr	r2, [r0]
 2397 0016 1368     		ldr	r3, [r2]
 2398 0018 23F00C03 		bic	r3, r3, #12
 2399 001c 1360     		str	r3, [r2]
 2400 001e 0268     		ldr	r2, [r0]
 2401 0020 1368     		ldr	r3, [r2]
 2402 0022 43F00803 		orr	r3, r3, #8
 2403 0026 1360     		str	r3, [r2]
 2404 0028 2023     		movs	r3, #32
 2405 002a C0F88030 		str	r3, [r0, #128]
 2406 002e 0023     		movs	r3, #0
 2407 0030 80F87C30 		strb	r3, [r0, #124]
 2408 0034 1846     		mov	r0, r3
 2409 0036 7047     		bx	lr
 2410              	.L263:
 2411 0038 0220     		movs	r0, #2
 2412 003a 7047     		bx	lr
 2414              		.section	.text.HAL_HalfDuplex_EnableReceiver,"ax",%progbits
 2415              		.align	2
 2416              		.global	HAL_HalfDuplex_EnableReceiver
 2417              		.thumb
 2418              		.thumb_func
 2420              	HAL_HalfDuplex_EnableReceiver:
 2421              		@ args = 0, pretend = 0, frame = 0
 2422              		@ frame_needed = 0, uses_anonymous_args = 0
 2423              		@ link register save eliminated.
 2424 0000 90F87C30 		ldrb	r3, [r0, #124]	@ zero_extendqisi2
 2425 0004 012B     		cmp	r3, #1
 2426 0006 17D0     		beq	.L266
 2427 0008 0123     		movs	r3, #1
 2428 000a 80F87C30 		strb	r3, [r0, #124]
 2429 000e 2423     		movs	r3, #36
 2430 0010 C0F88030 		str	r3, [r0, #128]
 2431 0014 0268     		ldr	r2, [r0]
 2432 0016 1368     		ldr	r3, [r2]
 2433 0018 23F00C03 		bic	r3, r3, #12
 2434 001c 1360     		str	r3, [r2]
 2435 001e 0268     		ldr	r2, [r0]
 2436 0020 1368     		ldr	r3, [r2]
 2437 0022 43F00403 		orr	r3, r3, #4
 2438 0026 1360     		str	r3, [r2]
 2439 0028 2023     		movs	r3, #32
 2440 002a C0F88030 		str	r3, [r0, #128]
ARM GAS  C:\Users\xiaofei\AppData\Local\Temp\cccSmIPO.s 			page 42


 2441 002e 0023     		movs	r3, #0
 2442 0030 80F87C30 		strb	r3, [r0, #124]
 2443 0034 1846     		mov	r0, r3
 2444 0036 7047     		bx	lr
 2445              	.L266:
 2446 0038 0220     		movs	r0, #2
 2447 003a 7047     		bx	lr
 2449              		.section	.text.HAL_LIN_SendBreak,"ax",%progbits
 2450              		.align	2
 2451              		.global	HAL_LIN_SendBreak
 2452              		.thumb
 2453              		.thumb_func
 2455              	HAL_LIN_SendBreak:
 2456              		@ args = 0, pretend = 0, frame = 0
 2457              		@ frame_needed = 0, uses_anonymous_args = 0
 2458              		@ link register save eliminated.
 2459 0000 90F87C30 		ldrb	r3, [r0, #124]	@ zero_extendqisi2
 2460 0004 012B     		cmp	r3, #1
 2461 0006 12D0     		beq	.L269
 2462 0008 0123     		movs	r3, #1
 2463 000a 80F87C30 		strb	r3, [r0, #124]
 2464 000e 2423     		movs	r3, #36
 2465 0010 C0F88030 		str	r3, [r0, #128]
 2466 0014 0268     		ldr	r2, [r0]
 2467 0016 9369     		ldr	r3, [r2, #24]
 2468 0018 43F00203 		orr	r3, r3, #2
 2469 001c 9361     		str	r3, [r2, #24]
 2470 001e 2023     		movs	r3, #32
 2471 0020 C0F88030 		str	r3, [r0, #128]
 2472 0024 0023     		movs	r3, #0
 2473 0026 80F87C30 		strb	r3, [r0, #124]
 2474 002a 1846     		mov	r0, r3
 2475 002c 7047     		bx	lr
 2476              	.L269:
 2477 002e 0220     		movs	r0, #2
 2478 0030 7047     		bx	lr
 2480 0032 00BF     		.section	.text.HAL_UART_GetState,"ax",%progbits
 2481              		.align	2
 2482              		.global	HAL_UART_GetState
 2483              		.thumb
 2484              		.thumb_func
 2486              	HAL_UART_GetState:
 2487              		@ args = 0, pretend = 0, frame = 0
 2488              		@ frame_needed = 0, uses_anonymous_args = 0
 2489              		@ link register save eliminated.
 2490 0000 D0F88020 		ldr	r2, [r0, #128]
 2491 0004 D0F88400 		ldr	r0, [r0, #132]
 2492 0008 1043     		orrs	r0, r0, r2
 2493 000a 7047     		bx	lr
 2495              		.section	.text.HAL_UART_GetError,"ax",%progbits
 2496              		.align	2
 2497              		.global	HAL_UART_GetError
 2498              		.thumb
 2499              		.thumb_func
 2501              	HAL_UART_GetError:
 2502              		@ args = 0, pretend = 0, frame = 0
 2503              		@ frame_needed = 0, uses_anonymous_args = 0
ARM GAS  C:\Users\xiaofei\AppData\Local\Temp\cccSmIPO.s 			page 43


 2504              		@ link register save eliminated.
 2505 0000 D0F88800 		ldr	r0, [r0, #136]
 2506 0004 7047     		bx	lr
 2508              		.global	__aeabi_uldivmod
 2509 0006 00BF     		.section	.text.UART_SetConfig,"ax",%progbits
 2510              		.align	2
 2511              		.global	UART_SetConfig
 2512              		.thumb
 2513              		.thumb_func
 2515              	UART_SetConfig:
 2516              		@ args = 0, pretend = 0, frame = 24
 2517              		@ frame_needed = 0, uses_anonymous_args = 0
 2518 0000 2DE9F043 		push	{r4, r5, r6, r7, r8, r9, lr}
 2519 0004 87B0     		sub	sp, sp, #28
 2520 0006 0446     		mov	r4, r0
 2521 0008 8268     		ldr	r2, [r0, #8]
 2522 000a 0369     		ldr	r3, [r0, #16]
 2523 000c 1A43     		orrs	r2, r2, r3
 2524 000e 4369     		ldr	r3, [r0, #20]
 2525 0010 1A43     		orrs	r2, r2, r3
 2526 0012 C369     		ldr	r3, [r0, #28]
 2527 0014 1A43     		orrs	r2, r2, r3
 2528 0016 436E     		ldr	r3, [r0, #100]
 2529 0018 1A43     		orrs	r2, r2, r3
 2530 001a 0168     		ldr	r1, [r0]
 2531 001c 0868     		ldr	r0, [r1]
 2532 001e 7C4B     		ldr	r3, .L397
 2533 0020 0340     		ands	r3, r3, r0
 2534 0022 1343     		orrs	r3, r3, r2
 2535 0024 0B60     		str	r3, [r1]
 2536 0026 2168     		ldr	r1, [r4]
 2537 0028 4B68     		ldr	r3, [r1, #4]
 2538 002a 23F44052 		bic	r2, r3, #12288
 2539 002e E368     		ldr	r3, [r4, #12]
 2540 0030 1343     		orrs	r3, r3, r2
 2541 0032 4B60     		str	r3, [r1, #4]
 2542 0034 A169     		ldr	r1, [r4, #24]
 2543 0036 2268     		ldr	r2, [r4]
 2544 0038 764B     		ldr	r3, .L397+4
 2545 003a 9A42     		cmp	r2, r3
 2546 003c 01D0     		beq	.L273
 2547 003e 236A     		ldr	r3, [r4, #32]
 2548 0040 1943     		orrs	r1, r1, r3
 2549              	.L273:
 2550 0042 9068     		ldr	r0, [r2, #8]
 2551 0044 744B     		ldr	r3, .L397+8
 2552 0046 0340     		ands	r3, r3, r0
 2553 0048 0B43     		orrs	r3, r3, r1
 2554 004a 9360     		str	r3, [r2, #8]
 2555 004c 2168     		ldr	r1, [r4]
 2556 004e CB6A     		ldr	r3, [r1, #44]
 2557 0050 23F00F02 		bic	r2, r3, #15
 2558 0054 636A     		ldr	r3, [r4, #36]
 2559 0056 1343     		orrs	r3, r3, r2
 2560 0058 CB62     		str	r3, [r1, #44]
 2561 005a 2368     		ldr	r3, [r4]
 2562 005c 6F4A     		ldr	r2, .L397+12
ARM GAS  C:\Users\xiaofei\AppData\Local\Temp\cccSmIPO.s 			page 44


 2563 005e 9342     		cmp	r3, r2
 2564 0060 3CD1     		bne	.L274
 2565 0062 6F4A     		ldr	r2, .L397+16
 2566 0064 526D     		ldr	r2, [r2, #84]
 2567 0066 02F03802 		and	r2, r2, #56
 2568 006a 282A     		cmp	r2, #40
 2569 006c 34D8     		bhi	.L275
 2570 006e DFE812F0 		tbh	[pc, r2, lsl #1]
 2571              	.L277:
 2572 0072 2900     		.2byte	(.L276-.L277)/2
 2573 0074 3300     		.2byte	(.L275-.L277)/2
 2574 0076 3300     		.2byte	(.L275-.L277)/2
 2575 0078 3300     		.2byte	(.L275-.L277)/2
 2576 007a 3300     		.2byte	(.L275-.L277)/2
 2577 007c 3300     		.2byte	(.L275-.L277)/2
 2578 007e 3300     		.2byte	(.L275-.L277)/2
 2579 0080 3300     		.2byte	(.L275-.L277)/2
 2580 0082 3201     		.2byte	(.L375-.L277)/2
 2581 0084 3300     		.2byte	(.L275-.L277)/2
 2582 0086 3300     		.2byte	(.L275-.L277)/2
 2583 0088 3300     		.2byte	(.L275-.L277)/2
 2584 008a 3300     		.2byte	(.L275-.L277)/2
 2585 008c 3300     		.2byte	(.L275-.L277)/2
 2586 008e 3300     		.2byte	(.L275-.L277)/2
 2587 0090 3300     		.2byte	(.L275-.L277)/2
 2588 0092 2B00     		.2byte	(.L279-.L277)/2
 2589 0094 3300     		.2byte	(.L275-.L277)/2
 2590 0096 3300     		.2byte	(.L275-.L277)/2
 2591 0098 3300     		.2byte	(.L275-.L277)/2
 2592 009a 3300     		.2byte	(.L275-.L277)/2
 2593 009c 3300     		.2byte	(.L275-.L277)/2
 2594 009e 3300     		.2byte	(.L275-.L277)/2
 2595 00a0 3300     		.2byte	(.L275-.L277)/2
 2596 00a2 2D00     		.2byte	(.L280-.L277)/2
 2597 00a4 3300     		.2byte	(.L275-.L277)/2
 2598 00a6 3300     		.2byte	(.L275-.L277)/2
 2599 00a8 3300     		.2byte	(.L275-.L277)/2
 2600 00aa 3300     		.2byte	(.L275-.L277)/2
 2601 00ac 3300     		.2byte	(.L275-.L277)/2
 2602 00ae 3300     		.2byte	(.L275-.L277)/2
 2603 00b0 3300     		.2byte	(.L275-.L277)/2
 2604 00b2 2F00     		.2byte	(.L281-.L277)/2
 2605 00b4 3300     		.2byte	(.L275-.L277)/2
 2606 00b6 3300     		.2byte	(.L275-.L277)/2
 2607 00b8 3300     		.2byte	(.L275-.L277)/2
 2608 00ba 3300     		.2byte	(.L275-.L277)/2
 2609 00bc 3300     		.2byte	(.L275-.L277)/2
 2610 00be 3300     		.2byte	(.L275-.L277)/2
 2611 00c0 3300     		.2byte	(.L275-.L277)/2
 2612 00c2 3100     		.2byte	(.L282-.L277)/2
 2613              		.p2align 1
 2614              	.L276:
 2615 00c4 0122     		movs	r2, #1
 2616 00c6 19E1     		b	.L278
 2617              	.L279:
 2618 00c8 0822     		movs	r2, #8
 2619 00ca 17E1     		b	.L278
ARM GAS  C:\Users\xiaofei\AppData\Local\Temp\cccSmIPO.s 			page 45


 2620              	.L280:
 2621 00cc 1022     		movs	r2, #16
 2622 00ce 15E1     		b	.L278
 2623              	.L281:
 2624 00d0 2022     		movs	r2, #32
 2625 00d2 13E1     		b	.L278
 2626              	.L282:
 2627 00d4 4022     		movs	r2, #64
 2628 00d6 11E1     		b	.L278
 2629              	.L275:
 2630 00d8 8022     		movs	r2, #128
 2631 00da 0FE1     		b	.L278
 2632              	.L274:
 2633 00dc 514A     		ldr	r2, .L397+20
 2634 00de 9342     		cmp	r3, r2
 2635 00e0 19D1     		bne	.L283
 2636 00e2 4F4A     		ldr	r2, .L397+16
 2637 00e4 526D     		ldr	r2, [r2, #84]
 2638 00e6 02F00702 		and	r2, r2, #7
 2639 00ea 052A     		cmp	r2, #5
 2640 00ec 11D8     		bhi	.L284
 2641 00ee DFE812F0 		tbh	[pc, r2, lsl #1]
 2642              	.L286:
 2643 00f2 0600     		.2byte	(.L285-.L286)/2
 2644 00f4 F400     		.2byte	(.L376-.L286)/2
 2645 00f6 0800     		.2byte	(.L287-.L286)/2
 2646 00f8 0A00     		.2byte	(.L288-.L286)/2
 2647 00fa 0C00     		.2byte	(.L289-.L286)/2
 2648 00fc 0E00     		.2byte	(.L290-.L286)/2
 2649              		.p2align 1
 2650              	.L285:
 2651 00fe 0022     		movs	r2, #0
 2652 0100 FCE0     		b	.L278
 2653              	.L287:
 2654 0102 0822     		movs	r2, #8
 2655 0104 FAE0     		b	.L278
 2656              	.L288:
 2657 0106 1022     		movs	r2, #16
 2658 0108 F8E0     		b	.L278
 2659              	.L289:
 2660 010a 2022     		movs	r2, #32
 2661 010c F6E0     		b	.L278
 2662              	.L290:
 2663 010e 4022     		movs	r2, #64
 2664 0110 F4E0     		b	.L278
 2665              	.L284:
 2666 0112 8022     		movs	r2, #128
 2667 0114 F2E0     		b	.L278
 2668              	.L283:
 2669 0116 444A     		ldr	r2, .L397+24
 2670 0118 9342     		cmp	r3, r2
 2671 011a 19D1     		bne	.L291
 2672 011c 404A     		ldr	r2, .L397+16
 2673 011e 526D     		ldr	r2, [r2, #84]
 2674 0120 02F00702 		and	r2, r2, #7
 2675 0124 052A     		cmp	r2, #5
 2676 0126 11D8     		bhi	.L292
ARM GAS  C:\Users\xiaofei\AppData\Local\Temp\cccSmIPO.s 			page 46


 2677 0128 DFE812F0 		tbh	[pc, r2, lsl #1]
 2678              	.L294:
 2679 012c 0600     		.2byte	(.L293-.L294)/2
 2680 012e D900     		.2byte	(.L377-.L294)/2
 2681 0130 0800     		.2byte	(.L295-.L294)/2
 2682 0132 0A00     		.2byte	(.L296-.L294)/2
 2683 0134 0C00     		.2byte	(.L297-.L294)/2
 2684 0136 0E00     		.2byte	(.L298-.L294)/2
 2685              		.p2align 1
 2686              	.L293:
 2687 0138 0022     		movs	r2, #0
 2688 013a DFE0     		b	.L278
 2689              	.L295:
 2690 013c 0822     		movs	r2, #8
 2691 013e DDE0     		b	.L278
 2692              	.L296:
 2693 0140 1022     		movs	r2, #16
 2694 0142 DBE0     		b	.L278
 2695              	.L297:
 2696 0144 2022     		movs	r2, #32
 2697 0146 D9E0     		b	.L278
 2698              	.L298:
 2699 0148 4022     		movs	r2, #64
 2700 014a D7E0     		b	.L278
 2701              	.L292:
 2702 014c 8022     		movs	r2, #128
 2703 014e D5E0     		b	.L278
 2704              	.L291:
 2705 0150 364A     		ldr	r2, .L397+28
 2706 0152 9342     		cmp	r3, r2
 2707 0154 16D1     		bne	.L299
 2708 0156 324A     		ldr	r2, .L397+16
 2709 0158 526D     		ldr	r2, [r2, #84]
 2710 015a 02F00702 		and	r2, r2, #7
 2711 015e 052A     		cmp	r2, #5
 2712 0160 0ED8     		bhi	.L300
 2713 0162 DFE802F0 		tbb	[pc, r2]
 2714              	.L302:
 2715 0166 03       		.byte	(.L301-.L302)/2
 2716 0167 BE       		.byte	(.L378-.L302)/2
 2717 0168 05       		.byte	(.L303-.L302)/2
 2718 0169 07       		.byte	(.L304-.L302)/2
 2719 016a 09       		.byte	(.L305-.L302)/2
 2720 016b 0B       		.byte	(.L306-.L302)/2
 2721              		.p2align 1
 2722              	.L301:
 2723 016c 0022     		movs	r2, #0
 2724 016e C5E0     		b	.L278
 2725              	.L303:
 2726 0170 0822     		movs	r2, #8
 2727 0172 C3E0     		b	.L278
 2728              	.L304:
 2729 0174 1022     		movs	r2, #16
 2730 0176 C1E0     		b	.L278
 2731              	.L305:
 2732 0178 2022     		movs	r2, #32
 2733 017a BFE0     		b	.L278
ARM GAS  C:\Users\xiaofei\AppData\Local\Temp\cccSmIPO.s 			page 47


 2734              	.L306:
 2735 017c 4022     		movs	r2, #64
 2736 017e BDE0     		b	.L278
 2737              	.L300:
 2738 0180 8022     		movs	r2, #128
 2739 0182 BBE0     		b	.L278
 2740              	.L299:
 2741 0184 2A4A     		ldr	r2, .L397+32
 2742 0186 9342     		cmp	r3, r2
 2743 0188 16D1     		bne	.L307
 2744 018a 254A     		ldr	r2, .L397+16
 2745 018c 526D     		ldr	r2, [r2, #84]
 2746 018e 02F00702 		and	r2, r2, #7
 2747 0192 052A     		cmp	r2, #5
 2748 0194 0ED8     		bhi	.L308
 2749 0196 DFE802F0 		tbb	[pc, r2]
 2750              	.L310:
 2751 019a 03       		.byte	(.L309-.L310)/2
 2752 019b A6       		.byte	(.L379-.L310)/2
 2753 019c 05       		.byte	(.L311-.L310)/2
 2754 019d 07       		.byte	(.L312-.L310)/2
 2755 019e 09       		.byte	(.L313-.L310)/2
 2756 019f 0B       		.byte	(.L314-.L310)/2
 2757              		.p2align 1
 2758              	.L309:
 2759 01a0 0022     		movs	r2, #0
 2760 01a2 ABE0     		b	.L278
 2761              	.L311:
 2762 01a4 0822     		movs	r2, #8
 2763 01a6 A9E0     		b	.L278
 2764              	.L312:
 2765 01a8 1022     		movs	r2, #16
 2766 01aa A7E0     		b	.L278
 2767              	.L313:
 2768 01ac 2022     		movs	r2, #32
 2769 01ae A5E0     		b	.L278
 2770              	.L314:
 2771 01b0 4022     		movs	r2, #64
 2772 01b2 A3E0     		b	.L278
 2773              	.L308:
 2774 01b4 8022     		movs	r2, #128
 2775 01b6 A1E0     		b	.L278
 2776              	.L307:
 2777 01b8 1E4A     		ldr	r2, .L397+36
 2778 01ba 9342     		cmp	r3, r2
 2779 01bc 3CD1     		bne	.L315
 2780 01be 184A     		ldr	r2, .L397+16
 2781 01c0 526D     		ldr	r2, [r2, #84]
 2782 01c2 02F03802 		and	r2, r2, #56
 2783 01c6 282A     		cmp	r2, #40
 2784 01c8 20D8     		bhi	.L316
 2785 01ca DFE802F0 		tbb	[pc, r2]
 2786              	.L318:
 2787 01ce 15       		.byte	(.L317-.L318)/2
 2788 01cf 1F       		.byte	(.L316-.L318)/2
 2789 01d0 1F       		.byte	(.L316-.L318)/2
 2790 01d1 1F       		.byte	(.L316-.L318)/2
ARM GAS  C:\Users\xiaofei\AppData\Local\Temp\cccSmIPO.s 			page 48


 2791 01d2 1F       		.byte	(.L316-.L318)/2
 2792 01d3 1F       		.byte	(.L316-.L318)/2
 2793 01d4 1F       		.byte	(.L316-.L318)/2
 2794 01d5 1F       		.byte	(.L316-.L318)/2
 2795 01d6 8E       		.byte	(.L380-.L318)/2
 2796 01d7 1F       		.byte	(.L316-.L318)/2
 2797 01d8 1F       		.byte	(.L316-.L318)/2
 2798 01d9 1F       		.byte	(.L316-.L318)/2
 2799 01da 1F       		.byte	(.L316-.L318)/2
 2800 01db 1F       		.byte	(.L316-.L318)/2
 2801 01dc 1F       		.byte	(.L316-.L318)/2
 2802 01dd 1F       		.byte	(.L316-.L318)/2
 2803 01de 17       		.byte	(.L319-.L318)/2
 2804 01df 1F       		.byte	(.L316-.L318)/2
 2805 01e0 1F       		.byte	(.L316-.L318)/2
 2806 01e1 1F       		.byte	(.L316-.L318)/2
 2807 01e2 1F       		.byte	(.L316-.L318)/2
 2808 01e3 1F       		.byte	(.L316-.L318)/2
 2809 01e4 1F       		.byte	(.L316-.L318)/2
 2810 01e5 1F       		.byte	(.L316-.L318)/2
 2811 01e6 19       		.byte	(.L320-.L318)/2
 2812 01e7 1F       		.byte	(.L316-.L318)/2
 2813 01e8 1F       		.byte	(.L316-.L318)/2
 2814 01e9 1F       		.byte	(.L316-.L318)/2
 2815 01ea 1F       		.byte	(.L316-.L318)/2
 2816 01eb 1F       		.byte	(.L316-.L318)/2
 2817 01ec 1F       		.byte	(.L316-.L318)/2
 2818 01ed 1F       		.byte	(.L316-.L318)/2
 2819 01ee 1B       		.byte	(.L321-.L318)/2
 2820 01ef 1F       		.byte	(.L316-.L318)/2
 2821 01f0 1F       		.byte	(.L316-.L318)/2
 2822 01f1 1F       		.byte	(.L316-.L318)/2
 2823 01f2 1F       		.byte	(.L316-.L318)/2
 2824 01f3 1F       		.byte	(.L316-.L318)/2
 2825 01f4 1F       		.byte	(.L316-.L318)/2
 2826 01f5 1F       		.byte	(.L316-.L318)/2
 2827 01f6 1D       		.byte	(.L322-.L318)/2
 2828 01f7 00       		.p2align 1
 2829              	.L317:
 2830 01f8 0122     		movs	r2, #1
 2831 01fa 7FE0     		b	.L278
 2832              	.L319:
 2833 01fc 0822     		movs	r2, #8
 2834 01fe 7DE0     		b	.L278
 2835              	.L320:
 2836 0200 1022     		movs	r2, #16
 2837 0202 7BE0     		b	.L278
 2838              	.L321:
 2839 0204 2022     		movs	r2, #32
 2840 0206 79E0     		b	.L278
 2841              	.L322:
 2842 0208 4022     		movs	r2, #64
 2843 020a 77E0     		b	.L278
 2844              	.L316:
 2845 020c 8022     		movs	r2, #128
 2846 020e 75E0     		b	.L278
 2847              	.L398:
ARM GAS  C:\Users\xiaofei\AppData\Local\Temp\cccSmIPO.s 			page 49


 2848              		.align	2
 2849              	.L397:
 2850 0210 F369FFCF 		.word	-805344781
 2851 0214 000C0058 		.word	1476398080
 2852 0218 FFF4FF11 		.word	301987071
 2853 021c 00100140 		.word	1073811456
 2854 0220 00440258 		.word	1476543488
 2855 0224 00440040 		.word	1073759232
 2856 0228 00480040 		.word	1073760256
 2857 022c 004C0040 		.word	1073761280
 2858 0230 00500040 		.word	1073762304
 2859 0234 00140140 		.word	1073812480
 2860              	.L315:
 2861 0238 884A     		ldr	r2, .L399
 2862 023a 9342     		cmp	r3, r2
 2863 023c 16D1     		bne	.L323
 2864 023e 884A     		ldr	r2, .L399+4
 2865 0240 526D     		ldr	r2, [r2, #84]
 2866 0242 02F00702 		and	r2, r2, #7
 2867 0246 052A     		cmp	r2, #5
 2868 0248 0ED8     		bhi	.L324
 2869 024a DFE802F0 		tbb	[pc, r2]
 2870              	.L326:
 2871 024e 03       		.byte	(.L325-.L326)/2
 2872 024f 50       		.byte	(.L381-.L326)/2
 2873 0250 05       		.byte	(.L327-.L326)/2
 2874 0251 07       		.byte	(.L328-.L326)/2
 2875 0252 09       		.byte	(.L329-.L326)/2
 2876 0253 0B       		.byte	(.L330-.L326)/2
 2877              		.p2align 1
 2878              	.L325:
 2879 0254 0022     		movs	r2, #0
 2880 0256 51E0     		b	.L278
 2881              	.L327:
 2882 0258 0822     		movs	r2, #8
 2883 025a 4FE0     		b	.L278
 2884              	.L328:
 2885 025c 1022     		movs	r2, #16
 2886 025e 4DE0     		b	.L278
 2887              	.L329:
 2888 0260 2022     		movs	r2, #32
 2889 0262 4BE0     		b	.L278
 2890              	.L330:
 2891 0264 4022     		movs	r2, #64
 2892 0266 49E0     		b	.L278
 2893              	.L324:
 2894 0268 8022     		movs	r2, #128
 2895 026a 47E0     		b	.L278
 2896              	.L323:
 2897 026c 7D4A     		ldr	r2, .L399+8
 2898 026e 9342     		cmp	r3, r2
 2899 0270 16D1     		bne	.L331
 2900 0272 7B4A     		ldr	r2, .L399+4
 2901 0274 526D     		ldr	r2, [r2, #84]
 2902 0276 02F00702 		and	r2, r2, #7
 2903 027a 052A     		cmp	r2, #5
 2904 027c 0ED8     		bhi	.L332
ARM GAS  C:\Users\xiaofei\AppData\Local\Temp\cccSmIPO.s 			page 50


 2905 027e DFE802F0 		tbb	[pc, r2]
 2906              	.L334:
 2907 0282 03       		.byte	(.L333-.L334)/2
 2908 0283 38       		.byte	(.L382-.L334)/2
 2909 0284 05       		.byte	(.L335-.L334)/2
 2910 0285 07       		.byte	(.L336-.L334)/2
 2911 0286 09       		.byte	(.L337-.L334)/2
 2912 0287 0B       		.byte	(.L338-.L334)/2
 2913              		.p2align 1
 2914              	.L333:
 2915 0288 0022     		movs	r2, #0
 2916 028a 37E0     		b	.L278
 2917              	.L335:
 2918 028c 0822     		movs	r2, #8
 2919 028e 35E0     		b	.L278
 2920              	.L336:
 2921 0290 1022     		movs	r2, #16
 2922 0292 33E0     		b	.L278
 2923              	.L337:
 2924 0294 2022     		movs	r2, #32
 2925 0296 31E0     		b	.L278
 2926              	.L338:
 2927 0298 4022     		movs	r2, #64
 2928 029a 2FE0     		b	.L278
 2929              	.L332:
 2930 029c 8022     		movs	r2, #128
 2931 029e 2DE0     		b	.L278
 2932              	.L331:
 2933 02a0 714A     		ldr	r2, .L399+12
 2934 02a2 9342     		cmp	r3, r2
 2935 02a4 27D1     		bne	.L383
 2936 02a6 02F50E32 		add	r2, r2, #145408
 2937 02aa 926D     		ldr	r2, [r2, #88]
 2938 02ac 02F00702 		and	r2, r2, #7
 2939 02b0 052A     		cmp	r2, #5
 2940 02b2 0ED8     		bhi	.L339
 2941 02b4 DFE802F0 		tbb	[pc, r2]
 2942              	.L341:
 2943 02b8 03       		.byte	(.L340-.L341)/2
 2944 02b9 21       		.byte	(.L384-.L341)/2
 2945 02ba 05       		.byte	(.L342-.L341)/2
 2946 02bb 07       		.byte	(.L343-.L341)/2
 2947 02bc 09       		.byte	(.L344-.L341)/2
 2948 02bd 0B       		.byte	(.L345-.L341)/2
 2949              		.p2align 1
 2950              	.L340:
 2951 02be 0222     		movs	r2, #2
 2952 02c0 1CE0     		b	.L278
 2953              	.L342:
 2954 02c2 0822     		movs	r2, #8
 2955 02c4 1AE0     		b	.L278
 2956              	.L343:
 2957 02c6 1022     		movs	r2, #16
 2958 02c8 18E0     		b	.L278
 2959              	.L344:
 2960 02ca 2022     		movs	r2, #32
 2961 02cc 16E0     		b	.L278
ARM GAS  C:\Users\xiaofei\AppData\Local\Temp\cccSmIPO.s 			page 51


 2962              	.L345:
 2963 02ce 4022     		movs	r2, #64
 2964 02d0 14E0     		b	.L278
 2965              	.L339:
 2966 02d2 8022     		movs	r2, #128
 2967 02d4 12E0     		b	.L278
 2968              	.L375:
 2969 02d6 0422     		movs	r2, #4
 2970 02d8 10E0     		b	.L278
 2971              	.L376:
 2972 02da 0422     		movs	r2, #4
 2973 02dc 0EE0     		b	.L278
 2974              	.L377:
 2975 02de 0422     		movs	r2, #4
 2976 02e0 0CE0     		b	.L278
 2977              	.L378:
 2978 02e2 0422     		movs	r2, #4
 2979 02e4 0AE0     		b	.L278
 2980              	.L379:
 2981 02e6 0422     		movs	r2, #4
 2982 02e8 08E0     		b	.L278
 2983              	.L380:
 2984 02ea 0422     		movs	r2, #4
 2985 02ec 06E0     		b	.L278
 2986              	.L381:
 2987 02ee 0422     		movs	r2, #4
 2988 02f0 04E0     		b	.L278
 2989              	.L382:
 2990 02f2 0422     		movs	r2, #4
 2991 02f4 02E0     		b	.L278
 2992              	.L383:
 2993 02f6 8022     		movs	r2, #128
 2994 02f8 00E0     		b	.L278
 2995              	.L384:
 2996 02fa 0422     		movs	r2, #4
 2997              	.L278:
 2998 02fc 5A49     		ldr	r1, .L399+12
 2999 02fe 8B42     		cmp	r3, r1
 3000 0300 6BD1     		bne	.L346
 3001 0302 082A     		cmp	r2, #8
 3002 0304 19D0     		beq	.L348
 3003 0306 04D8     		bhi	.L349
 3004 0308 022A     		cmp	r2, #2
 3005 030a 0CD0     		beq	.L350
 3006 030c 042A     		cmp	r2, #4
 3007 030e 0ED0     		beq	.L351
 3008 0310 27E0     		b	.L347
 3009              	.L349:
 3010 0312 202A     		cmp	r2, #32
 3011 0314 04D0     		beq	.L352
 3012 0316 402A     		cmp	r2, #64
 3013 0318 26D0     		beq	.L385
 3014 031a 102A     		cmp	r2, #16
 3015 031c 21D1     		bne	.L347
 3016 031e 12E0     		b	.L354
 3017              	.L352:
 3018 0320 5248     		ldr	r0, .L399+16
ARM GAS  C:\Users\xiaofei\AppData\Local\Temp\cccSmIPO.s 			page 52


 3019 0322 0025     		movs	r5, #0
 3020 0324 26E0     		b	.L353
 3021              	.L350:
 3022 0326 FFF7FEFF 		bl	HAL_RCCEx_GetD3PCLK1Freq
 3023 032a 0025     		movs	r5, #0
 3024 032c 22E0     		b	.L353
 3025              	.L351:
 3026 032e 03A8     		add	r0, sp, #12
 3027 0330 FFF7FEFF 		bl	HAL_RCCEx_GetPLL2ClockFreq
 3028 0334 0498     		ldr	r0, [sp, #16]
 3029 0336 0025     		movs	r5, #0
 3030 0338 1CE0     		b	.L353
 3031              	.L348:
 3032 033a 6846     		mov	r0, sp
 3033 033c FFF7FEFF 		bl	HAL_RCCEx_GetPLL3ClockFreq
 3034 0340 0198     		ldr	r0, [sp, #4]
 3035 0342 0025     		movs	r5, #0
 3036 0344 16E0     		b	.L353
 3037              	.L354:
 3038 0346 464B     		ldr	r3, .L399+4
 3039 0348 1B68     		ldr	r3, [r3]
 3040 034a 13F0200F 		tst	r3, #32
 3041 034e 0FD0     		beq	.L386
 3042 0350 434B     		ldr	r3, .L399+4
 3043 0352 1868     		ldr	r0, [r3]
 3044 0354 C0F3C100 		ubfx	r0, r0, #3, #2
 3045 0358 454B     		ldr	r3, .L399+20
 3046 035a 23FA00F0 		lsr	r0, r3, r0
 3047 035e 0025     		movs	r5, #0
 3048 0360 08E0     		b	.L353
 3049              	.L347:
 3050 0362 0020     		movs	r0, #0
 3051 0364 0125     		movs	r5, #1
 3052 0366 05E0     		b	.L353
 3053              	.L385:
 3054 0368 4FF40040 		mov	r0, #32768
 3055 036c 0025     		movs	r5, #0
 3056 036e 01E0     		b	.L353
 3057              	.L386:
 3058 0370 3F48     		ldr	r0, .L399+20
 3059 0372 0025     		movs	r5, #0
 3060              	.L353:
 3061 0374 0028     		cmp	r0, #0
 3062 0376 00F02881 		beq	.L355
 3063 037a 626A     		ldr	r2, [r4, #36]
 3064 037c 3D4B     		ldr	r3, .L399+24
 3065 037e 33F81220 		ldrh	r2, [r3, r2, lsl #1]
 3066 0382 B0FBF2F3 		udiv	r3, r0, r2
 3067 0386 6668     		ldr	r6, [r4, #4]
 3068 0388 06EB4601 		add	r1, r6, r6, lsl #1
 3069 038c 8B42     		cmp	r3, r1
 3070 038e C0F01381 		bcc	.L387
 3071 0392 B3EB063F 		cmp	r3, r6, lsl #12
 3072 0396 00F21181 		bhi	.L388
 3073 039a 0027     		movs	r7, #0
 3074 039c 92B2     		uxth	r2, r2
 3075 039e 0023     		movs	r3, #0
ARM GAS  C:\Users\xiaofei\AppData\Local\Temp\cccSmIPO.s 			page 53


 3076 03a0 3946     		mov	r1, r7
 3077 03a2 FFF7FEFF 		bl	__aeabi_uldivmod
 3078 03a6 4FEA0129 		lsl	r9, r1, #8
 3079 03aa 49EA1069 		orr	r9, r9, r0, lsr #24
 3080 03ae 4FEA0028 		lsl	r8, r0, #8
 3081 03b2 7008     		lsrs	r0, r6, #1
 3082 03b4 3246     		mov	r2, r6
 3083 03b6 3B46     		mov	r3, r7
 3084 03b8 18EB0006 		adds	r6, r8, r0
 3085 03bc 49F10007 		adc	r7, r9, #0
 3086 03c0 3046     		mov	r0, r6
 3087 03c2 3946     		mov	r1, r7
 3088 03c4 FFF7FEFF 		bl	__aeabi_uldivmod
 3089 03c8 A0F54072 		sub	r2, r0, #768
 3090 03cc 2A4B     		ldr	r3, .L399+28
 3091 03ce 9A42     		cmp	r2, r3
 3092 03d0 00F2F680 		bhi	.L389
 3093 03d4 2368     		ldr	r3, [r4]
 3094 03d6 D860     		str	r0, [r3, #12]
 3095 03d8 F7E0     		b	.L355
 3096              	.L346:
 3097 03da E369     		ldr	r3, [r4, #28]
 3098 03dc B3F5004F 		cmp	r3, #32768
 3099 03e0 40F08180 		bne	.L356
 3100 03e4 402A     		cmp	r2, #64
 3101 03e6 57D8     		bhi	.L357
 3102 03e8 DFE802F0 		tbb	[pc, r2]
 3103              	.L359:
 3104 03ec 24       		.byte	(.L358-.L359)/2
 3105 03ed 28       		.byte	(.L360-.L359)/2
 3106 03ee 56       		.byte	(.L357-.L359)/2
 3107 03ef 56       		.byte	(.L357-.L359)/2
 3108 03f0 2C       		.byte	(.L361-.L359)/2
 3109 03f1 56       		.byte	(.L357-.L359)/2
 3110 03f2 56       		.byte	(.L357-.L359)/2
 3111 03f3 56       		.byte	(.L357-.L359)/2
 3112 03f4 32       		.byte	(.L362-.L359)/2
 3113 03f5 56       		.byte	(.L357-.L359)/2
 3114 03f6 56       		.byte	(.L357-.L359)/2
 3115 03f7 56       		.byte	(.L357-.L359)/2
 3116 03f8 56       		.byte	(.L357-.L359)/2
 3117 03f9 56       		.byte	(.L357-.L359)/2
 3118 03fa 56       		.byte	(.L357-.L359)/2
 3119 03fb 56       		.byte	(.L357-.L359)/2
 3120 03fc 48       		.byte	(.L363-.L359)/2
 3121 03fd 56       		.byte	(.L357-.L359)/2
 3122 03fe 56       		.byte	(.L357-.L359)/2
 3123 03ff 56       		.byte	(.L357-.L359)/2
 3124 0400 56       		.byte	(.L357-.L359)/2
 3125 0401 56       		.byte	(.L357-.L359)/2
 3126 0402 56       		.byte	(.L357-.L359)/2
 3127 0403 56       		.byte	(.L357-.L359)/2
 3128 0404 56       		.byte	(.L357-.L359)/2
 3129 0405 56       		.byte	(.L357-.L359)/2
 3130 0406 56       		.byte	(.L357-.L359)/2
 3131 0407 56       		.byte	(.L357-.L359)/2
 3132 0408 56       		.byte	(.L357-.L359)/2
ARM GAS  C:\Users\xiaofei\AppData\Local\Temp\cccSmIPO.s 			page 54


 3133 0409 56       		.byte	(.L357-.L359)/2
 3134 040a 56       		.byte	(.L357-.L359)/2
 3135 040b 56       		.byte	(.L357-.L359)/2
 3136 040c 21       		.byte	(.L364-.L359)/2
 3137 040d 56       		.byte	(.L357-.L359)/2
 3138 040e 56       		.byte	(.L357-.L359)/2
 3139 040f 56       		.byte	(.L357-.L359)/2
 3140 0410 56       		.byte	(.L357-.L359)/2
 3141 0411 56       		.byte	(.L357-.L359)/2
 3142 0412 56       		.byte	(.L357-.L359)/2
 3143 0413 56       		.byte	(.L357-.L359)/2
 3144 0414 56       		.byte	(.L357-.L359)/2
 3145 0415 56       		.byte	(.L357-.L359)/2
 3146 0416 56       		.byte	(.L357-.L359)/2
 3147 0417 56       		.byte	(.L357-.L359)/2
 3148 0418 56       		.byte	(.L357-.L359)/2
 3149 0419 56       		.byte	(.L357-.L359)/2
 3150 041a 56       		.byte	(.L357-.L359)/2
 3151 041b 56       		.byte	(.L357-.L359)/2
 3152 041c 56       		.byte	(.L357-.L359)/2
 3153 041d 56       		.byte	(.L357-.L359)/2
 3154 041e 56       		.byte	(.L357-.L359)/2
 3155 041f 56       		.byte	(.L357-.L359)/2
 3156 0420 56       		.byte	(.L357-.L359)/2
 3157 0421 56       		.byte	(.L357-.L359)/2
 3158 0422 56       		.byte	(.L357-.L359)/2
 3159 0423 56       		.byte	(.L357-.L359)/2
 3160 0424 56       		.byte	(.L357-.L359)/2
 3161 0425 56       		.byte	(.L357-.L359)/2
 3162 0426 56       		.byte	(.L357-.L359)/2
 3163 0427 56       		.byte	(.L357-.L359)/2
 3164 0428 56       		.byte	(.L357-.L359)/2
 3165 0429 56       		.byte	(.L357-.L359)/2
 3166 042a 56       		.byte	(.L357-.L359)/2
 3167 042b 56       		.byte	(.L357-.L359)/2
 3168 042c 59       		.byte	(.L390-.L359)/2
 3169 042d 00       		.p2align 1
 3170              	.L364:
 3171 042e 0F48     		ldr	r0, .L399+16
 3172 0430 0025     		movs	r5, #0
 3173 0432 3AE0     		b	.L365
 3174              	.L358:
 3175 0434 FFF7FEFF 		bl	HAL_RCC_GetPCLK1Freq
 3176 0438 0025     		movs	r5, #0
 3177 043a 36E0     		b	.L365
 3178              	.L360:
 3179 043c FFF7FEFF 		bl	HAL_RCC_GetPCLK2Freq
 3180 0440 0025     		movs	r5, #0
 3181 0442 32E0     		b	.L365
 3182              	.L361:
 3183 0444 03A8     		add	r0, sp, #12
 3184 0446 FFF7FEFF 		bl	HAL_RCCEx_GetPLL2ClockFreq
 3185 044a 0498     		ldr	r0, [sp, #16]
 3186 044c 0025     		movs	r5, #0
 3187 044e 2CE0     		b	.L365
 3188              	.L362:
 3189 0450 6846     		mov	r0, sp
ARM GAS  C:\Users\xiaofei\AppData\Local\Temp\cccSmIPO.s 			page 55


 3190 0452 FFF7FEFF 		bl	HAL_RCCEx_GetPLL3ClockFreq
 3191 0456 0198     		ldr	r0, [sp, #4]
 3192 0458 0025     		movs	r5, #0
 3193 045a 26E0     		b	.L365
 3194              	.L400:
 3195              		.align	2
 3196              	.L399:
 3197 045c 00780040 		.word	1073772544
 3198 0460 00440258 		.word	1476543488
 3199 0464 007C0040 		.word	1073773568
 3200 0468 000C0058 		.word	1476398080
 3201 046c 00093D00 		.word	4000000
 3202 0470 0090D003 		.word	64000000
 3203 0474 00000000 		.word	.LANCHOR0
 3204 0478 FFFC0F00 		.word	1047807
 3205              	.L363:
 3206 047c 594B     		ldr	r3, .L401
 3207 047e 1B68     		ldr	r3, [r3]
 3208 0480 13F0200F 		tst	r3, #32
 3209 0484 0FD0     		beq	.L391
 3210 0486 574B     		ldr	r3, .L401
 3211 0488 1868     		ldr	r0, [r3]
 3212 048a C0F3C100 		ubfx	r0, r0, #3, #2
 3213 048e 564B     		ldr	r3, .L401+4
 3214 0490 23FA00F0 		lsr	r0, r3, r0
 3215 0494 0025     		movs	r5, #0
 3216 0496 08E0     		b	.L365
 3217              	.L357:
 3218 0498 0020     		movs	r0, #0
 3219 049a 0125     		movs	r5, #1
 3220 049c 05E0     		b	.L365
 3221              	.L390:
 3222 049e 4FF40040 		mov	r0, #32768
 3223 04a2 0025     		movs	r5, #0
 3224 04a4 01E0     		b	.L365
 3225              	.L391:
 3226 04a6 5048     		ldr	r0, .L401+4
 3227 04a8 0025     		movs	r5, #0
 3228              	.L365:
 3229 04aa 0028     		cmp	r0, #0
 3230 04ac 00F08D80 		beq	.L355
 3231 04b0 626A     		ldr	r2, [r4, #36]
 3232 04b2 4E4B     		ldr	r3, .L401+8
 3233 04b4 33F81230 		ldrh	r3, [r3, r2, lsl #1]
 3234 04b8 B0FBF3F0 		udiv	r0, r0, r3
 3235 04bc 6368     		ldr	r3, [r4, #4]
 3236 04be 5A08     		lsrs	r2, r3, #1
 3237 04c0 02EB4000 		add	r0, r2, r0, lsl #1
 3238 04c4 B0FBF3F3 		udiv	r3, r0, r3
 3239 04c8 9AB2     		uxth	r2, r3
 3240 04ca 103A     		subs	r2, r2, #16
 3241 04cc 4FF6EF71 		movw	r1, #65519
 3242 04d0 8A42     		cmp	r2, r1
 3243 04d2 77D8     		bhi	.L392
 3244 04d4 9AB2     		uxth	r2, r3
 3245 04d6 22F00F02 		bic	r2, r2, #15
 3246 04da C3F34203 		ubfx	r3, r3, #1, #3
ARM GAS  C:\Users\xiaofei\AppData\Local\Temp\cccSmIPO.s 			page 56


 3247 04de 1343     		orrs	r3, r3, r2
 3248 04e0 2268     		ldr	r2, [r4]
 3249 04e2 D360     		str	r3, [r2, #12]
 3250 04e4 71E0     		b	.L355
 3251              	.L356:
 3252 04e6 402A     		cmp	r2, #64
 3253 04e8 47D8     		bhi	.L366
 3254 04ea DFE802F0 		tbb	[pc, r2]
 3255              	.L368:
 3256 04ee 24       		.byte	(.L367-.L368)/2
 3257 04ef 28       		.byte	(.L369-.L368)/2
 3258 04f0 46       		.byte	(.L366-.L368)/2
 3259 04f1 46       		.byte	(.L366-.L368)/2
 3260 04f2 2C       		.byte	(.L370-.L368)/2
 3261 04f3 46       		.byte	(.L366-.L368)/2
 3262 04f4 46       		.byte	(.L366-.L368)/2
 3263 04f5 46       		.byte	(.L366-.L368)/2
 3264 04f6 32       		.byte	(.L371-.L368)/2
 3265 04f7 46       		.byte	(.L366-.L368)/2
 3266 04f8 46       		.byte	(.L366-.L368)/2
 3267 04f9 46       		.byte	(.L366-.L368)/2
 3268 04fa 46       		.byte	(.L366-.L368)/2
 3269 04fb 46       		.byte	(.L366-.L368)/2
 3270 04fc 46       		.byte	(.L366-.L368)/2
 3271 04fd 46       		.byte	(.L366-.L368)/2
 3272 04fe 38       		.byte	(.L372-.L368)/2
 3273 04ff 46       		.byte	(.L366-.L368)/2
 3274 0500 46       		.byte	(.L366-.L368)/2
 3275 0501 46       		.byte	(.L366-.L368)/2
 3276 0502 46       		.byte	(.L366-.L368)/2
 3277 0503 46       		.byte	(.L366-.L368)/2
 3278 0504 46       		.byte	(.L366-.L368)/2
 3279 0505 46       		.byte	(.L366-.L368)/2
 3280 0506 46       		.byte	(.L366-.L368)/2
 3281 0507 46       		.byte	(.L366-.L368)/2
 3282 0508 46       		.byte	(.L366-.L368)/2
 3283 0509 46       		.byte	(.L366-.L368)/2
 3284 050a 46       		.byte	(.L366-.L368)/2
 3285 050b 46       		.byte	(.L366-.L368)/2
 3286 050c 46       		.byte	(.L366-.L368)/2
 3287 050d 46       		.byte	(.L366-.L368)/2
 3288 050e 21       		.byte	(.L373-.L368)/2
 3289 050f 46       		.byte	(.L366-.L368)/2
 3290 0510 46       		.byte	(.L366-.L368)/2
 3291 0511 46       		.byte	(.L366-.L368)/2
 3292 0512 46       		.byte	(.L366-.L368)/2
 3293 0513 46       		.byte	(.L366-.L368)/2
 3294 0514 46       		.byte	(.L366-.L368)/2
 3295 0515 46       		.byte	(.L366-.L368)/2
 3296 0516 46       		.byte	(.L366-.L368)/2
 3297 0517 46       		.byte	(.L366-.L368)/2
 3298 0518 46       		.byte	(.L366-.L368)/2
 3299 0519 46       		.byte	(.L366-.L368)/2
 3300 051a 46       		.byte	(.L366-.L368)/2
 3301 051b 46       		.byte	(.L366-.L368)/2
 3302 051c 46       		.byte	(.L366-.L368)/2
 3303 051d 46       		.byte	(.L366-.L368)/2
ARM GAS  C:\Users\xiaofei\AppData\Local\Temp\cccSmIPO.s 			page 57


 3304 051e 46       		.byte	(.L366-.L368)/2
 3305 051f 46       		.byte	(.L366-.L368)/2
 3306 0520 46       		.byte	(.L366-.L368)/2
 3307 0521 46       		.byte	(.L366-.L368)/2
 3308 0522 46       		.byte	(.L366-.L368)/2
 3309 0523 46       		.byte	(.L366-.L368)/2
 3310 0524 46       		.byte	(.L366-.L368)/2
 3311 0525 46       		.byte	(.L366-.L368)/2
 3312 0526 46       		.byte	(.L366-.L368)/2
 3313 0527 46       		.byte	(.L366-.L368)/2
 3314 0528 46       		.byte	(.L366-.L368)/2
 3315 0529 46       		.byte	(.L366-.L368)/2
 3316 052a 46       		.byte	(.L366-.L368)/2
 3317 052b 46       		.byte	(.L366-.L368)/2
 3318 052c 46       		.byte	(.L366-.L368)/2
 3319 052d 46       		.byte	(.L366-.L368)/2
 3320 052e 49       		.byte	(.L393-.L368)/2
 3321 052f 00       		.p2align 1
 3322              	.L373:
 3323 0530 2F48     		ldr	r0, .L401+12
 3324 0532 0025     		movs	r5, #0
 3325 0534 2AE0     		b	.L374
 3326              	.L367:
 3327 0536 FFF7FEFF 		bl	HAL_RCC_GetPCLK1Freq
 3328 053a 0025     		movs	r5, #0
 3329 053c 26E0     		b	.L374
 3330              	.L369:
 3331 053e FFF7FEFF 		bl	HAL_RCC_GetPCLK2Freq
 3332 0542 0025     		movs	r5, #0
 3333 0544 22E0     		b	.L374
 3334              	.L370:
 3335 0546 03A8     		add	r0, sp, #12
 3336 0548 FFF7FEFF 		bl	HAL_RCCEx_GetPLL2ClockFreq
 3337 054c 0498     		ldr	r0, [sp, #16]
 3338 054e 0025     		movs	r5, #0
 3339 0550 1CE0     		b	.L374
 3340              	.L371:
 3341 0552 6846     		mov	r0, sp
 3342 0554 FFF7FEFF 		bl	HAL_RCCEx_GetPLL3ClockFreq
 3343 0558 0198     		ldr	r0, [sp, #4]
 3344 055a 0025     		movs	r5, #0
 3345 055c 16E0     		b	.L374
 3346              	.L372:
 3347 055e 214B     		ldr	r3, .L401
 3348 0560 1B68     		ldr	r3, [r3]
 3349 0562 13F0200F 		tst	r3, #32
 3350 0566 0FD0     		beq	.L394
 3351 0568 1E4B     		ldr	r3, .L401
 3352 056a 1868     		ldr	r0, [r3]
 3353 056c C0F3C100 		ubfx	r0, r0, #3, #2
 3354 0570 1D4B     		ldr	r3, .L401+4
 3355 0572 23FA00F0 		lsr	r0, r3, r0
 3356 0576 0025     		movs	r5, #0
 3357 0578 08E0     		b	.L374
 3358              	.L366:
 3359 057a 0020     		movs	r0, #0
 3360 057c 0125     		movs	r5, #1
ARM GAS  C:\Users\xiaofei\AppData\Local\Temp\cccSmIPO.s 			page 58


 3361 057e 05E0     		b	.L374
 3362              	.L393:
 3363 0580 4FF40040 		mov	r0, #32768
 3364 0584 0025     		movs	r5, #0
 3365 0586 01E0     		b	.L374
 3366              	.L394:
 3367 0588 1748     		ldr	r0, .L401+4
 3368 058a 0025     		movs	r5, #0
 3369              	.L374:
 3370 058c E8B1     		cbz	r0, .L355
 3371 058e 626A     		ldr	r2, [r4, #36]
 3372 0590 164B     		ldr	r3, .L401+8
 3373 0592 33F81230 		ldrh	r3, [r3, r2, lsl #1]
 3374 0596 B0FBF3F0 		udiv	r0, r0, r3
 3375 059a 6368     		ldr	r3, [r4, #4]
 3376 059c 00EB5300 		add	r0, r0, r3, lsr #1
 3377 05a0 B0FBF3F0 		udiv	r0, r0, r3
 3378 05a4 80B2     		uxth	r0, r0
 3379 05a6 A0F11002 		sub	r2, r0, #16
 3380 05aa 4FF6EF73 		movw	r3, #65519
 3381 05ae 9A42     		cmp	r2, r3
 3382 05b0 0AD8     		bhi	.L395
 3383 05b2 2368     		ldr	r3, [r4]
 3384 05b4 D860     		str	r0, [r3, #12]
 3385 05b6 08E0     		b	.L355
 3386              	.L387:
 3387 05b8 0125     		movs	r5, #1
 3388 05ba 06E0     		b	.L355
 3389              	.L388:
 3390 05bc 0125     		movs	r5, #1
 3391 05be 04E0     		b	.L355
 3392              	.L389:
 3393 05c0 0125     		movs	r5, #1
 3394 05c2 02E0     		b	.L355
 3395              	.L392:
 3396 05c4 0125     		movs	r5, #1
 3397 05c6 00E0     		b	.L355
 3398              	.L395:
 3399 05c8 0125     		movs	r5, #1
 3400              	.L355:
 3401 05ca 0123     		movs	r3, #1
 3402 05cc A4F86A30 		strh	r3, [r4, #106]	@ movhi
 3403 05d0 A4F86830 		strh	r3, [r4, #104]	@ movhi
 3404 05d4 0023     		movs	r3, #0
 3405 05d6 E366     		str	r3, [r4, #108]
 3406 05d8 2367     		str	r3, [r4, #112]
 3407 05da 2846     		mov	r0, r5
 3408 05dc 07B0     		add	sp, sp, #28
 3409              		@ sp needed
 3410 05de BDE8F083 		pop	{r4, r5, r6, r7, r8, r9, pc}
 3411              	.L402:
 3412 05e2 00BF     		.align	2
 3413              	.L401:
 3414 05e4 00440258 		.word	1476543488
 3415 05e8 0090D003 		.word	64000000
 3416 05ec 00000000 		.word	.LANCHOR0
 3417 05f0 00093D00 		.word	4000000
ARM GAS  C:\Users\xiaofei\AppData\Local\Temp\cccSmIPO.s 			page 59


 3419              		.section	.text.UART_AdvFeatureConfig,"ax",%progbits
 3420              		.align	2
 3421              		.global	UART_AdvFeatureConfig
 3422              		.thumb
 3423              		.thumb_func
 3425              	UART_AdvFeatureConfig:
 3426              		@ args = 0, pretend = 0, frame = 0
 3427              		@ frame_needed = 0, uses_anonymous_args = 0
 3428              		@ link register save eliminated.
 3429 0000 836A     		ldr	r3, [r0, #40]
 3430 0002 13F0010F 		tst	r3, #1
 3431 0006 06D0     		beq	.L404
 3432 0008 0168     		ldr	r1, [r0]
 3433 000a 4B68     		ldr	r3, [r1, #4]
 3434 000c 23F40032 		bic	r2, r3, #131072
 3435 0010 C36A     		ldr	r3, [r0, #44]
 3436 0012 1343     		orrs	r3, r3, r2
 3437 0014 4B60     		str	r3, [r1, #4]
 3438              	.L404:
 3439 0016 836A     		ldr	r3, [r0, #40]
 3440 0018 13F0020F 		tst	r3, #2
 3441 001c 06D0     		beq	.L405
 3442 001e 0168     		ldr	r1, [r0]
 3443 0020 4B68     		ldr	r3, [r1, #4]
 3444 0022 23F48032 		bic	r2, r3, #65536
 3445 0026 036B     		ldr	r3, [r0, #48]
 3446 0028 1343     		orrs	r3, r3, r2
 3447 002a 4B60     		str	r3, [r1, #4]
 3448              	.L405:
 3449 002c 836A     		ldr	r3, [r0, #40]
 3450 002e 13F0040F 		tst	r3, #4
 3451 0032 06D0     		beq	.L406
 3452 0034 0168     		ldr	r1, [r0]
 3453 0036 4B68     		ldr	r3, [r1, #4]
 3454 0038 23F48022 		bic	r2, r3, #262144
 3455 003c 436B     		ldr	r3, [r0, #52]
 3456 003e 1343     		orrs	r3, r3, r2
 3457 0040 4B60     		str	r3, [r1, #4]
 3458              	.L406:
 3459 0042 836A     		ldr	r3, [r0, #40]
 3460 0044 13F0080F 		tst	r3, #8
 3461 0048 06D0     		beq	.L407
 3462 004a 0168     		ldr	r1, [r0]
 3463 004c 4B68     		ldr	r3, [r1, #4]
 3464 004e 23F40042 		bic	r2, r3, #32768
 3465 0052 836B     		ldr	r3, [r0, #56]
 3466 0054 1343     		orrs	r3, r3, r2
 3467 0056 4B60     		str	r3, [r1, #4]
 3468              	.L407:
 3469 0058 836A     		ldr	r3, [r0, #40]
 3470 005a 13F0100F 		tst	r3, #16
 3471 005e 06D0     		beq	.L408
 3472 0060 0168     		ldr	r1, [r0]
 3473 0062 8B68     		ldr	r3, [r1, #8]
 3474 0064 23F48052 		bic	r2, r3, #4096
 3475 0068 C36B     		ldr	r3, [r0, #60]
 3476 006a 1343     		orrs	r3, r3, r2
ARM GAS  C:\Users\xiaofei\AppData\Local\Temp\cccSmIPO.s 			page 60


 3477 006c 8B60     		str	r3, [r1, #8]
 3478              	.L408:
 3479 006e 836A     		ldr	r3, [r0, #40]
 3480 0070 13F0200F 		tst	r3, #32
 3481 0074 06D0     		beq	.L409
 3482 0076 0168     		ldr	r1, [r0]
 3483 0078 8B68     		ldr	r3, [r1, #8]
 3484 007a 23F40052 		bic	r2, r3, #8192
 3485 007e 036C     		ldr	r3, [r0, #64]
 3486 0080 1343     		orrs	r3, r3, r2
 3487 0082 8B60     		str	r3, [r1, #8]
 3488              	.L409:
 3489 0084 836A     		ldr	r3, [r0, #40]
 3490 0086 13F0400F 		tst	r3, #64
 3491 008a 11D0     		beq	.L410
 3492 008c 0168     		ldr	r1, [r0]
 3493 008e 4B68     		ldr	r3, [r1, #4]
 3494 0090 23F48012 		bic	r2, r3, #1048576
 3495 0094 436C     		ldr	r3, [r0, #68]
 3496 0096 1343     		orrs	r3, r3, r2
 3497 0098 4B60     		str	r3, [r1, #4]
 3498 009a 436C     		ldr	r3, [r0, #68]
 3499 009c B3F5801F 		cmp	r3, #1048576
 3500 00a0 06D1     		bne	.L410
 3501 00a2 0168     		ldr	r1, [r0]
 3502 00a4 4B68     		ldr	r3, [r1, #4]
 3503 00a6 23F4C002 		bic	r2, r3, #6291456
 3504 00aa 836C     		ldr	r3, [r0, #72]
 3505 00ac 1343     		orrs	r3, r3, r2
 3506 00ae 4B60     		str	r3, [r1, #4]
 3507              	.L410:
 3508 00b0 836A     		ldr	r3, [r0, #40]
 3509 00b2 13F0800F 		tst	r3, #128
 3510 00b6 06D0     		beq	.L403
 3511 00b8 0168     		ldr	r1, [r0]
 3512 00ba 4B68     		ldr	r3, [r1, #4]
 3513 00bc 23F40022 		bic	r2, r3, #524288
 3514 00c0 C36C     		ldr	r3, [r0, #76]
 3515 00c2 1343     		orrs	r3, r3, r2
 3516 00c4 4B60     		str	r3, [r1, #4]
 3517              	.L403:
 3518 00c6 7047     		bx	lr
 3520              		.section	.text.UART_WaitOnFlagUntilTimeout,"ax",%progbits
 3521              		.align	2
 3522              		.global	UART_WaitOnFlagUntilTimeout
 3523              		.thumb
 3524              		.thumb_func
 3526              	UART_WaitOnFlagUntilTimeout:
 3527              		@ args = 4, pretend = 0, frame = 0
 3528              		@ frame_needed = 0, uses_anonymous_args = 0
 3529 0000 2DE9F041 		push	{r4, r5, r6, r7, r8, lr}
 3530 0004 0446     		mov	r4, r0
 3531 0006 0F46     		mov	r7, r1
 3532 0008 1646     		mov	r6, r2
 3533 000a 9846     		mov	r8, r3
 3534 000c 069D     		ldr	r5, [sp, #24]
 3535 000e 41E0     		b	.L414
ARM GAS  C:\Users\xiaofei\AppData\Local\Temp\cccSmIPO.s 			page 61


 3536              	.L418:
 3537 0010 B5F1FF3F 		cmp	r5, #-1
 3538 0014 3ED0     		beq	.L414
 3539 0016 FFF7FEFF 		bl	HAL_GetTick
 3540 001a C8EB0000 		rsb	r0, r8, r0
 3541 001e 8542     		cmp	r5, r0
 3542 0020 00D3     		bcc	.L415
 3543 0022 A5B9     		cbnz	r5, .L416
 3544              	.L415:
 3545 0024 2268     		ldr	r2, [r4]
 3546 0026 1368     		ldr	r3, [r2]
 3547 0028 23F4D073 		bic	r3, r3, #416
 3548 002c 1360     		str	r3, [r2]
 3549 002e 2268     		ldr	r2, [r4]
 3550 0030 9368     		ldr	r3, [r2, #8]
 3551 0032 23F00103 		bic	r3, r3, #1
 3552 0036 9360     		str	r3, [r2, #8]
 3553 0038 2023     		movs	r3, #32
 3554 003a C4F88030 		str	r3, [r4, #128]
 3555 003e C4F88430 		str	r3, [r4, #132]
 3556 0042 0023     		movs	r3, #0
 3557 0044 84F87C30 		strb	r3, [r4, #124]
 3558 0048 0320     		movs	r0, #3
 3559 004a BDE8F081 		pop	{r4, r5, r6, r7, r8, pc}
 3560              	.L416:
 3561 004e 2368     		ldr	r3, [r4]
 3562 0050 1A68     		ldr	r2, [r3]
 3563 0052 12F0040F 		tst	r2, #4
 3564 0056 1DD0     		beq	.L414
 3565 0058 DA69     		ldr	r2, [r3, #28]
 3566 005a 12F4006F 		tst	r2, #2048
 3567 005e 19D0     		beq	.L414
 3568 0060 4FF40062 		mov	r2, #2048
 3569 0064 1A62     		str	r2, [r3, #32]
 3570 0066 2268     		ldr	r2, [r4]
 3571 0068 1368     		ldr	r3, [r2]
 3572 006a 23F4D073 		bic	r3, r3, #416
 3573 006e 1360     		str	r3, [r2]
 3574 0070 2268     		ldr	r2, [r4]
 3575 0072 9368     		ldr	r3, [r2, #8]
 3576 0074 23F00103 		bic	r3, r3, #1
 3577 0078 9360     		str	r3, [r2, #8]
 3578 007a 2023     		movs	r3, #32
 3579 007c C4F88030 		str	r3, [r4, #128]
 3580 0080 C4F88430 		str	r3, [r4, #132]
 3581 0084 C4F88830 		str	r3, [r4, #136]
 3582 0088 0023     		movs	r3, #0
 3583 008a 84F87C30 		strb	r3, [r4, #124]
 3584 008e 0320     		movs	r0, #3
 3585 0090 BDE8F081 		pop	{r4, r5, r6, r7, r8, pc}
 3586              	.L414:
 3587 0094 2368     		ldr	r3, [r4]
 3588 0096 DB69     		ldr	r3, [r3, #28]
 3589 0098 37EA0303 		bics	r3, r7, r3
 3590 009c 0CBF     		ite	eq
 3591 009e 0123     		moveq	r3, #1
 3592 00a0 0023     		movne	r3, #0
ARM GAS  C:\Users\xiaofei\AppData\Local\Temp\cccSmIPO.s 			page 62


 3593 00a2 B342     		cmp	r3, r6
 3594 00a4 B4D0     		beq	.L418
 3595 00a6 0020     		movs	r0, #0
 3596 00a8 BDE8F081 		pop	{r4, r5, r6, r7, r8, pc}
 3598              		.section	.text.HAL_UART_Transmit,"ax",%progbits
 3599              		.align	2
 3600              		.global	HAL_UART_Transmit
 3601              		.thumb
 3602              		.thumb_func
 3604              	HAL_UART_Transmit:
 3605              		@ args = 0, pretend = 0, frame = 0
 3606              		@ frame_needed = 0, uses_anonymous_args = 0
 3607 0000 2DE9F041 		push	{r4, r5, r6, r7, r8, lr}
 3608 0004 82B0     		sub	sp, sp, #8
 3609 0006 1E46     		mov	r6, r3
 3610 0008 D0F88030 		ldr	r3, [r0, #128]
 3611 000c 202B     		cmp	r3, #32
 3612 000e 59D1     		bne	.L427
 3613 0010 0446     		mov	r4, r0
 3614 0012 0D46     		mov	r5, r1
 3615 0014 9046     		mov	r8, r2
 3616 0016 002A     		cmp	r2, #0
 3617 0018 18BF     		it	ne
 3618 001a 0029     		cmpne	r1, #0
 3619 001c 54D0     		beq	.L428
 3620 001e 90F87C30 		ldrb	r3, [r0, #124]	@ zero_extendqisi2
 3621 0022 012B     		cmp	r3, #1
 3622 0024 52D0     		beq	.L429
 3623 0026 0123     		movs	r3, #1
 3624 0028 80F87C30 		strb	r3, [r0, #124]
 3625 002c 0023     		movs	r3, #0
 3626 002e C0F88830 		str	r3, [r0, #136]
 3627 0032 2123     		movs	r3, #33
 3628 0034 C0F88030 		str	r3, [r0, #128]
 3629 0038 FFF7FEFF 		bl	HAL_GetTick
 3630 003c 0746     		mov	r7, r0
 3631 003e A4F85480 		strh	r8, [r4, #84]	@ movhi
 3632 0042 A4F85680 		strh	r8, [r4, #86]	@ movhi
 3633 0046 A368     		ldr	r3, [r4, #8]
 3634 0048 B3F5805F 		cmp	r3, #4096
 3635 004c 04D1     		bne	.L430
 3636 004e 2369     		ldr	r3, [r4, #16]
 3637 0050 2BB1     		cbz	r3, .L431
 3638 0052 4FF00008 		mov	r8, #0
 3639 0056 04E0     		b	.L422
 3640              	.L430:
 3641 0058 4FF00008 		mov	r8, #0
 3642 005c 01E0     		b	.L422
 3643              	.L431:
 3644 005e A846     		mov	r8, r5
 3645 0060 0025     		movs	r5, #0
 3646              	.L422:
 3647 0062 0023     		movs	r3, #0
 3648 0064 84F87C30 		strb	r3, [r4, #124]
 3649 0068 1AE0     		b	.L423
 3650              	.L426:
 3651 006a 0096     		str	r6, [sp]
ARM GAS  C:\Users\xiaofei\AppData\Local\Temp\cccSmIPO.s 			page 63


 3652 006c 3B46     		mov	r3, r7
 3653 006e 0022     		movs	r2, #0
 3654 0070 8021     		movs	r1, #128
 3655 0072 2046     		mov	r0, r4
 3656 0074 FFF7FEFF 		bl	UART_WaitOnFlagUntilTimeout
 3657 0078 50BB     		cbnz	r0, .L432
 3658 007a 35B9     		cbnz	r5, .L424
 3659 007c 2268     		ldr	r2, [r4]
 3660 007e 38F8023B 		ldrh	r3, [r8], #2
 3661 0082 C3F30803 		ubfx	r3, r3, #0, #9
 3662 0086 9362     		str	r3, [r2, #40]
 3663 0088 03E0     		b	.L425
 3664              	.L424:
 3665 008a 2368     		ldr	r3, [r4]
 3666 008c 15F8012B 		ldrb	r2, [r5], #1	@ zero_extendqisi2
 3667 0090 9A62     		str	r2, [r3, #40]
 3668              	.L425:
 3669 0092 B4F85630 		ldrh	r3, [r4, #86]
 3670 0096 9BB2     		uxth	r3, r3
 3671 0098 013B     		subs	r3, r3, #1
 3672 009a 9BB2     		uxth	r3, r3
 3673 009c A4F85630 		strh	r3, [r4, #86]	@ movhi
 3674              	.L423:
 3675 00a0 B4F85630 		ldrh	r3, [r4, #86]
 3676 00a4 9BB2     		uxth	r3, r3
 3677 00a6 002B     		cmp	r3, #0
 3678 00a8 DFD1     		bne	.L426
 3679 00aa 0096     		str	r6, [sp]
 3680 00ac 3B46     		mov	r3, r7
 3681 00ae 0022     		movs	r2, #0
 3682 00b0 4021     		movs	r1, #64
 3683 00b2 2046     		mov	r0, r4
 3684 00b4 FFF7FEFF 		bl	UART_WaitOnFlagUntilTimeout
 3685 00b8 0346     		mov	r3, r0
 3686 00ba 58B9     		cbnz	r0, .L433
 3687 00bc 2022     		movs	r2, #32
 3688 00be C4F88020 		str	r2, [r4, #128]
 3689 00c2 08E0     		b	.L421
 3690              	.L427:
 3691 00c4 0223     		movs	r3, #2
 3692 00c6 06E0     		b	.L421
 3693              	.L428:
 3694 00c8 0123     		movs	r3, #1
 3695 00ca 04E0     		b	.L421
 3696              	.L429:
 3697 00cc 0223     		movs	r3, #2
 3698 00ce 02E0     		b	.L421
 3699              	.L432:
 3700 00d0 0323     		movs	r3, #3
 3701 00d2 00E0     		b	.L421
 3702              	.L433:
 3703 00d4 0323     		movs	r3, #3
 3704              	.L421:
 3705 00d6 1846     		mov	r0, r3
 3706 00d8 02B0     		add	sp, sp, #8
 3707              		@ sp needed
 3708 00da BDE8F081 		pop	{r4, r5, r6, r7, r8, pc}
ARM GAS  C:\Users\xiaofei\AppData\Local\Temp\cccSmIPO.s 			page 64


 3710 00de 00BF     		.section	.text.HAL_UART_Receive,"ax",%progbits
 3711              		.align	2
 3712              		.global	HAL_UART_Receive
 3713              		.thumb
 3714              		.thumb_func
 3716              	HAL_UART_Receive:
 3717              		@ args = 0, pretend = 0, frame = 0
 3718              		@ frame_needed = 0, uses_anonymous_args = 0
 3719 0000 2DE9F043 		push	{r4, r5, r6, r7, r8, r9, lr}
 3720 0004 83B0     		sub	sp, sp, #12
 3721 0006 1E46     		mov	r6, r3
 3722 0008 D0F88430 		ldr	r3, [r0, #132]
 3723 000c 202B     		cmp	r3, #32
 3724 000e 7FD1     		bne	.L449
 3725 0010 0446     		mov	r4, r0
 3726 0012 0D46     		mov	r5, r1
 3727 0014 9046     		mov	r8, r2
 3728 0016 002A     		cmp	r2, #0
 3729 0018 18BF     		it	ne
 3730 001a 0029     		cmpne	r1, #0
 3731 001c 7AD0     		beq	.L450
 3732 001e 90F87C30 		ldrb	r3, [r0, #124]	@ zero_extendqisi2
 3733 0022 012B     		cmp	r3, #1
 3734 0024 78D0     		beq	.L451
 3735 0026 0123     		movs	r3, #1
 3736 0028 80F87C30 		strb	r3, [r0, #124]
 3737 002c 0023     		movs	r3, #0
 3738 002e C0F88830 		str	r3, [r0, #136]
 3739 0032 2223     		movs	r3, #34
 3740 0034 C0F88430 		str	r3, [r0, #132]
 3741 0038 FFF7FEFF 		bl	HAL_GetTick
 3742 003c 0746     		mov	r7, r0
 3743 003e A4F85C80 		strh	r8, [r4, #92]	@ movhi
 3744 0042 A4F85E80 		strh	r8, [r4, #94]	@ movhi
 3745 0046 A368     		ldr	r3, [r4, #8]
 3746 0048 B3F5805F 		cmp	r3, #4096
 3747 004c 0AD1     		bne	.L437
 3748 004e 2269     		ldr	r2, [r4, #16]
 3749 0050 22B9     		cbnz	r2, .L438
 3750 0052 40F2FF12 		movw	r2, #511
 3751 0056 A4F86020 		strh	r2, [r4, #96]	@ movhi
 3752 005a 1EE0     		b	.L439
 3753              	.L438:
 3754 005c FF22     		movs	r2, #255
 3755 005e A4F86020 		strh	r2, [r4, #96]	@ movhi
 3756 0062 1AE0     		b	.L439
 3757              	.L437:
 3758 0064 4BB9     		cbnz	r3, .L440
 3759 0066 2269     		ldr	r2, [r4, #16]
 3760 0068 1AB9     		cbnz	r2, .L441
 3761 006a FF22     		movs	r2, #255
 3762 006c A4F86020 		strh	r2, [r4, #96]	@ movhi
 3763 0070 13E0     		b	.L439
 3764              	.L441:
 3765 0072 7F22     		movs	r2, #127
 3766 0074 A4F86020 		strh	r2, [r4, #96]	@ movhi
 3767 0078 0FE0     		b	.L439
ARM GAS  C:\Users\xiaofei\AppData\Local\Temp\cccSmIPO.s 			page 65


 3768              	.L440:
 3769 007a B3F1805F 		cmp	r3, #268435456
 3770 007e 09D1     		bne	.L442
 3771 0080 2269     		ldr	r2, [r4, #16]
 3772 0082 1AB9     		cbnz	r2, .L443
 3773 0084 7F22     		movs	r2, #127
 3774 0086 A4F86020 		strh	r2, [r4, #96]	@ movhi
 3775 008a 06E0     		b	.L439
 3776              	.L443:
 3777 008c 3F22     		movs	r2, #63
 3778 008e A4F86020 		strh	r2, [r4, #96]	@ movhi
 3779 0092 02E0     		b	.L439
 3780              	.L442:
 3781 0094 0022     		movs	r2, #0
 3782 0096 A4F86020 		strh	r2, [r4, #96]	@ movhi
 3783              	.L439:
 3784 009a B4F86080 		ldrh	r8, [r4, #96]
 3785 009e B3F5805F 		cmp	r3, #4096
 3786 00a2 04D1     		bne	.L452
 3787 00a4 2369     		ldr	r3, [r4, #16]
 3788 00a6 2BB1     		cbz	r3, .L453
 3789 00a8 4FF00009 		mov	r9, #0
 3790 00ac 04E0     		b	.L444
 3791              	.L452:
 3792 00ae 4FF00009 		mov	r9, #0
 3793 00b2 01E0     		b	.L444
 3794              	.L453:
 3795 00b4 A946     		mov	r9, r5
 3796 00b6 0025     		movs	r5, #0
 3797              	.L444:
 3798 00b8 0023     		movs	r3, #0
 3799 00ba 84F87C30 		strb	r3, [r4, #124]
 3800 00be 1DE0     		b	.L445
 3801              	.L448:
 3802 00c0 0096     		str	r6, [sp]
 3803 00c2 3B46     		mov	r3, r7
 3804 00c4 0022     		movs	r2, #0
 3805 00c6 2021     		movs	r1, #32
 3806 00c8 2046     		mov	r0, r4
 3807 00ca FFF7FEFF 		bl	UART_WaitOnFlagUntilTimeout
 3808 00ce 28BB     		cbnz	r0, .L454
 3809 00d0 35B9     		cbnz	r5, .L446
 3810 00d2 2368     		ldr	r3, [r4]
 3811 00d4 5B6A     		ldr	r3, [r3, #36]
 3812 00d6 08EA0303 		and	r3, r8, r3
 3813 00da 29F8023B 		strh	r3, [r9], #2	@ movhi
 3814 00de 06E0     		b	.L447
 3815              	.L446:
 3816 00e0 2368     		ldr	r3, [r4]
 3817 00e2 5B6A     		ldr	r3, [r3, #36]
 3818 00e4 5FFA88F2 		uxtb	r2, r8
 3819 00e8 1340     		ands	r3, r3, r2
 3820 00ea 05F8013B 		strb	r3, [r5], #1
 3821              	.L447:
 3822 00ee B4F85E30 		ldrh	r3, [r4, #94]
 3823 00f2 9BB2     		uxth	r3, r3
 3824 00f4 013B     		subs	r3, r3, #1
ARM GAS  C:\Users\xiaofei\AppData\Local\Temp\cccSmIPO.s 			page 66


 3825 00f6 9BB2     		uxth	r3, r3
 3826 00f8 A4F85E30 		strh	r3, [r4, #94]	@ movhi
 3827              	.L445:
 3828 00fc B4F85E30 		ldrh	r3, [r4, #94]
 3829 0100 9BB2     		uxth	r3, r3
 3830 0102 002B     		cmp	r3, #0
 3831 0104 DCD1     		bne	.L448
 3832 0106 2023     		movs	r3, #32
 3833 0108 C4F88430 		str	r3, [r4, #132]
 3834 010c 0020     		movs	r0, #0
 3835 010e 06E0     		b	.L436
 3836              	.L449:
 3837 0110 0220     		movs	r0, #2
 3838 0112 04E0     		b	.L436
 3839              	.L450:
 3840 0114 0120     		movs	r0, #1
 3841 0116 02E0     		b	.L436
 3842              	.L451:
 3843 0118 0220     		movs	r0, #2
 3844 011a 00E0     		b	.L436
 3845              	.L454:
 3846 011c 0320     		movs	r0, #3
 3847              	.L436:
 3848 011e 03B0     		add	sp, sp, #12
 3849              		@ sp needed
 3850 0120 BDE8F083 		pop	{r4, r5, r6, r7, r8, r9, pc}
 3852              		.section	.text.UART_CheckIdleState,"ax",%progbits
 3853              		.align	2
 3854              		.global	UART_CheckIdleState
 3855              		.thumb
 3856              		.thumb_func
 3858              	UART_CheckIdleState:
 3859              		@ args = 0, pretend = 0, frame = 0
 3860              		@ frame_needed = 0, uses_anonymous_args = 0
 3861 0000 30B5     		push	{r4, r5, lr}
 3862 0002 83B0     		sub	sp, sp, #12
 3863 0004 0446     		mov	r4, r0
 3864 0006 0023     		movs	r3, #0
 3865 0008 C0F88830 		str	r3, [r0, #136]
 3866 000c FFF7FEFF 		bl	HAL_GetTick
 3867 0010 0546     		mov	r5, r0
 3868 0012 2368     		ldr	r3, [r4]
 3869 0014 1B68     		ldr	r3, [r3]
 3870 0016 13F0080F 		tst	r3, #8
 3871 001a 0AD0     		beq	.L457
 3872 001c 6FF07E43 		mvn	r3, #-33554432
 3873 0020 0093     		str	r3, [sp]
 3874 0022 0346     		mov	r3, r0
 3875 0024 0022     		movs	r2, #0
 3876 0026 4FF40011 		mov	r1, #2097152
 3877 002a 2046     		mov	r0, r4
 3878 002c FFF7FEFF 		bl	UART_WaitOnFlagUntilTimeout
 3879 0030 C0B9     		cbnz	r0, .L460
 3880              	.L457:
 3881 0032 2368     		ldr	r3, [r4]
 3882 0034 1B68     		ldr	r3, [r3]
 3883 0036 13F0040F 		tst	r3, #4
ARM GAS  C:\Users\xiaofei\AppData\Local\Temp\cccSmIPO.s 			page 67


 3884 003a 0AD0     		beq	.L459
 3885 003c 6FF07E43 		mvn	r3, #-33554432
 3886 0040 0093     		str	r3, [sp]
 3887 0042 2B46     		mov	r3, r5
 3888 0044 0022     		movs	r2, #0
 3889 0046 4FF48001 		mov	r1, #4194304
 3890 004a 2046     		mov	r0, r4
 3891 004c FFF7FEFF 		bl	UART_WaitOnFlagUntilTimeout
 3892 0050 50B9     		cbnz	r0, .L461
 3893              	.L459:
 3894 0052 2023     		movs	r3, #32
 3895 0054 C4F88030 		str	r3, [r4, #128]
 3896 0058 C4F88430 		str	r3, [r4, #132]
 3897 005c 0020     		movs	r0, #0
 3898 005e 84F87C00 		strb	r0, [r4, #124]
 3899 0062 02E0     		b	.L458
 3900              	.L460:
 3901 0064 0320     		movs	r0, #3
 3902 0066 00E0     		b	.L458
 3903              	.L461:
 3904 0068 0320     		movs	r0, #3
 3905              	.L458:
 3906 006a 03B0     		add	sp, sp, #12
 3907              		@ sp needed
 3908 006c 30BD     		pop	{r4, r5, pc}
 3910 006e 00BF     		.section	.text.HAL_UART_Init,"ax",%progbits
 3911              		.align	2
 3912              		.global	HAL_UART_Init
 3913              		.thumb
 3914              		.thumb_func
 3916              	HAL_UART_Init:
 3917              		@ args = 0, pretend = 0, frame = 0
 3918              		@ frame_needed = 0, uses_anonymous_args = 0
 3919 0000 68B3     		cbz	r0, .L467
 3920 0002 10B5     		push	{r4, lr}
 3921 0004 0446     		mov	r4, r0
 3922 0006 D0F88030 		ldr	r3, [r0, #128]
 3923 000a 1BB9     		cbnz	r3, .L465
 3924 000c 80F87C30 		strb	r3, [r0, #124]
 3925 0010 FFF7FEFF 		bl	HAL_UART_MspInit
 3926              	.L465:
 3927 0014 2423     		movs	r3, #36
 3928 0016 C4F88030 		str	r3, [r4, #128]
 3929 001a 2268     		ldr	r2, [r4]
 3930 001c 1368     		ldr	r3, [r2]
 3931 001e 23F00103 		bic	r3, r3, #1
 3932 0022 1360     		str	r3, [r2]
 3933 0024 2046     		mov	r0, r4
 3934 0026 FFF7FEFF 		bl	UART_SetConfig
 3935 002a 0128     		cmp	r0, #1
 3936 002c 19D0     		beq	.L464
 3937 002e A36A     		ldr	r3, [r4, #40]
 3938 0030 13B1     		cbz	r3, .L466
 3939 0032 2046     		mov	r0, r4
 3940 0034 FFF7FEFF 		bl	UART_AdvFeatureConfig
 3941              	.L466:
 3942 0038 2268     		ldr	r2, [r4]
ARM GAS  C:\Users\xiaofei\AppData\Local\Temp\cccSmIPO.s 			page 68


 3943 003a 5368     		ldr	r3, [r2, #4]
 3944 003c 23F49043 		bic	r3, r3, #18432
 3945 0040 5360     		str	r3, [r2, #4]
 3946 0042 2268     		ldr	r2, [r4]
 3947 0044 9368     		ldr	r3, [r2, #8]
 3948 0046 23F02A03 		bic	r3, r3, #42
 3949 004a 9360     		str	r3, [r2, #8]
 3950 004c 2268     		ldr	r2, [r4]
 3951 004e 1368     		ldr	r3, [r2]
 3952 0050 43F00103 		orr	r3, r3, #1
 3953 0054 1360     		str	r3, [r2]
 3954 0056 2046     		mov	r0, r4
 3955 0058 FFF7FEFF 		bl	UART_CheckIdleState
 3956 005c 10BD     		pop	{r4, pc}
 3957              	.L467:
 3958 005e 0120     		movs	r0, #1
 3959 0060 7047     		bx	lr
 3960              	.L464:
 3961 0062 10BD     		pop	{r4, pc}
 3963              		.section	.text.HAL_HalfDuplex_Init,"ax",%progbits
 3964              		.align	2
 3965              		.global	HAL_HalfDuplex_Init
 3966              		.thumb
 3967              		.thumb_func
 3969              	HAL_HalfDuplex_Init:
 3970              		@ args = 0, pretend = 0, frame = 0
 3971              		@ frame_needed = 0, uses_anonymous_args = 0
 3972 0000 0028     		cmp	r0, #0
 3973 0002 32D0     		beq	.L474
 3974 0004 10B5     		push	{r4, lr}
 3975 0006 0446     		mov	r4, r0
 3976 0008 D0F88030 		ldr	r3, [r0, #128]
 3977 000c 1BB9     		cbnz	r3, .L472
 3978 000e 80F87C30 		strb	r3, [r0, #124]
 3979 0012 FFF7FEFF 		bl	HAL_UART_MspInit
 3980              	.L472:
 3981 0016 2423     		movs	r3, #36
 3982 0018 C4F88030 		str	r3, [r4, #128]
 3983 001c 2268     		ldr	r2, [r4]
 3984 001e 1368     		ldr	r3, [r2]
 3985 0020 23F00103 		bic	r3, r3, #1
 3986 0024 1360     		str	r3, [r2]
 3987 0026 2046     		mov	r0, r4
 3988 0028 FFF7FEFF 		bl	UART_SetConfig
 3989 002c 0128     		cmp	r0, #1
 3990 002e 1ED0     		beq	.L471
 3991 0030 A36A     		ldr	r3, [r4, #40]
 3992 0032 13B1     		cbz	r3, .L473
 3993 0034 2046     		mov	r0, r4
 3994 0036 FFF7FEFF 		bl	UART_AdvFeatureConfig
 3995              	.L473:
 3996 003a 2268     		ldr	r2, [r4]
 3997 003c 5368     		ldr	r3, [r2, #4]
 3998 003e 23F49043 		bic	r3, r3, #18432
 3999 0042 5360     		str	r3, [r2, #4]
 4000 0044 2268     		ldr	r2, [r4]
 4001 0046 9368     		ldr	r3, [r2, #8]
ARM GAS  C:\Users\xiaofei\AppData\Local\Temp\cccSmIPO.s 			page 69


 4002 0048 23F02203 		bic	r3, r3, #34
 4003 004c 9360     		str	r3, [r2, #8]
 4004 004e 2268     		ldr	r2, [r4]
 4005 0050 9368     		ldr	r3, [r2, #8]
 4006 0052 43F00803 		orr	r3, r3, #8
 4007 0056 9360     		str	r3, [r2, #8]
 4008 0058 2268     		ldr	r2, [r4]
 4009 005a 1368     		ldr	r3, [r2]
 4010 005c 43F00103 		orr	r3, r3, #1
 4011 0060 1360     		str	r3, [r2]
 4012 0062 2046     		mov	r0, r4
 4013 0064 FFF7FEFF 		bl	UART_CheckIdleState
 4014 0068 10BD     		pop	{r4, pc}
 4015              	.L474:
 4016 006a 0120     		movs	r0, #1
 4017 006c 7047     		bx	lr
 4018              	.L471:
 4019 006e 10BD     		pop	{r4, pc}
 4021              		.section	.text.HAL_LIN_Init,"ax",%progbits
 4022              		.align	2
 4023              		.global	HAL_LIN_Init
 4024              		.thumb
 4025              		.thumb_func
 4027              	HAL_LIN_Init:
 4028              		@ args = 0, pretend = 0, frame = 0
 4029              		@ frame_needed = 0, uses_anonymous_args = 0
 4030 0000 0028     		cmp	r0, #0
 4031 0002 40D0     		beq	.L481
 4032 0004 38B5     		push	{r3, r4, r5, lr}
 4033 0006 0446     		mov	r4, r0
 4034 0008 C369     		ldr	r3, [r0, #28]
 4035 000a B3F5004F 		cmp	r3, #32768
 4036 000e 3CD0     		beq	.L482
 4037 0010 8368     		ldr	r3, [r0, #8]
 4038 0012 002B     		cmp	r3, #0
 4039 0014 3BD1     		bne	.L483
 4040 0016 0D46     		mov	r5, r1
 4041 0018 D0F88030 		ldr	r3, [r0, #128]
 4042 001c 1BB9     		cbnz	r3, .L479
 4043 001e 80F87C30 		strb	r3, [r0, #124]
 4044 0022 FFF7FEFF 		bl	HAL_UART_MspInit
 4045              	.L479:
 4046 0026 2423     		movs	r3, #36
 4047 0028 C4F88030 		str	r3, [r4, #128]
 4048 002c 2268     		ldr	r2, [r4]
 4049 002e 1368     		ldr	r3, [r2]
 4050 0030 23F00103 		bic	r3, r3, #1
 4051 0034 1360     		str	r3, [r2]
 4052 0036 2046     		mov	r0, r4
 4053 0038 FFF7FEFF 		bl	UART_SetConfig
 4054 003c 0128     		cmp	r0, #1
 4055 003e 27D0     		beq	.L478
 4056 0040 A36A     		ldr	r3, [r4, #40]
 4057 0042 13B1     		cbz	r3, .L480
 4058 0044 2046     		mov	r0, r4
 4059 0046 FFF7FEFF 		bl	UART_AdvFeatureConfig
 4060              	.L480:
ARM GAS  C:\Users\xiaofei\AppData\Local\Temp\cccSmIPO.s 			page 70


 4061 004a 2268     		ldr	r2, [r4]
 4062 004c 5368     		ldr	r3, [r2, #4]
 4063 004e 23F40063 		bic	r3, r3, #2048
 4064 0052 5360     		str	r3, [r2, #4]
 4065 0054 2268     		ldr	r2, [r4]
 4066 0056 9368     		ldr	r3, [r2, #8]
 4067 0058 23F02A03 		bic	r3, r3, #42
 4068 005c 9360     		str	r3, [r2, #8]
 4069 005e 2268     		ldr	r2, [r4]
 4070 0060 5368     		ldr	r3, [r2, #4]
 4071 0062 43F48043 		orr	r3, r3, #16384
 4072 0066 5360     		str	r3, [r2, #4]
 4073 0068 2368     		ldr	r3, [r4]
 4074 006a 5968     		ldr	r1, [r3, #4]
 4075 006c 21F02001 		bic	r1, r1, #32
 4076 0070 2943     		orrs	r1, r1, r5
 4077 0072 5960     		str	r1, [r3, #4]
 4078 0074 2268     		ldr	r2, [r4]
 4079 0076 1368     		ldr	r3, [r2]
 4080 0078 43F00103 		orr	r3, r3, #1
 4081 007c 1360     		str	r3, [r2]
 4082 007e 2046     		mov	r0, r4
 4083 0080 FFF7FEFF 		bl	UART_CheckIdleState
 4084 0084 38BD     		pop	{r3, r4, r5, pc}
 4085              	.L481:
 4086 0086 0120     		movs	r0, #1
 4087 0088 7047     		bx	lr
 4088              	.L482:
 4089 008a 0120     		movs	r0, #1
 4090 008c 38BD     		pop	{r3, r4, r5, pc}
 4091              	.L483:
 4092 008e 0120     		movs	r0, #1
 4093              	.L478:
 4094 0090 38BD     		pop	{r3, r4, r5, pc}
 4096 0092 00BF     		.section	.text.HAL_MultiProcessor_Init,"ax",%progbits
 4097              		.align	2
 4098              		.global	HAL_MultiProcessor_Init
 4099              		.thumb
 4100              		.thumb_func
 4102              	HAL_MultiProcessor_Init:
 4103              		@ args = 0, pretend = 0, frame = 0
 4104              		@ frame_needed = 0, uses_anonymous_args = 0
 4105 0000 0028     		cmp	r0, #0
 4106 0002 40D0     		beq	.L490
 4107 0004 70B5     		push	{r4, r5, r6, lr}
 4108 0006 0446     		mov	r4, r0
 4109 0008 1546     		mov	r5, r2
 4110 000a 0E46     		mov	r6, r1
 4111 000c D0F88030 		ldr	r3, [r0, #128]
 4112 0010 1BB9     		cbnz	r3, .L487
 4113 0012 80F87C30 		strb	r3, [r0, #124]
 4114 0016 FFF7FEFF 		bl	HAL_UART_MspInit
 4115              	.L487:
 4116 001a 2423     		movs	r3, #36
 4117 001c C4F88030 		str	r3, [r4, #128]
 4118 0020 2268     		ldr	r2, [r4]
 4119 0022 1368     		ldr	r3, [r2]
ARM GAS  C:\Users\xiaofei\AppData\Local\Temp\cccSmIPO.s 			page 71


 4120 0024 23F00103 		bic	r3, r3, #1
 4121 0028 1360     		str	r3, [r2]
 4122 002a 2046     		mov	r0, r4
 4123 002c FFF7FEFF 		bl	UART_SetConfig
 4124 0030 0128     		cmp	r0, #1
 4125 0032 2AD0     		beq	.L486
 4126 0034 A36A     		ldr	r3, [r4, #40]
 4127 0036 13B1     		cbz	r3, .L488
 4128 0038 2046     		mov	r0, r4
 4129 003a FFF7FEFF 		bl	UART_AdvFeatureConfig
 4130              	.L488:
 4131 003e 2268     		ldr	r2, [r4]
 4132 0040 5368     		ldr	r3, [r2, #4]
 4133 0042 23F49043 		bic	r3, r3, #18432
 4134 0046 5360     		str	r3, [r2, #4]
 4135 0048 2268     		ldr	r2, [r4]
 4136 004a 9368     		ldr	r3, [r2, #8]
 4137 004c 23F02A03 		bic	r3, r3, #42
 4138 0050 9360     		str	r3, [r2, #8]
 4139 0052 B5F5006F 		cmp	r5, #2048
 4140 0056 06D1     		bne	.L489
 4141 0058 2368     		ldr	r3, [r4]
 4142 005a 5968     		ldr	r1, [r3, #4]
 4143 005c 21F07F41 		bic	r1, r1, #-16777216
 4144 0060 41EA0666 		orr	r6, r1, r6, lsl #24
 4145 0064 5E60     		str	r6, [r3, #4]
 4146              	.L489:
 4147 0066 2168     		ldr	r1, [r4]
 4148 0068 0B68     		ldr	r3, [r1]
 4149 006a 23F40063 		bic	r3, r3, #2048
 4150 006e 45EA0302 		orr	r2, r5, r3
 4151 0072 0A60     		str	r2, [r1]
 4152 0074 2268     		ldr	r2, [r4]
 4153 0076 1368     		ldr	r3, [r2]
 4154 0078 43F00103 		orr	r3, r3, #1
 4155 007c 1360     		str	r3, [r2]
 4156 007e 2046     		mov	r0, r4
 4157 0080 FFF7FEFF 		bl	UART_CheckIdleState
 4158 0084 70BD     		pop	{r4, r5, r6, pc}
 4159              	.L490:
 4160 0086 0120     		movs	r0, #1
 4161 0088 7047     		bx	lr
 4162              	.L486:
 4163 008a 70BD     		pop	{r4, r5, r6, pc}
 4165              		.section	.text.HAL_MultiProcessor_EnableMuteMode,"ax",%progbits
 4166              		.align	2
 4167              		.global	HAL_MultiProcessor_EnableMuteMode
 4168              		.thumb
 4169              		.thumb_func
 4171              	HAL_MultiProcessor_EnableMuteMode:
 4172              		@ args = 0, pretend = 0, frame = 0
 4173              		@ frame_needed = 0, uses_anonymous_args = 0
 4174 0000 08B5     		push	{r3, lr}
 4175 0002 90F87C30 		ldrb	r3, [r0, #124]	@ zero_extendqisi2
 4176 0006 012B     		cmp	r3, #1
 4177 0008 10D0     		beq	.L495
 4178 000a 0123     		movs	r3, #1
ARM GAS  C:\Users\xiaofei\AppData\Local\Temp\cccSmIPO.s 			page 72


 4179 000c 80F87C30 		strb	r3, [r0, #124]
 4180 0010 2423     		movs	r3, #36
 4181 0012 C0F88030 		str	r3, [r0, #128]
 4182 0016 0268     		ldr	r2, [r0]
 4183 0018 1368     		ldr	r3, [r2]
 4184 001a 43F40053 		orr	r3, r3, #8192
 4185 001e 1360     		str	r3, [r2]
 4186 0020 2023     		movs	r3, #32
 4187 0022 C0F88030 		str	r3, [r0, #128]
 4188 0026 FFF7FEFF 		bl	UART_CheckIdleState
 4189 002a 08BD     		pop	{r3, pc}
 4190              	.L495:
 4191 002c 0220     		movs	r0, #2
 4192 002e 08BD     		pop	{r3, pc}
 4194              		.section	.text.HAL_MultiProcessor_DisableMuteMode,"ax",%progbits
 4195              		.align	2
 4196              		.global	HAL_MultiProcessor_DisableMuteMode
 4197              		.thumb
 4198              		.thumb_func
 4200              	HAL_MultiProcessor_DisableMuteMode:
 4201              		@ args = 0, pretend = 0, frame = 0
 4202              		@ frame_needed = 0, uses_anonymous_args = 0
 4203 0000 08B5     		push	{r3, lr}
 4204 0002 90F87C30 		ldrb	r3, [r0, #124]	@ zero_extendqisi2
 4205 0006 012B     		cmp	r3, #1
 4206 0008 10D0     		beq	.L499
 4207 000a 0123     		movs	r3, #1
 4208 000c 80F87C30 		strb	r3, [r0, #124]
 4209 0010 2423     		movs	r3, #36
 4210 0012 C0F88030 		str	r3, [r0, #128]
 4211 0016 0268     		ldr	r2, [r0]
 4212 0018 1368     		ldr	r3, [r2]
 4213 001a 23F40053 		bic	r3, r3, #8192
 4214 001e 1360     		str	r3, [r2]
 4215 0020 2023     		movs	r3, #32
 4216 0022 C0F88030 		str	r3, [r0, #128]
 4217 0026 FFF7FEFF 		bl	UART_CheckIdleState
 4218 002a 08BD     		pop	{r3, pc}
 4219              	.L499:
 4220 002c 0220     		movs	r0, #2
 4221 002e 08BD     		pop	{r3, pc}
 4223              		.global	UARTPrescTable
 4224              		.section	.rodata.UARTPrescTable,"a",%progbits
 4225              		.align	2
 4226              		.set	.LANCHOR0,. + 0
 4229              	UARTPrescTable:
 4230 0000 0100     		.short	1
 4231 0002 0200     		.short	2
 4232 0004 0400     		.short	4
 4233 0006 0600     		.short	6
 4234 0008 0800     		.short	8
 4235 000a 0A00     		.short	10
 4236 000c 0C00     		.short	12
 4237 000e 1000     		.short	16
 4238 0010 2000     		.short	32
 4239 0012 4000     		.short	64
 4240 0014 8000     		.short	128
ARM GAS  C:\Users\xiaofei\AppData\Local\Temp\cccSmIPO.s 			page 73


 4241 0016 0001     		.short	256
 4242              		.ident	"GCC: (GNU Tools for ARM Embedded Processors) 5.4.1 20160919 (release) [ARM/embedded-5-bran
ARM GAS  C:\Users\xiaofei\AppData\Local\Temp\cccSmIPO.s 			page 74

