ARM GAS  C:\Users\xiaofei\AppData\Local\Temp\ccyyQLfK.s 			page 1


   1              		.syntax unified
   2              		.cpu cortex-m7
   3              		.eabi_attribute 28, 1
   4              		.fpu fpv5-d16
   5              		.eabi_attribute 20, 1
   6              		.eabi_attribute 21, 1
   7              		.eabi_attribute 23, 3
   8              		.eabi_attribute 24, 1
   9              		.eabi_attribute 25, 1
  10              		.eabi_attribute 26, 1
  11              		.eabi_attribute 30, 1
  12              		.eabi_attribute 34, 1
  13              		.eabi_attribute 18, 4
  14              		.thumb
  15              		.syntax unified
  16              		.file	"stm32h7xx_hal_timebase_tim.c"
  17              		.text
  18              	.Ltext0:
  19              		.cfi_sections	.debug_frame
  20              		.section	.text.HAL_InitTick,"ax",%progbits
  21              		.align	2
  22              		.global	HAL_InitTick
  23              		.thumb
  24              		.thumb_func
  26              	HAL_InitTick:
  27              	.LFB141:
  28              		.file 1 "Core/Src/stm32h7xx_hal_timebase_tim.c"
   1:Core/Src/stm32h7xx_hal_timebase_tim.c **** /* USER CODE BEGIN Header */
   2:Core/Src/stm32h7xx_hal_timebase_tim.c **** /**
   3:Core/Src/stm32h7xx_hal_timebase_tim.c ****   ******************************************************************************
   4:Core/Src/stm32h7xx_hal_timebase_tim.c ****   * @file    stm32h7xx_hal_timebase_TIM.c
   5:Core/Src/stm32h7xx_hal_timebase_tim.c ****   * @brief   HAL time base based on the hardware TIM.
   6:Core/Src/stm32h7xx_hal_timebase_tim.c ****   ******************************************************************************
   7:Core/Src/stm32h7xx_hal_timebase_tim.c ****   * @attention
   8:Core/Src/stm32h7xx_hal_timebase_tim.c ****   *
   9:Core/Src/stm32h7xx_hal_timebase_tim.c ****   * <h2><center>&copy; Copyright (c) 2021 STMicroelectronics.
  10:Core/Src/stm32h7xx_hal_timebase_tim.c ****   * All rights reserved.</center></h2>
  11:Core/Src/stm32h7xx_hal_timebase_tim.c ****   *
  12:Core/Src/stm32h7xx_hal_timebase_tim.c ****   * This software component is licensed by ST under Ultimate Liberty license
  13:Core/Src/stm32h7xx_hal_timebase_tim.c ****   * SLA0044, the "License"; You may not use this file except in compliance with
  14:Core/Src/stm32h7xx_hal_timebase_tim.c ****   * the License. You may obtain a copy of the License at:
  15:Core/Src/stm32h7xx_hal_timebase_tim.c ****   *                             www.st.com/SLA0044
  16:Core/Src/stm32h7xx_hal_timebase_tim.c ****   *
  17:Core/Src/stm32h7xx_hal_timebase_tim.c ****   ******************************************************************************
  18:Core/Src/stm32h7xx_hal_timebase_tim.c ****   */
  19:Core/Src/stm32h7xx_hal_timebase_tim.c **** /* USER CODE END Header */
  20:Core/Src/stm32h7xx_hal_timebase_tim.c **** 
  21:Core/Src/stm32h7xx_hal_timebase_tim.c **** /* Includes ------------------------------------------------------------------*/
  22:Core/Src/stm32h7xx_hal_timebase_tim.c **** #include "stm32h7xx_hal.h"
  23:Core/Src/stm32h7xx_hal_timebase_tim.c **** #include "stm32h7xx_hal_tim.h"
  24:Core/Src/stm32h7xx_hal_timebase_tim.c **** 
  25:Core/Src/stm32h7xx_hal_timebase_tim.c **** /* Private typedef -----------------------------------------------------------*/
  26:Core/Src/stm32h7xx_hal_timebase_tim.c **** /* Private define ------------------------------------------------------------*/
  27:Core/Src/stm32h7xx_hal_timebase_tim.c **** /* Private macro -------------------------------------------------------------*/
  28:Core/Src/stm32h7xx_hal_timebase_tim.c **** /* Private variables ---------------------------------------------------------*/
  29:Core/Src/stm32h7xx_hal_timebase_tim.c **** TIM_HandleTypeDef        htim6;
  30:Core/Src/stm32h7xx_hal_timebase_tim.c **** /* Private function prototypes -----------------------------------------------*/
ARM GAS  C:\Users\xiaofei\AppData\Local\Temp\ccyyQLfK.s 			page 2


  31:Core/Src/stm32h7xx_hal_timebase_tim.c **** /* Private functions ---------------------------------------------------------*/
  32:Core/Src/stm32h7xx_hal_timebase_tim.c **** 
  33:Core/Src/stm32h7xx_hal_timebase_tim.c **** /**
  34:Core/Src/stm32h7xx_hal_timebase_tim.c ****   * @brief  This function configures the TIM6 as a time base source.
  35:Core/Src/stm32h7xx_hal_timebase_tim.c ****   *         The time source is configured  to have 1ms time base with a dedicated
  36:Core/Src/stm32h7xx_hal_timebase_tim.c ****   *         Tick interrupt priority.
  37:Core/Src/stm32h7xx_hal_timebase_tim.c ****   * @note   This function is called  automatically at the beginning of program after
  38:Core/Src/stm32h7xx_hal_timebase_tim.c ****   *         reset by HAL_Init() or at any time when clock is configured, by HAL_RCC_ClockConfig().
  39:Core/Src/stm32h7xx_hal_timebase_tim.c ****   * @param  TickPriority: Tick interrupt priority.
  40:Core/Src/stm32h7xx_hal_timebase_tim.c ****   * @retval HAL status
  41:Core/Src/stm32h7xx_hal_timebase_tim.c ****   */
  42:Core/Src/stm32h7xx_hal_timebase_tim.c **** HAL_StatusTypeDef HAL_InitTick(uint32_t TickPriority)
  43:Core/Src/stm32h7xx_hal_timebase_tim.c **** {
  29              		.loc 1 43 0
  30              		.cfi_startproc
  31              		@ args = 0, pretend = 0, frame = 40
  32              		@ frame_needed = 0, uses_anonymous_args = 0
  33              	.LVL0:
  44:Core/Src/stm32h7xx_hal_timebase_tim.c ****   RCC_ClkInitTypeDef    clkconfig;
  45:Core/Src/stm32h7xx_hal_timebase_tim.c ****   uint32_t              uwTimclock, uwAPB1Prescaler;
  46:Core/Src/stm32h7xx_hal_timebase_tim.c **** 
  47:Core/Src/stm32h7xx_hal_timebase_tim.c ****   uint32_t              uwPrescalerValue;
  48:Core/Src/stm32h7xx_hal_timebase_tim.c ****   uint32_t              pFLatency;
  49:Core/Src/stm32h7xx_hal_timebase_tim.c **** /*Configure the TIM6 IRQ priority */
  50:Core/Src/stm32h7xx_hal_timebase_tim.c ****   if (TickPriority < (1UL << __NVIC_PRIO_BITS))
  34              		.loc 1 50 0
  35 0000 0F28     		cmp	r0, #15
  36 0002 3BD8     		bhi	.L5
  43:Core/Src/stm32h7xx_hal_timebase_tim.c ****   RCC_ClkInitTypeDef    clkconfig;
  37              		.loc 1 43 0
  38 0004 10B5     		push	{r4, lr}
  39              	.LCFI0:
  40              		.cfi_def_cfa_offset 8
  41              		.cfi_offset 4, -8
  42              		.cfi_offset 14, -4
  43 0006 8AB0     		sub	sp, sp, #40
  44              	.LCFI1:
  45              		.cfi_def_cfa_offset 48
  46 0008 0446     		mov	r4, r0
  51:Core/Src/stm32h7xx_hal_timebase_tim.c ****   {
  52:Core/Src/stm32h7xx_hal_timebase_tim.c ****   HAL_NVIC_SetPriority(TIM6_DAC_IRQn, TickPriority ,0U);
  47              		.loc 1 52 0
  48 000a 0022     		movs	r2, #0
  49 000c 0146     		mov	r1, r0
  50 000e 3620     		movs	r0, #54
  51              	.LVL1:
  52 0010 FFF7FEFF 		bl	HAL_NVIC_SetPriority
  53              	.LVL2:
  53:Core/Src/stm32h7xx_hal_timebase_tim.c **** 
  54:Core/Src/stm32h7xx_hal_timebase_tim.c ****   /* Enable the TIM6 global Interrupt */
  55:Core/Src/stm32h7xx_hal_timebase_tim.c ****   HAL_NVIC_EnableIRQ(TIM6_DAC_IRQn);
  54              		.loc 1 55 0
  55 0014 3620     		movs	r0, #54
  56 0016 FFF7FEFF 		bl	HAL_NVIC_EnableIRQ
  57              	.LVL3:
  56:Core/Src/stm32h7xx_hal_timebase_tim.c ****     uwTickPrio = TickPriority;
  58              		.loc 1 56 0
ARM GAS  C:\Users\xiaofei\AppData\Local\Temp\ccyyQLfK.s 			page 3


  59 001a 1B4B     		ldr	r3, .L8
  60 001c 1C60     		str	r4, [r3]
  61              	.LBB2:
  57:Core/Src/stm32h7xx_hal_timebase_tim.c ****     }
  58:Core/Src/stm32h7xx_hal_timebase_tim.c ****   else
  59:Core/Src/stm32h7xx_hal_timebase_tim.c ****   {
  60:Core/Src/stm32h7xx_hal_timebase_tim.c ****     return HAL_ERROR;
  61:Core/Src/stm32h7xx_hal_timebase_tim.c ****   }
  62:Core/Src/stm32h7xx_hal_timebase_tim.c ****   /* Enable TIM6 clock */
  63:Core/Src/stm32h7xx_hal_timebase_tim.c ****   __HAL_RCC_TIM6_CLK_ENABLE();
  62              		.loc 1 63 0
  63 001e 1B4B     		ldr	r3, .L8+4
  64 0020 D3F8E820 		ldr	r2, [r3, #232]
  65 0024 42F01002 		orr	r2, r2, #16
  66 0028 C3F8E820 		str	r2, [r3, #232]
  67 002c D3F8E830 		ldr	r3, [r3, #232]
  68 0030 03F01003 		and	r3, r3, #16
  69 0034 0093     		str	r3, [sp]
  70 0036 009B     		ldr	r3, [sp]
  71              	.LBE2:
  64:Core/Src/stm32h7xx_hal_timebase_tim.c **** 
  65:Core/Src/stm32h7xx_hal_timebase_tim.c ****   /* Get clock configuration */
  66:Core/Src/stm32h7xx_hal_timebase_tim.c ****   HAL_RCC_GetClockConfig(&clkconfig, &pFLatency);
  72              		.loc 1 66 0
  73 0038 01A9     		add	r1, sp, #4
  74 003a 02A8     		add	r0, sp, #8
  75 003c FFF7FEFF 		bl	HAL_RCC_GetClockConfig
  76              	.LVL4:
  67:Core/Src/stm32h7xx_hal_timebase_tim.c **** 
  68:Core/Src/stm32h7xx_hal_timebase_tim.c ****   /* Get APB1 prescaler */
  69:Core/Src/stm32h7xx_hal_timebase_tim.c ****   uwAPB1Prescaler = clkconfig.APB1CLKDivider;
  77              		.loc 1 69 0
  78 0040 079B     		ldr	r3, [sp, #28]
  79              	.LVL5:
  70:Core/Src/stm32h7xx_hal_timebase_tim.c ****   /* Compute TIM6 clock */
  71:Core/Src/stm32h7xx_hal_timebase_tim.c ****   if (uwAPB1Prescaler == RCC_HCLK_DIV1)
  80              		.loc 1 71 0
  81 0042 13B9     		cbnz	r3, .L3
  72:Core/Src/stm32h7xx_hal_timebase_tim.c ****   {
  73:Core/Src/stm32h7xx_hal_timebase_tim.c ****     uwTimclock = HAL_RCC_GetPCLK1Freq();
  82              		.loc 1 73 0
  83 0044 FFF7FEFF 		bl	HAL_RCC_GetPCLK1Freq
  84              	.LVL6:
  85 0048 02E0     		b	.L4
  86              	.LVL7:
  87              	.L3:
  74:Core/Src/stm32h7xx_hal_timebase_tim.c ****   }
  75:Core/Src/stm32h7xx_hal_timebase_tim.c ****   else
  76:Core/Src/stm32h7xx_hal_timebase_tim.c ****   {
  77:Core/Src/stm32h7xx_hal_timebase_tim.c ****     uwTimclock = 2UL * HAL_RCC_GetPCLK1Freq();
  88              		.loc 1 77 0
  89 004a FFF7FEFF 		bl	HAL_RCC_GetPCLK1Freq
  90              	.LVL8:
  91 004e 4000     		lsls	r0, r0, #1
  92              	.LVL9:
  93              	.L4:
  78:Core/Src/stm32h7xx_hal_timebase_tim.c ****   }
ARM GAS  C:\Users\xiaofei\AppData\Local\Temp\ccyyQLfK.s 			page 4


  79:Core/Src/stm32h7xx_hal_timebase_tim.c **** 
  80:Core/Src/stm32h7xx_hal_timebase_tim.c ****   /* Compute the prescaler value to have TIM6 counter clock equal to 1MHz */
  81:Core/Src/stm32h7xx_hal_timebase_tim.c ****   uwPrescalerValue = (uint32_t) ((uwTimclock / 1000000U) - 1U);
  94              		.loc 1 81 0
  95 0050 0F4B     		ldr	r3, .L8+8
  96 0052 A3FB0023 		umull	r2, r3, r3, r0
  97 0056 9B0C     		lsrs	r3, r3, #18
  98 0058 013B     		subs	r3, r3, #1
  99              	.LVL10:
  82:Core/Src/stm32h7xx_hal_timebase_tim.c **** 
  83:Core/Src/stm32h7xx_hal_timebase_tim.c ****   /* Initialize TIM6 */
  84:Core/Src/stm32h7xx_hal_timebase_tim.c ****   htim6.Instance = TIM6;
 100              		.loc 1 84 0
 101 005a 0E48     		ldr	r0, .L8+12
 102              	.LVL11:
 103 005c 0E4A     		ldr	r2, .L8+16
 104 005e 0260     		str	r2, [r0]
  85:Core/Src/stm32h7xx_hal_timebase_tim.c **** 
  86:Core/Src/stm32h7xx_hal_timebase_tim.c ****   /* Initialize TIMx peripheral as follow:
  87:Core/Src/stm32h7xx_hal_timebase_tim.c ****   + Period = [(TIM6CLK/1000) - 1]. to have a (1/1000) s time base.
  88:Core/Src/stm32h7xx_hal_timebase_tim.c ****   + Prescaler = (uwTimclock/1000000 - 1) to have a 1MHz counter clock.
  89:Core/Src/stm32h7xx_hal_timebase_tim.c ****   + ClockDivision = 0
  90:Core/Src/stm32h7xx_hal_timebase_tim.c ****   + Counter direction = Up
  91:Core/Src/stm32h7xx_hal_timebase_tim.c ****   */
  92:Core/Src/stm32h7xx_hal_timebase_tim.c ****   htim6.Init.Period = (1000000U / 1000U) - 1U;
 105              		.loc 1 92 0
 106 0060 40F2E732 		movw	r2, #999
 107 0064 C260     		str	r2, [r0, #12]
  93:Core/Src/stm32h7xx_hal_timebase_tim.c ****   htim6.Init.Prescaler = uwPrescalerValue;
 108              		.loc 1 93 0
 109 0066 4360     		str	r3, [r0, #4]
  94:Core/Src/stm32h7xx_hal_timebase_tim.c ****   htim6.Init.ClockDivision = 0;
 110              		.loc 1 94 0
 111 0068 0023     		movs	r3, #0
 112              	.LVL12:
 113 006a 0361     		str	r3, [r0, #16]
  95:Core/Src/stm32h7xx_hal_timebase_tim.c ****   htim6.Init.CounterMode = TIM_COUNTERMODE_UP;
 114              		.loc 1 95 0
 115 006c 8360     		str	r3, [r0, #8]
  96:Core/Src/stm32h7xx_hal_timebase_tim.c ****   if(HAL_TIM_Base_Init(&htim6) == HAL_OK)
 116              		.loc 1 96 0
 117 006e FFF7FEFF 		bl	HAL_TIM_Base_Init
 118              	.LVL13:
 119 0072 28B9     		cbnz	r0, .L6
  97:Core/Src/stm32h7xx_hal_timebase_tim.c ****   {
  98:Core/Src/stm32h7xx_hal_timebase_tim.c ****     /* Start the TIM time Base generation in interrupt mode */
  99:Core/Src/stm32h7xx_hal_timebase_tim.c ****     return HAL_TIM_Base_Start_IT(&htim6);
 120              		.loc 1 99 0
 121 0074 0748     		ldr	r0, .L8+12
 122 0076 FFF7FEFF 		bl	HAL_TIM_Base_Start_IT
 123              	.LVL14:
 124 007a 02E0     		b	.L2
 125              	.LVL15:
 126              	.L5:
 127              	.LCFI2:
 128              		.cfi_def_cfa_offset 0
 129              		.cfi_restore 4
ARM GAS  C:\Users\xiaofei\AppData\Local\Temp\ccyyQLfK.s 			page 5


 130              		.cfi_restore 14
  60:Core/Src/stm32h7xx_hal_timebase_tim.c ****   }
 131              		.loc 1 60 0
 132 007c 0120     		movs	r0, #1
 133              	.LVL16:
 100:Core/Src/stm32h7xx_hal_timebase_tim.c ****   }
 101:Core/Src/stm32h7xx_hal_timebase_tim.c **** 
 102:Core/Src/stm32h7xx_hal_timebase_tim.c ****   /* Return function status */
 103:Core/Src/stm32h7xx_hal_timebase_tim.c ****   return HAL_ERROR;
 104:Core/Src/stm32h7xx_hal_timebase_tim.c **** }
 134              		.loc 1 104 0
 135 007e 7047     		bx	lr
 136              	.LVL17:
 137              	.L6:
 138              	.LCFI3:
 139              		.cfi_def_cfa_offset 48
 140              		.cfi_offset 4, -8
 141              		.cfi_offset 14, -4
 103:Core/Src/stm32h7xx_hal_timebase_tim.c **** }
 142              		.loc 1 103 0
 143 0080 0120     		movs	r0, #1
 144              	.L2:
 145              		.loc 1 104 0
 146 0082 0AB0     		add	sp, sp, #40
 147              	.LCFI4:
 148              		.cfi_def_cfa_offset 8
 149              		@ sp needed
 150 0084 10BD     		pop	{r4, pc}
 151              	.LVL18:
 152              	.L9:
 153 0086 00BF     		.align	2
 154              	.L8:
 155 0088 00000000 		.word	uwTickPrio
 156 008c 00440258 		.word	1476543488
 157 0090 83DE1B43 		.word	1125899907
 158 0094 00000000 		.word	htim6
 159 0098 00100040 		.word	1073745920
 160              		.cfi_endproc
 161              	.LFE141:
 163              		.section	.text.HAL_SuspendTick,"ax",%progbits
 164              		.align	2
 165              		.global	HAL_SuspendTick
 166              		.thumb
 167              		.thumb_func
 169              	HAL_SuspendTick:
 170              	.LFB142:
 105:Core/Src/stm32h7xx_hal_timebase_tim.c **** 
 106:Core/Src/stm32h7xx_hal_timebase_tim.c **** /**
 107:Core/Src/stm32h7xx_hal_timebase_tim.c ****   * @brief  Suspend Tick increment.
 108:Core/Src/stm32h7xx_hal_timebase_tim.c ****   * @note   Disable the tick increment by disabling TIM6 update interrupt.
 109:Core/Src/stm32h7xx_hal_timebase_tim.c ****   * @param  None
 110:Core/Src/stm32h7xx_hal_timebase_tim.c ****   * @retval None
 111:Core/Src/stm32h7xx_hal_timebase_tim.c ****   */
 112:Core/Src/stm32h7xx_hal_timebase_tim.c **** void HAL_SuspendTick(void)
 113:Core/Src/stm32h7xx_hal_timebase_tim.c **** {
 171              		.loc 1 113 0
 172              		.cfi_startproc
ARM GAS  C:\Users\xiaofei\AppData\Local\Temp\ccyyQLfK.s 			page 6


 173              		@ args = 0, pretend = 0, frame = 0
 174              		@ frame_needed = 0, uses_anonymous_args = 0
 175              		@ link register save eliminated.
 114:Core/Src/stm32h7xx_hal_timebase_tim.c ****   /* Disable TIM6 update Interrupt */
 115:Core/Src/stm32h7xx_hal_timebase_tim.c ****   __HAL_TIM_DISABLE_IT(&htim6, TIM_IT_UPDATE);
 176              		.loc 1 115 0
 177 0000 034B     		ldr	r3, .L11
 178 0002 1A68     		ldr	r2, [r3]
 179 0004 D368     		ldr	r3, [r2, #12]
 180 0006 23F00103 		bic	r3, r3, #1
 181 000a D360     		str	r3, [r2, #12]
 182 000c 7047     		bx	lr
 183              	.L12:
 184 000e 00BF     		.align	2
 185              	.L11:
 186 0010 00000000 		.word	htim6
 187              		.cfi_endproc
 188              	.LFE142:
 190              		.section	.text.HAL_ResumeTick,"ax",%progbits
 191              		.align	2
 192              		.global	HAL_ResumeTick
 193              		.thumb
 194              		.thumb_func
 196              	HAL_ResumeTick:
 197              	.LFB143:
 116:Core/Src/stm32h7xx_hal_timebase_tim.c **** }
 117:Core/Src/stm32h7xx_hal_timebase_tim.c **** 
 118:Core/Src/stm32h7xx_hal_timebase_tim.c **** /**
 119:Core/Src/stm32h7xx_hal_timebase_tim.c ****   * @brief  Resume Tick increment.
 120:Core/Src/stm32h7xx_hal_timebase_tim.c ****   * @note   Enable the tick increment by Enabling TIM6 update interrupt.
 121:Core/Src/stm32h7xx_hal_timebase_tim.c ****   * @param  None
 122:Core/Src/stm32h7xx_hal_timebase_tim.c ****   * @retval None
 123:Core/Src/stm32h7xx_hal_timebase_tim.c ****   */
 124:Core/Src/stm32h7xx_hal_timebase_tim.c **** void HAL_ResumeTick(void)
 125:Core/Src/stm32h7xx_hal_timebase_tim.c **** {
 198              		.loc 1 125 0
 199              		.cfi_startproc
 200              		@ args = 0, pretend = 0, frame = 0
 201              		@ frame_needed = 0, uses_anonymous_args = 0
 202              		@ link register save eliminated.
 126:Core/Src/stm32h7xx_hal_timebase_tim.c ****   /* Enable TIM6 Update interrupt */
 127:Core/Src/stm32h7xx_hal_timebase_tim.c ****   __HAL_TIM_ENABLE_IT(&htim6, TIM_IT_UPDATE);
 203              		.loc 1 127 0
 204 0000 034B     		ldr	r3, .L14
 205 0002 1A68     		ldr	r2, [r3]
 206 0004 D368     		ldr	r3, [r2, #12]
 207 0006 43F00103 		orr	r3, r3, #1
 208 000a D360     		str	r3, [r2, #12]
 209 000c 7047     		bx	lr
 210              	.L15:
 211 000e 00BF     		.align	2
 212              	.L14:
 213 0010 00000000 		.word	htim6
 214              		.cfi_endproc
 215              	.LFE143:
 217              		.comm	htim6,76,4
 218              		.text
ARM GAS  C:\Users\xiaofei\AppData\Local\Temp\ccyyQLfK.s 			page 7


 219              	.Letext0:
 220              		.file 2 "d:\\program files (x86)\\gnu tools arm embedded\\5.4 2016q3\\arm-none-eabi\\include\\mach
 221              		.file 3 "d:\\program files (x86)\\gnu tools arm embedded\\5.4 2016q3\\arm-none-eabi\\include\\sys\
 222              		.file 4 "Drivers/CMSIS/Device/ST/STM32H7xx/Include/stm32h750xx.h"
 223              		.file 5 "Drivers/STM32H7xx_HAL_Driver/Inc/stm32h7xx_hal_def.h"
 224              		.file 6 "Drivers/STM32H7xx_HAL_Driver/Inc/stm32h7xx_hal_rcc.h"
 225              		.file 7 "Drivers/STM32H7xx_HAL_Driver/Inc/stm32h7xx_hal_dma.h"
 226              		.file 8 "Drivers/STM32H7xx_HAL_Driver/Inc/stm32h7xx_hal_tim.h"
 227              		.file 9 "Drivers/CMSIS/Include/core_cm7.h"
 228              		.file 10 "Drivers/STM32H7xx_HAL_Driver/Inc/stm32h7xx_hal.h"
 229              		.file 11 "Drivers/STM32H7xx_HAL_Driver/Inc/stm32h7xx_hal_cortex.h"
ARM GAS  C:\Users\xiaofei\AppData\Local\Temp\ccyyQLfK.s 			page 8

