ARM GAS  C:\Users\xiaofei\AppData\Local\Temp\ccwF3QCs.s 			page 1


   1              		.syntax unified
   2              		.cpu cortex-m7
   3              		.eabi_attribute 28, 1
   4              		.fpu fpv5-d16
   5              		.eabi_attribute 20, 1
   6              		.eabi_attribute 21, 1
   7              		.eabi_attribute 23, 3
   8              		.eabi_attribute 24, 1
   9              		.eabi_attribute 25, 1
  10              		.eabi_attribute 26, 1
  11              		.eabi_attribute 30, 1
  12              		.eabi_attribute 34, 1
  13              		.eabi_attribute 18, 4
  14              		.thumb
  15              		.syntax unified
  16              		.file	"stm32h7xx_hal_gpio.c"
  17              		.section	.text.HAL_GPIO_Init,"ax",%progbits
  18              		.align	2
  19              		.global	HAL_GPIO_Init
  20              		.thumb
  21              		.thumb_func
  23              	HAL_GPIO_Init:
  24              		@ args = 0, pretend = 0, frame = 8
  25              		@ frame_needed = 0, uses_anonymous_args = 0
  26 0000 2DE9F041 		push	{r4, r5, r6, r7, r8, lr}
  27 0004 82B0     		sub	sp, sp, #8
  28 0006 0023     		movs	r3, #0
  29 0008 E4E0     		b	.L2
  30              	.L12:
  31 000a 0124     		movs	r4, #1
  32 000c 9C40     		lsls	r4, r4, r3
  33 000e 2240     		ands	r2, r2, r4
  34 0010 00F0DF80 		beq	.L3
  35 0014 4D68     		ldr	r5, [r1, #4]
  36 0016 6E1E     		subs	r6, r5, #1
  37 0018 112D     		cmp	r5, #17
  38 001a 18BF     		it	ne
  39 001c 012E     		cmpne	r6, #1
  40 001e 01D9     		bls	.L4
  41 0020 122D     		cmp	r5, #18
  42 0022 15D1     		bne	.L5
  43              	.L4:
  44 0024 8768     		ldr	r7, [r0, #8]
  45 0026 4FEA430E 		lsl	lr, r3, #1
  46 002a 0326     		movs	r6, #3
  47 002c 06FA0EF6 		lsl	r6, r6, lr
  48 0030 27EA0606 		bic	r6, r7, r6
  49 0034 CD68     		ldr	r5, [r1, #12]
  50 0036 05FA0EF5 		lsl	r5, r5, lr
  51 003a 3543     		orrs	r5, r5, r6
  52 003c 8560     		str	r5, [r0, #8]
  53 003e 4568     		ldr	r5, [r0, #4]
  54 0040 25EA0404 		bic	r4, r5, r4
  55 0044 4D68     		ldr	r5, [r1, #4]
  56 0046 C5F30015 		ubfx	r5, r5, #4, #1
  57 004a 9D40     		lsls	r5, r5, r3
  58 004c 2C43     		orrs	r4, r4, r5
ARM GAS  C:\Users\xiaofei\AppData\Local\Temp\ccwF3QCs.s 			page 2


  59 004e 4460     		str	r4, [r0, #4]
  60              	.L5:
  61 0050 C568     		ldr	r5, [r0, #12]
  62 0052 5F00     		lsls	r7, r3, #1
  63 0054 0324     		movs	r4, #3
  64 0056 BC40     		lsls	r4, r4, r7
  65 0058 E443     		mvns	r4, r4
  66 005a 05EA040E 		and	lr, r5, r4
  67 005e 8D68     		ldr	r5, [r1, #8]
  68 0060 BD40     		lsls	r5, r5, r7
  69 0062 4EEA0505 		orr	r5, lr, r5
  70 0066 C560     		str	r5, [r0, #12]
  71 0068 4D68     		ldr	r5, [r1, #4]
  72 006a 122D     		cmp	r5, #18
  73 006c 18BF     		it	ne
  74 006e 022D     		cmpne	r5, #2
  75 0070 13D1     		bne	.L6
  76 0072 DE08     		lsrs	r6, r3, #3
  77 0074 0836     		adds	r6, r6, #8
  78 0076 50F82680 		ldr	r8, [r0, r6, lsl #2]
  79 007a 03F00705 		and	r5, r3, #7
  80 007e 4FEA850E 		lsl	lr, r5, #2
  81 0082 0F25     		movs	r5, #15
  82 0084 05FA0EF5 		lsl	r5, r5, lr
  83 0088 28EA050C 		bic	ip, r8, r5
  84 008c 0D69     		ldr	r5, [r1, #16]
  85 008e 05FA0EF5 		lsl	r5, r5, lr
  86 0092 4CEA0505 		orr	r5, ip, r5
  87 0096 40F82650 		str	r5, [r0, r6, lsl #2]
  88              	.L6:
  89 009a 0568     		ldr	r5, [r0]
  90 009c 04EA0506 		and	r6, r4, r5
  91 00a0 4C68     		ldr	r4, [r1, #4]
  92 00a2 04F00305 		and	r5, r4, #3
  93 00a6 05FA07F4 		lsl	r4, r5, r7
  94 00aa 3443     		orrs	r4, r4, r6
  95 00ac 0460     		str	r4, [r0]
  96 00ae 4C68     		ldr	r4, [r1, #4]
  97 00b0 14F0805F 		tst	r4, #268435456
  98 00b4 00F08D80 		beq	.L3
  99 00b8 4A4C     		ldr	r4, .L24
 100 00ba D4F8F450 		ldr	r5, [r4, #244]
 101 00be 45F00205 		orr	r5, r5, #2
 102 00c2 C4F8F450 		str	r5, [r4, #244]
 103 00c6 D4F8F440 		ldr	r4, [r4, #244]
 104 00ca 04F00204 		and	r4, r4, #2
 105 00ce 0194     		str	r4, [sp, #4]
 106 00d0 019C     		ldr	r4, [sp, #4]
 107 00d2 9E08     		lsrs	r6, r3, #2
 108 00d4 B51C     		adds	r5, r6, #2
 109 00d6 444C     		ldr	r4, .L24+4
 110 00d8 54F82570 		ldr	r7, [r4, r5, lsl #2]
 111 00dc 03F00304 		and	r4, r3, #3
 112 00e0 A400     		lsls	r4, r4, #2
 113 00e2 0F25     		movs	r5, #15
 114 00e4 A540     		lsls	r5, r5, r4
 115 00e6 27EA0507 		bic	r7, r7, r5
ARM GAS  C:\Users\xiaofei\AppData\Local\Temp\ccwF3QCs.s 			page 3


 116 00ea 404D     		ldr	r5, .L24+8
 117 00ec A842     		cmp	r0, r5
 118 00ee 25D0     		beq	.L13
 119 00f0 05F58065 		add	r5, r5, #1024
 120 00f4 A842     		cmp	r0, r5
 121 00f6 23D0     		beq	.L14
 122 00f8 05F58065 		add	r5, r5, #1024
 123 00fc A842     		cmp	r0, r5
 124 00fe 21D0     		beq	.L15
 125 0100 05F58065 		add	r5, r5, #1024
 126 0104 A842     		cmp	r0, r5
 127 0106 1FD0     		beq	.L16
 128 0108 05F58065 		add	r5, r5, #1024
 129 010c A842     		cmp	r0, r5
 130 010e 1DD0     		beq	.L17
 131 0110 05F58065 		add	r5, r5, #1024
 132 0114 A842     		cmp	r0, r5
 133 0116 1BD0     		beq	.L18
 134 0118 05F58065 		add	r5, r5, #1024
 135 011c A842     		cmp	r0, r5
 136 011e 19D0     		beq	.L19
 137 0120 05F58065 		add	r5, r5, #1024
 138 0124 A842     		cmp	r0, r5
 139 0126 17D0     		beq	.L20
 140 0128 05F58065 		add	r5, r5, #1024
 141 012c A842     		cmp	r0, r5
 142 012e 15D0     		beq	.L21
 143 0130 05F58065 		add	r5, r5, #1024
 144 0134 A842     		cmp	r0, r5
 145 0136 13D1     		bne	.L22
 146 0138 0925     		movs	r5, #9
 147 013a 12E0     		b	.L7
 148              	.L13:
 149 013c 0025     		movs	r5, #0
 150 013e 10E0     		b	.L7
 151              	.L14:
 152 0140 0125     		movs	r5, #1
 153 0142 0EE0     		b	.L7
 154              	.L15:
 155 0144 0225     		movs	r5, #2
 156 0146 0CE0     		b	.L7
 157              	.L16:
 158 0148 0325     		movs	r5, #3
 159 014a 0AE0     		b	.L7
 160              	.L17:
 161 014c 0425     		movs	r5, #4
 162 014e 08E0     		b	.L7
 163              	.L18:
 164 0150 0525     		movs	r5, #5
 165 0152 06E0     		b	.L7
 166              	.L19:
 167 0154 0625     		movs	r5, #6
 168 0156 04E0     		b	.L7
 169              	.L20:
 170 0158 0725     		movs	r5, #7
 171 015a 02E0     		b	.L7
 172              	.L21:
ARM GAS  C:\Users\xiaofei\AppData\Local\Temp\ccwF3QCs.s 			page 4


 173 015c 0825     		movs	r5, #8
 174 015e 00E0     		b	.L7
 175              	.L22:
 176 0160 0A25     		movs	r5, #10
 177              	.L7:
 178 0162 05FA04F4 		lsl	r4, r5, r4
 179 0166 3C43     		orrs	r4, r4, r7
 180 0168 0236     		adds	r6, r6, #2
 181 016a 1F4D     		ldr	r5, .L24+4
 182 016c 45F82640 		str	r4, [r5, r6, lsl #2]
 183 0170 1F4C     		ldr	r4, .L24+12
 184 0172 2568     		ldr	r5, [r4]
 185 0174 D443     		mvns	r4, r2
 186 0176 05EA0406 		and	r6, r5, r4
 187 017a 4F68     		ldr	r7, [r1, #4]
 188 017c 17F4803F 		tst	r7, #65536
 189 0180 01D0     		beq	.L8
 190 0182 42EA0506 		orr	r6, r2, r5
 191              	.L8:
 192 0186 1A4D     		ldr	r5, .L24+12
 193 0188 2E60     		str	r6, [r5]
 194 018a 6E68     		ldr	r6, [r5, #4]
 195 018c 04EA0605 		and	r5, r4, r6
 196 0190 4F68     		ldr	r7, [r1, #4]
 197 0192 17F4003F 		tst	r7, #131072
 198 0196 01D0     		beq	.L9
 199 0198 42EA0605 		orr	r5, r2, r6
 200              	.L9:
 201 019c 144E     		ldr	r6, .L24+12
 202 019e 7560     		str	r5, [r6, #4]
 203 01a0 4FF0B045 		mov	r5, #1476395008
 204 01a4 2D68     		ldr	r5, [r5]
 205 01a6 04EA0506 		and	r6, r4, r5
 206 01aa 4F68     		ldr	r7, [r1, #4]
 207 01ac 17F4801F 		tst	r7, #1048576
 208 01b0 01D0     		beq	.L10
 209 01b2 42EA0506 		orr	r6, r2, r5
 210              	.L10:
 211 01b6 4FF0B045 		mov	r5, #1476395008
 212 01ba 2E60     		str	r6, [r5]
 213 01bc 6D68     		ldr	r5, [r5, #4]
 214 01be 2C40     		ands	r4, r4, r5
 215 01c0 4E68     		ldr	r6, [r1, #4]
 216 01c2 16F4001F 		tst	r6, #2097152
 217 01c6 01D0     		beq	.L11
 218 01c8 42EA0504 		orr	r4, r2, r5
 219              	.L11:
 220 01cc 4FF0B042 		mov	r2, #1476395008
 221 01d0 5460     		str	r4, [r2, #4]
 222              	.L3:
 223 01d2 0133     		adds	r3, r3, #1
 224              	.L2:
 225 01d4 0A68     		ldr	r2, [r1]
 226 01d6 32FA03F4 		lsrs	r4, r2, r3
 227 01da 7FF416AF 		bne	.L12
 228 01de 02B0     		add	sp, sp, #8
 229              		@ sp needed
ARM GAS  C:\Users\xiaofei\AppData\Local\Temp\ccwF3QCs.s 			page 5


 230 01e0 BDE8F081 		pop	{r4, r5, r6, r7, r8, pc}
 231              	.L25:
 232              		.align	2
 233              	.L24:
 234 01e4 00440258 		.word	1476543488
 235 01e8 00040058 		.word	1476396032
 236 01ec 00000258 		.word	1476526080
 237 01f0 80000058 		.word	1476395136
 239              		.section	.text.HAL_GPIO_DeInit,"ax",%progbits
 240              		.align	2
 241              		.global	HAL_GPIO_DeInit
 242              		.thumb
 243              		.thumb_func
 245              	HAL_GPIO_DeInit:
 246              		@ args = 0, pretend = 0, frame = 0
 247              		@ frame_needed = 0, uses_anonymous_args = 0
 248 0000 F0B5     		push	{r4, r5, r6, r7, lr}
 249 0002 0023     		movs	r3, #0
 250 0004 90E0     		b	.L27
 251              	.L31:
 252 0006 0122     		movs	r2, #1
 253 0008 9A40     		lsls	r2, r2, r3
 254 000a 11EA0207 		ands	r7, r1, r2
 255 000e 00F08A80 		beq	.L28
 256 0012 4FEA930E 		lsr	lr, r3, #2
 257 0016 0EF10205 		add	r5, lr, #2
 258 001a 464C     		ldr	r4, .L43
 259 001c 54F82550 		ldr	r5, [r4, r5, lsl #2]
 260 0020 03F00304 		and	r4, r3, #3
 261 0024 A400     		lsls	r4, r4, #2
 262 0026 0F26     		movs	r6, #15
 263 0028 06FA04FC 		lsl	ip, r6, r4
 264 002c 05EA0C05 		and	r5, r5, ip
 265 0030 414E     		ldr	r6, .L43+4
 266 0032 B042     		cmp	r0, r6
 267 0034 25D0     		beq	.L32
 268 0036 06F58066 		add	r6, r6, #1024
 269 003a B042     		cmp	r0, r6
 270 003c 23D0     		beq	.L33
 271 003e 06F58066 		add	r6, r6, #1024
 272 0042 B042     		cmp	r0, r6
 273 0044 21D0     		beq	.L34
 274 0046 06F58066 		add	r6, r6, #1024
 275 004a B042     		cmp	r0, r6
 276 004c 1FD0     		beq	.L35
 277 004e 06F58066 		add	r6, r6, #1024
 278 0052 B042     		cmp	r0, r6
 279 0054 1DD0     		beq	.L36
 280 0056 06F58066 		add	r6, r6, #1024
 281 005a B042     		cmp	r0, r6
 282 005c 1BD0     		beq	.L37
 283 005e 06F58066 		add	r6, r6, #1024
 284 0062 B042     		cmp	r0, r6
 285 0064 19D0     		beq	.L38
 286 0066 06F58066 		add	r6, r6, #1024
 287 006a B042     		cmp	r0, r6
 288 006c 17D0     		beq	.L39
ARM GAS  C:\Users\xiaofei\AppData\Local\Temp\ccwF3QCs.s 			page 6


 289 006e 06F58066 		add	r6, r6, #1024
 290 0072 B042     		cmp	r0, r6
 291 0074 15D0     		beq	.L40
 292 0076 06F58066 		add	r6, r6, #1024
 293 007a B042     		cmp	r0, r6
 294 007c 13D1     		bne	.L41
 295 007e 0926     		movs	r6, #9
 296 0080 12E0     		b	.L29
 297              	.L32:
 298 0082 0026     		movs	r6, #0
 299 0084 10E0     		b	.L29
 300              	.L33:
 301 0086 0126     		movs	r6, #1
 302 0088 0EE0     		b	.L29
 303              	.L34:
 304 008a 0226     		movs	r6, #2
 305 008c 0CE0     		b	.L29
 306              	.L35:
 307 008e 0326     		movs	r6, #3
 308 0090 0AE0     		b	.L29
 309              	.L36:
 310 0092 0426     		movs	r6, #4
 311 0094 08E0     		b	.L29
 312              	.L37:
 313 0096 0526     		movs	r6, #5
 314 0098 06E0     		b	.L29
 315              	.L38:
 316 009a 0626     		movs	r6, #6
 317 009c 04E0     		b	.L29
 318              	.L39:
 319 009e 0726     		movs	r6, #7
 320 00a0 02E0     		b	.L29
 321              	.L40:
 322 00a2 0826     		movs	r6, #8
 323 00a4 00E0     		b	.L29
 324              	.L41:
 325 00a6 0A26     		movs	r6, #10
 326              	.L29:
 327 00a8 06FA04F4 		lsl	r4, r6, r4
 328 00ac A542     		cmp	r5, r4
 329 00ae 18D1     		bne	.L30
 330 00b0 224C     		ldr	r4, .L43+8
 331 00b2 2568     		ldr	r5, [r4]
 332 00b4 FF43     		mvns	r7, r7
 333 00b6 3D40     		ands	r5, r5, r7
 334 00b8 2560     		str	r5, [r4]
 335 00ba 6568     		ldr	r5, [r4, #4]
 336 00bc 3D40     		ands	r5, r5, r7
 337 00be 6560     		str	r5, [r4, #4]
 338 00c0 4FF0B044 		mov	r4, #1476395008
 339 00c4 2568     		ldr	r5, [r4]
 340 00c6 3D40     		ands	r5, r5, r7
 341 00c8 2560     		str	r5, [r4]
 342 00ca 6568     		ldr	r5, [r4, #4]
 343 00cc 2F40     		ands	r7, r7, r5
 344 00ce 6760     		str	r7, [r4, #4]
 345 00d0 184D     		ldr	r5, .L43
ARM GAS  C:\Users\xiaofei\AppData\Local\Temp\ccwF3QCs.s 			page 7


 346 00d2 0EF10204 		add	r4, lr, #2
 347 00d6 55F82460 		ldr	r6, [r5, r4, lsl #2]
 348 00da 26EA0C06 		bic	r6, r6, ip
 349 00de 45F82460 		str	r6, [r5, r4, lsl #2]
 350              	.L30:
 351 00e2 0568     		ldr	r5, [r0]
 352 00e4 5C00     		lsls	r4, r3, #1
 353 00e6 0326     		movs	r6, #3
 354 00e8 06FA04F4 		lsl	r4, r6, r4
 355 00ec 2543     		orrs	r5, r5, r4
 356 00ee 0560     		str	r5, [r0]
 357 00f0 23FA06F5 		lsr	r5, r3, r6
 358 00f4 0835     		adds	r5, r5, #8
 359 00f6 50F82570 		ldr	r7, [r0, r5, lsl #2]
 360 00fa 03F00706 		and	r6, r3, #7
 361 00fe 4FEA860E 		lsl	lr, r6, #2
 362 0102 0F26     		movs	r6, #15
 363 0104 06FA0EF6 		lsl	r6, r6, lr
 364 0108 27EA0606 		bic	r6, r7, r6
 365 010c 40F82560 		str	r6, [r0, r5, lsl #2]
 366 0110 C568     		ldr	r5, [r0, #12]
 367 0112 E443     		mvns	r4, r4
 368 0114 2540     		ands	r5, r5, r4
 369 0116 C560     		str	r5, [r0, #12]
 370 0118 4568     		ldr	r5, [r0, #4]
 371 011a 25EA0202 		bic	r2, r5, r2
 372 011e 4260     		str	r2, [r0, #4]
 373 0120 8268     		ldr	r2, [r0, #8]
 374 0122 1440     		ands	r4, r4, r2
 375 0124 8460     		str	r4, [r0, #8]
 376              	.L28:
 377 0126 0133     		adds	r3, r3, #1
 378              	.L27:
 379 0128 31FA03F2 		lsrs	r2, r1, r3
 380 012c 7FF46BAF 		bne	.L31
 381 0130 F0BD     		pop	{r4, r5, r6, r7, pc}
 382              	.L44:
 383 0132 00BF     		.align	2
 384              	.L43:
 385 0134 00040058 		.word	1476396032
 386 0138 00000258 		.word	1476526080
 387 013c 80000058 		.word	1476395136
 389              		.section	.text.HAL_GPIO_ReadPin,"ax",%progbits
 390              		.align	2
 391              		.global	HAL_GPIO_ReadPin
 392              		.thumb
 393              		.thumb_func
 395              	HAL_GPIO_ReadPin:
 396              		@ args = 0, pretend = 0, frame = 0
 397              		@ frame_needed = 0, uses_anonymous_args = 0
 398              		@ link register save eliminated.
 399 0000 0369     		ldr	r3, [r0, #16]
 400 0002 1942     		tst	r1, r3
 401 0004 01D0     		beq	.L47
 402 0006 0120     		movs	r0, #1
 403 0008 7047     		bx	lr
 404              	.L47:
ARM GAS  C:\Users\xiaofei\AppData\Local\Temp\ccwF3QCs.s 			page 8


 405 000a 0020     		movs	r0, #0
 406 000c 7047     		bx	lr
 408 000e 00BF     		.section	.text.HAL_GPIO_WritePin,"ax",%progbits
 409              		.align	2
 410              		.global	HAL_GPIO_WritePin
 411              		.thumb
 412              		.thumb_func
 414              	HAL_GPIO_WritePin:
 415              		@ args = 0, pretend = 0, frame = 0
 416              		@ frame_needed = 0, uses_anonymous_args = 0
 417              		@ link register save eliminated.
 418 0000 0AB1     		cbz	r2, .L49
 419 0002 8161     		str	r1, [r0, #24]
 420 0004 7047     		bx	lr
 421              	.L49:
 422 0006 0904     		lsls	r1, r1, #16
 423 0008 8161     		str	r1, [r0, #24]
 424 000a 7047     		bx	lr
 426              		.section	.text.HAL_GPIO_TogglePin,"ax",%progbits
 427              		.align	2
 428              		.global	HAL_GPIO_TogglePin
 429              		.thumb
 430              		.thumb_func
 432              	HAL_GPIO_TogglePin:
 433              		@ args = 0, pretend = 0, frame = 0
 434              		@ frame_needed = 0, uses_anonymous_args = 0
 435              		@ link register save eliminated.
 436 0000 4369     		ldr	r3, [r0, #20]
 437 0002 31EA0303 		bics	r3, r1, r3
 438 0006 02D1     		bne	.L52
 439 0008 0904     		lsls	r1, r1, #16
 440 000a 8161     		str	r1, [r0, #24]
 441 000c 7047     		bx	lr
 442              	.L52:
 443 000e 8161     		str	r1, [r0, #24]
 444 0010 7047     		bx	lr
 446 0012 00BF     		.section	.text.HAL_GPIO_LockPin,"ax",%progbits
 447              		.align	2
 448              		.global	HAL_GPIO_LockPin
 449              		.thumb
 450              		.thumb_func
 452              	HAL_GPIO_LockPin:
 453              		@ args = 0, pretend = 0, frame = 8
 454              		@ frame_needed = 0, uses_anonymous_args = 0
 455              		@ link register save eliminated.
 456 0000 82B0     		sub	sp, sp, #8
 457 0002 4FF48033 		mov	r3, #65536
 458 0006 0193     		str	r3, [sp, #4]
 459 0008 019B     		ldr	r3, [sp, #4]
 460 000a 0B43     		orrs	r3, r3, r1
 461 000c 0193     		str	r3, [sp, #4]
 462 000e 019B     		ldr	r3, [sp, #4]
 463 0010 C361     		str	r3, [r0, #28]
 464 0012 C161     		str	r1, [r0, #28]
 465 0014 019B     		ldr	r3, [sp, #4]
 466 0016 C361     		str	r3, [r0, #28]
 467 0018 C369     		ldr	r3, [r0, #28]
ARM GAS  C:\Users\xiaofei\AppData\Local\Temp\ccwF3QCs.s 			page 9


 468 001a 0193     		str	r3, [sp, #4]
 469 001c C369     		ldr	r3, [r0, #28]
 470 001e 13F4803F 		tst	r3, #65536
 471 0022 01D0     		beq	.L56
 472 0024 0020     		movs	r0, #0
 473 0026 00E0     		b	.L55
 474              	.L56:
 475 0028 0120     		movs	r0, #1
 476              	.L55:
 477 002a 02B0     		add	sp, sp, #8
 478              		@ sp needed
 479 002c 7047     		bx	lr
 481 002e 00BF     		.section	.text.HAL_GPIO_EXTI_Callback,"ax",%progbits
 482              		.align	2
 483              		.weak	HAL_GPIO_EXTI_Callback
 484              		.thumb
 485              		.thumb_func
 487              	HAL_GPIO_EXTI_Callback:
 488              		@ args = 0, pretend = 0, frame = 0
 489              		@ frame_needed = 0, uses_anonymous_args = 0
 490              		@ link register save eliminated.
 491 0000 7047     		bx	lr
 493 0002 00BF     		.section	.text.HAL_GPIO_EXTI_IRQHandler,"ax",%progbits
 494              		.align	2
 495              		.global	HAL_GPIO_EXTI_IRQHandler
 496              		.thumb
 497              		.thumb_func
 499              	HAL_GPIO_EXTI_IRQHandler:
 500              		@ args = 0, pretend = 0, frame = 0
 501              		@ frame_needed = 0, uses_anonymous_args = 0
 502 0000 08B5     		push	{r3, lr}
 503 0002 4FF0B043 		mov	r3, #1476395008
 504 0006 D3F88830 		ldr	r3, [r3, #136]
 505 000a 0342     		tst	r3, r0
 506 000c 05D0     		beq	.L59
 507 000e 4FF0B043 		mov	r3, #1476395008
 508 0012 C3F88800 		str	r0, [r3, #136]
 509 0016 FFF7FEFF 		bl	HAL_GPIO_EXTI_Callback
 510              	.L59:
 511 001a 08BD     		pop	{r3, pc}
 513              		.ident	"GCC: (GNU Tools for ARM Embedded Processors) 5.4.1 20160919 (release) [ARM/embedded-5-bran
ARM GAS  C:\Users\xiaofei\AppData\Local\Temp\ccwF3QCs.s 			page 10

