ARM GAS  C:\Users\xiaofei\AppData\Local\Temp\ccBH0Ic6.s 			page 1


   1              		.syntax unified
   2              		.cpu cortex-m7
   3              		.eabi_attribute 28, 1
   4              		.fpu fpv5-d16
   5              		.eabi_attribute 20, 1
   6              		.eabi_attribute 21, 1
   7              		.eabi_attribute 23, 3
   8              		.eabi_attribute 24, 1
   9              		.eabi_attribute 25, 1
  10              		.eabi_attribute 26, 1
  11              		.eabi_attribute 30, 1
  12              		.eabi_attribute 34, 1
  13              		.eabi_attribute 18, 4
  14              		.thumb
  15              		.syntax unified
  16              		.file	"stm32h7xx_ll_usb.c"
  17              		.text
  18              	.Ltext0:
  19              		.cfi_sections	.debug_frame
  20              		.section	.text.USB_CoreReset,"ax",%progbits
  21              		.align	2
  22              		.thumb
  23              		.thumb_func
  25              	USB_CoreReset:
  26              	.LFB174:
  27              		.file 1 "Drivers/STM32H7xx_HAL_Driver/Src/stm32h7xx_ll_usb.c"
   1:Drivers/STM32H7xx_HAL_Driver/Src/stm32h7xx_ll_usb.c **** /**
   2:Drivers/STM32H7xx_HAL_Driver/Src/stm32h7xx_ll_usb.c ****   ******************************************************************************
   3:Drivers/STM32H7xx_HAL_Driver/Src/stm32h7xx_ll_usb.c ****   * @file    stm32h7xx_ll_usb.c
   4:Drivers/STM32H7xx_HAL_Driver/Src/stm32h7xx_ll_usb.c ****   * @author  MCD Application Team
   5:Drivers/STM32H7xx_HAL_Driver/Src/stm32h7xx_ll_usb.c ****   * @brief   USB Low Layer HAL module driver.
   6:Drivers/STM32H7xx_HAL_Driver/Src/stm32h7xx_ll_usb.c ****   *
   7:Drivers/STM32H7xx_HAL_Driver/Src/stm32h7xx_ll_usb.c ****   *          This file provides firmware functions to manage the following
   8:Drivers/STM32H7xx_HAL_Driver/Src/stm32h7xx_ll_usb.c ****   *          functionalities of the USB Peripheral Controller:
   9:Drivers/STM32H7xx_HAL_Driver/Src/stm32h7xx_ll_usb.c ****   *           + Initialization/de-initialization functions
  10:Drivers/STM32H7xx_HAL_Driver/Src/stm32h7xx_ll_usb.c ****   *           + I/O operation functions
  11:Drivers/STM32H7xx_HAL_Driver/Src/stm32h7xx_ll_usb.c ****   *           + Peripheral Control functions
  12:Drivers/STM32H7xx_HAL_Driver/Src/stm32h7xx_ll_usb.c ****   *           + Peripheral State functions
  13:Drivers/STM32H7xx_HAL_Driver/Src/stm32h7xx_ll_usb.c ****   *
  14:Drivers/STM32H7xx_HAL_Driver/Src/stm32h7xx_ll_usb.c ****   @verbatim
  15:Drivers/STM32H7xx_HAL_Driver/Src/stm32h7xx_ll_usb.c ****   ==============================================================================
  16:Drivers/STM32H7xx_HAL_Driver/Src/stm32h7xx_ll_usb.c ****                     ##### How to use this driver #####
  17:Drivers/STM32H7xx_HAL_Driver/Src/stm32h7xx_ll_usb.c ****   ==============================================================================
  18:Drivers/STM32H7xx_HAL_Driver/Src/stm32h7xx_ll_usb.c ****     [..]
  19:Drivers/STM32H7xx_HAL_Driver/Src/stm32h7xx_ll_usb.c ****       (#) Fill parameters of Init structure in USB_OTG_CfgTypeDef structure.
  20:Drivers/STM32H7xx_HAL_Driver/Src/stm32h7xx_ll_usb.c **** 
  21:Drivers/STM32H7xx_HAL_Driver/Src/stm32h7xx_ll_usb.c ****       (#) Call USB_CoreInit() API to initialize the USB Core peripheral.
  22:Drivers/STM32H7xx_HAL_Driver/Src/stm32h7xx_ll_usb.c **** 
  23:Drivers/STM32H7xx_HAL_Driver/Src/stm32h7xx_ll_usb.c ****       (#) The upper HAL HCD/PCD driver will call the right routines for its internal processes.
  24:Drivers/STM32H7xx_HAL_Driver/Src/stm32h7xx_ll_usb.c **** 
  25:Drivers/STM32H7xx_HAL_Driver/Src/stm32h7xx_ll_usb.c ****   @endverbatim
  26:Drivers/STM32H7xx_HAL_Driver/Src/stm32h7xx_ll_usb.c ****   ******************************************************************************
  27:Drivers/STM32H7xx_HAL_Driver/Src/stm32h7xx_ll_usb.c ****   * @attention
  28:Drivers/STM32H7xx_HAL_Driver/Src/stm32h7xx_ll_usb.c ****   *
  29:Drivers/STM32H7xx_HAL_Driver/Src/stm32h7xx_ll_usb.c ****   * <h2><center>&copy; Copyright (c) 2017 STMicroelectronics.
  30:Drivers/STM32H7xx_HAL_Driver/Src/stm32h7xx_ll_usb.c ****   * All rights reserved.</center></h2>
  31:Drivers/STM32H7xx_HAL_Driver/Src/stm32h7xx_ll_usb.c ****   *
ARM GAS  C:\Users\xiaofei\AppData\Local\Temp\ccBH0Ic6.s 			page 2


  32:Drivers/STM32H7xx_HAL_Driver/Src/stm32h7xx_ll_usb.c ****   * This software component is licensed by ST under BSD 3-Clause license,
  33:Drivers/STM32H7xx_HAL_Driver/Src/stm32h7xx_ll_usb.c ****   * the "License"; You may not use this file except in compliance with the
  34:Drivers/STM32H7xx_HAL_Driver/Src/stm32h7xx_ll_usb.c ****   * License. You may obtain a copy of the License at:
  35:Drivers/STM32H7xx_HAL_Driver/Src/stm32h7xx_ll_usb.c ****   *                        opensource.org/licenses/BSD-3-Clause
  36:Drivers/STM32H7xx_HAL_Driver/Src/stm32h7xx_ll_usb.c ****   *
  37:Drivers/STM32H7xx_HAL_Driver/Src/stm32h7xx_ll_usb.c ****   ******************************************************************************
  38:Drivers/STM32H7xx_HAL_Driver/Src/stm32h7xx_ll_usb.c ****   */
  39:Drivers/STM32H7xx_HAL_Driver/Src/stm32h7xx_ll_usb.c **** 
  40:Drivers/STM32H7xx_HAL_Driver/Src/stm32h7xx_ll_usb.c **** /* Includes ------------------------------------------------------------------*/
  41:Drivers/STM32H7xx_HAL_Driver/Src/stm32h7xx_ll_usb.c **** #include "stm32h7xx_hal.h"
  42:Drivers/STM32H7xx_HAL_Driver/Src/stm32h7xx_ll_usb.c **** 
  43:Drivers/STM32H7xx_HAL_Driver/Src/stm32h7xx_ll_usb.c **** /** @addtogroup STM32H7xx_LL_USB_DRIVER
  44:Drivers/STM32H7xx_HAL_Driver/Src/stm32h7xx_ll_usb.c ****   * @{
  45:Drivers/STM32H7xx_HAL_Driver/Src/stm32h7xx_ll_usb.c ****   */
  46:Drivers/STM32H7xx_HAL_Driver/Src/stm32h7xx_ll_usb.c **** 
  47:Drivers/STM32H7xx_HAL_Driver/Src/stm32h7xx_ll_usb.c **** #if defined (HAL_PCD_MODULE_ENABLED) || defined (HAL_HCD_MODULE_ENABLED)
  48:Drivers/STM32H7xx_HAL_Driver/Src/stm32h7xx_ll_usb.c **** #if defined (USB_OTG_FS) || defined (USB_OTG_HS)
  49:Drivers/STM32H7xx_HAL_Driver/Src/stm32h7xx_ll_usb.c **** /* Private typedef -----------------------------------------------------------*/
  50:Drivers/STM32H7xx_HAL_Driver/Src/stm32h7xx_ll_usb.c **** /* Private define ------------------------------------------------------------*/
  51:Drivers/STM32H7xx_HAL_Driver/Src/stm32h7xx_ll_usb.c **** /* Private macro -------------------------------------------------------------*/
  52:Drivers/STM32H7xx_HAL_Driver/Src/stm32h7xx_ll_usb.c **** /* Private variables ---------------------------------------------------------*/
  53:Drivers/STM32H7xx_HAL_Driver/Src/stm32h7xx_ll_usb.c **** /* Private function prototypes -----------------------------------------------*/
  54:Drivers/STM32H7xx_HAL_Driver/Src/stm32h7xx_ll_usb.c **** /* Private functions ---------------------------------------------------------*/
  55:Drivers/STM32H7xx_HAL_Driver/Src/stm32h7xx_ll_usb.c **** #if defined (USB_OTG_FS) || defined (USB_OTG_HS)
  56:Drivers/STM32H7xx_HAL_Driver/Src/stm32h7xx_ll_usb.c **** static HAL_StatusTypeDef USB_CoreReset(USB_OTG_GlobalTypeDef *USBx);
  57:Drivers/STM32H7xx_HAL_Driver/Src/stm32h7xx_ll_usb.c **** 
  58:Drivers/STM32H7xx_HAL_Driver/Src/stm32h7xx_ll_usb.c **** /* Exported functions --------------------------------------------------------*/
  59:Drivers/STM32H7xx_HAL_Driver/Src/stm32h7xx_ll_usb.c **** /** @defgroup USB_LL_Exported_Functions USB Low Layer Exported Functions
  60:Drivers/STM32H7xx_HAL_Driver/Src/stm32h7xx_ll_usb.c ****   * @{
  61:Drivers/STM32H7xx_HAL_Driver/Src/stm32h7xx_ll_usb.c ****   */
  62:Drivers/STM32H7xx_HAL_Driver/Src/stm32h7xx_ll_usb.c **** 
  63:Drivers/STM32H7xx_HAL_Driver/Src/stm32h7xx_ll_usb.c **** /** @defgroup USB_LL_Exported_Functions_Group1 Initialization/de-initialization functions
  64:Drivers/STM32H7xx_HAL_Driver/Src/stm32h7xx_ll_usb.c ****  *  @brief    Initialization and Configuration functions
  65:Drivers/STM32H7xx_HAL_Driver/Src/stm32h7xx_ll_usb.c ****  *
  66:Drivers/STM32H7xx_HAL_Driver/Src/stm32h7xx_ll_usb.c **** @verbatim
  67:Drivers/STM32H7xx_HAL_Driver/Src/stm32h7xx_ll_usb.c ****  ===============================================================================
  68:Drivers/STM32H7xx_HAL_Driver/Src/stm32h7xx_ll_usb.c ****                       ##### Initialization/de-initialization functions #####
  69:Drivers/STM32H7xx_HAL_Driver/Src/stm32h7xx_ll_usb.c ****  ===============================================================================
  70:Drivers/STM32H7xx_HAL_Driver/Src/stm32h7xx_ll_usb.c **** 
  71:Drivers/STM32H7xx_HAL_Driver/Src/stm32h7xx_ll_usb.c **** @endverbatim
  72:Drivers/STM32H7xx_HAL_Driver/Src/stm32h7xx_ll_usb.c ****   * @{
  73:Drivers/STM32H7xx_HAL_Driver/Src/stm32h7xx_ll_usb.c ****   */
  74:Drivers/STM32H7xx_HAL_Driver/Src/stm32h7xx_ll_usb.c **** 
  75:Drivers/STM32H7xx_HAL_Driver/Src/stm32h7xx_ll_usb.c **** /**
  76:Drivers/STM32H7xx_HAL_Driver/Src/stm32h7xx_ll_usb.c ****   * @brief  Initializes the USB Core
  77:Drivers/STM32H7xx_HAL_Driver/Src/stm32h7xx_ll_usb.c ****   * @param  USBx USB Instance
  78:Drivers/STM32H7xx_HAL_Driver/Src/stm32h7xx_ll_usb.c ****   * @param  cfg pointer to a USB_OTG_CfgTypeDef structure that contains
  79:Drivers/STM32H7xx_HAL_Driver/Src/stm32h7xx_ll_usb.c ****   *         the configuration information for the specified USBx peripheral.
  80:Drivers/STM32H7xx_HAL_Driver/Src/stm32h7xx_ll_usb.c ****   * @retval HAL status
  81:Drivers/STM32H7xx_HAL_Driver/Src/stm32h7xx_ll_usb.c ****   */
  82:Drivers/STM32H7xx_HAL_Driver/Src/stm32h7xx_ll_usb.c **** HAL_StatusTypeDef USB_CoreInit(USB_OTG_GlobalTypeDef *USBx, USB_OTG_CfgTypeDef cfg)
  83:Drivers/STM32H7xx_HAL_Driver/Src/stm32h7xx_ll_usb.c **** {
  84:Drivers/STM32H7xx_HAL_Driver/Src/stm32h7xx_ll_usb.c ****   HAL_StatusTypeDef ret;
  85:Drivers/STM32H7xx_HAL_Driver/Src/stm32h7xx_ll_usb.c **** 
  86:Drivers/STM32H7xx_HAL_Driver/Src/stm32h7xx_ll_usb.c ****   if (cfg.phy_itface == USB_OTG_ULPI_PHY)
  87:Drivers/STM32H7xx_HAL_Driver/Src/stm32h7xx_ll_usb.c ****   {
  88:Drivers/STM32H7xx_HAL_Driver/Src/stm32h7xx_ll_usb.c ****     USBx->GCCFG &= ~(USB_OTG_GCCFG_PWRDWN);
ARM GAS  C:\Users\xiaofei\AppData\Local\Temp\ccBH0Ic6.s 			page 3


  89:Drivers/STM32H7xx_HAL_Driver/Src/stm32h7xx_ll_usb.c **** 
  90:Drivers/STM32H7xx_HAL_Driver/Src/stm32h7xx_ll_usb.c ****     /* Init The ULPI Interface */
  91:Drivers/STM32H7xx_HAL_Driver/Src/stm32h7xx_ll_usb.c ****     USBx->GUSBCFG &= ~(USB_OTG_GUSBCFG_TSDPS | USB_OTG_GUSBCFG_ULPIFSLS | USB_OTG_GUSBCFG_PHYSEL);
  92:Drivers/STM32H7xx_HAL_Driver/Src/stm32h7xx_ll_usb.c **** 
  93:Drivers/STM32H7xx_HAL_Driver/Src/stm32h7xx_ll_usb.c ****     /* Select vbus source */
  94:Drivers/STM32H7xx_HAL_Driver/Src/stm32h7xx_ll_usb.c ****     USBx->GUSBCFG &= ~(USB_OTG_GUSBCFG_ULPIEVBUSD | USB_OTG_GUSBCFG_ULPIEVBUSI);
  95:Drivers/STM32H7xx_HAL_Driver/Src/stm32h7xx_ll_usb.c ****     if (cfg.use_external_vbus == 1U)
  96:Drivers/STM32H7xx_HAL_Driver/Src/stm32h7xx_ll_usb.c ****     {
  97:Drivers/STM32H7xx_HAL_Driver/Src/stm32h7xx_ll_usb.c ****       USBx->GUSBCFG |= USB_OTG_GUSBCFG_ULPIEVBUSD;
  98:Drivers/STM32H7xx_HAL_Driver/Src/stm32h7xx_ll_usb.c ****     }
  99:Drivers/STM32H7xx_HAL_Driver/Src/stm32h7xx_ll_usb.c ****     /* Reset after a PHY select  */
 100:Drivers/STM32H7xx_HAL_Driver/Src/stm32h7xx_ll_usb.c ****     ret = USB_CoreReset(USBx);
 101:Drivers/STM32H7xx_HAL_Driver/Src/stm32h7xx_ll_usb.c ****   }
 102:Drivers/STM32H7xx_HAL_Driver/Src/stm32h7xx_ll_usb.c ****   else /* FS interface (embedded Phy) */
 103:Drivers/STM32H7xx_HAL_Driver/Src/stm32h7xx_ll_usb.c ****   {
 104:Drivers/STM32H7xx_HAL_Driver/Src/stm32h7xx_ll_usb.c ****     /* Select FS Embedded PHY */
 105:Drivers/STM32H7xx_HAL_Driver/Src/stm32h7xx_ll_usb.c ****     USBx->GUSBCFG |= USB_OTG_GUSBCFG_PHYSEL;
 106:Drivers/STM32H7xx_HAL_Driver/Src/stm32h7xx_ll_usb.c **** 
 107:Drivers/STM32H7xx_HAL_Driver/Src/stm32h7xx_ll_usb.c ****     /* Reset after a PHY select and set Host mode */
 108:Drivers/STM32H7xx_HAL_Driver/Src/stm32h7xx_ll_usb.c ****     ret = USB_CoreReset(USBx);
 109:Drivers/STM32H7xx_HAL_Driver/Src/stm32h7xx_ll_usb.c **** 
 110:Drivers/STM32H7xx_HAL_Driver/Src/stm32h7xx_ll_usb.c ****     if (cfg.battery_charging_enable == 0U)
 111:Drivers/STM32H7xx_HAL_Driver/Src/stm32h7xx_ll_usb.c ****     {
 112:Drivers/STM32H7xx_HAL_Driver/Src/stm32h7xx_ll_usb.c ****       /* Activate the USB Transceiver */
 113:Drivers/STM32H7xx_HAL_Driver/Src/stm32h7xx_ll_usb.c ****       USBx->GCCFG |= USB_OTG_GCCFG_PWRDWN;
 114:Drivers/STM32H7xx_HAL_Driver/Src/stm32h7xx_ll_usb.c ****     }
 115:Drivers/STM32H7xx_HAL_Driver/Src/stm32h7xx_ll_usb.c ****     else
 116:Drivers/STM32H7xx_HAL_Driver/Src/stm32h7xx_ll_usb.c ****     {
 117:Drivers/STM32H7xx_HAL_Driver/Src/stm32h7xx_ll_usb.c ****       /* Deactivate the USB Transceiver */
 118:Drivers/STM32H7xx_HAL_Driver/Src/stm32h7xx_ll_usb.c ****       USBx->GCCFG &= ~(USB_OTG_GCCFG_PWRDWN);
 119:Drivers/STM32H7xx_HAL_Driver/Src/stm32h7xx_ll_usb.c ****     }
 120:Drivers/STM32H7xx_HAL_Driver/Src/stm32h7xx_ll_usb.c ****   }
 121:Drivers/STM32H7xx_HAL_Driver/Src/stm32h7xx_ll_usb.c **** 
 122:Drivers/STM32H7xx_HAL_Driver/Src/stm32h7xx_ll_usb.c ****   if (cfg.dma_enable == 1U)
 123:Drivers/STM32H7xx_HAL_Driver/Src/stm32h7xx_ll_usb.c ****   {
 124:Drivers/STM32H7xx_HAL_Driver/Src/stm32h7xx_ll_usb.c ****     USBx->GAHBCFG |= USB_OTG_GAHBCFG_HBSTLEN_2;
 125:Drivers/STM32H7xx_HAL_Driver/Src/stm32h7xx_ll_usb.c ****     USBx->GAHBCFG |= USB_OTG_GAHBCFG_DMAEN;
 126:Drivers/STM32H7xx_HAL_Driver/Src/stm32h7xx_ll_usb.c ****   }
 127:Drivers/STM32H7xx_HAL_Driver/Src/stm32h7xx_ll_usb.c **** 
 128:Drivers/STM32H7xx_HAL_Driver/Src/stm32h7xx_ll_usb.c ****   return ret;
 129:Drivers/STM32H7xx_HAL_Driver/Src/stm32h7xx_ll_usb.c **** }
 130:Drivers/STM32H7xx_HAL_Driver/Src/stm32h7xx_ll_usb.c **** 
 131:Drivers/STM32H7xx_HAL_Driver/Src/stm32h7xx_ll_usb.c **** 
 132:Drivers/STM32H7xx_HAL_Driver/Src/stm32h7xx_ll_usb.c **** /**
 133:Drivers/STM32H7xx_HAL_Driver/Src/stm32h7xx_ll_usb.c ****   * @brief  Set the USB turnaround time
 134:Drivers/STM32H7xx_HAL_Driver/Src/stm32h7xx_ll_usb.c ****   * @param  USBx USB Instance
 135:Drivers/STM32H7xx_HAL_Driver/Src/stm32h7xx_ll_usb.c ****   * @param  hclk: AHB clock frequency
 136:Drivers/STM32H7xx_HAL_Driver/Src/stm32h7xx_ll_usb.c ****   * @retval USB turnaround time In PHY Clocks number
 137:Drivers/STM32H7xx_HAL_Driver/Src/stm32h7xx_ll_usb.c ****   */
 138:Drivers/STM32H7xx_HAL_Driver/Src/stm32h7xx_ll_usb.c **** HAL_StatusTypeDef USB_SetTurnaroundTime(USB_OTG_GlobalTypeDef *USBx,
 139:Drivers/STM32H7xx_HAL_Driver/Src/stm32h7xx_ll_usb.c ****                                         uint32_t hclk, uint8_t speed)
 140:Drivers/STM32H7xx_HAL_Driver/Src/stm32h7xx_ll_usb.c **** {
 141:Drivers/STM32H7xx_HAL_Driver/Src/stm32h7xx_ll_usb.c ****   uint32_t UsbTrd;
 142:Drivers/STM32H7xx_HAL_Driver/Src/stm32h7xx_ll_usb.c **** 
 143:Drivers/STM32H7xx_HAL_Driver/Src/stm32h7xx_ll_usb.c ****   /* The USBTRD is configured according to the tables below, depending on AHB frequency
 144:Drivers/STM32H7xx_HAL_Driver/Src/stm32h7xx_ll_usb.c ****   used by application. In the low AHB frequency range it is used to stretch enough the USB response
 145:Drivers/STM32H7xx_HAL_Driver/Src/stm32h7xx_ll_usb.c ****   time to IN tokens, the USB turnaround time, so to compensate for the longer AHB read access
ARM GAS  C:\Users\xiaofei\AppData\Local\Temp\ccBH0Ic6.s 			page 4


 146:Drivers/STM32H7xx_HAL_Driver/Src/stm32h7xx_ll_usb.c ****   latency to the Data FIFO */
 147:Drivers/STM32H7xx_HAL_Driver/Src/stm32h7xx_ll_usb.c ****   if (speed == USBD_FS_SPEED)
 148:Drivers/STM32H7xx_HAL_Driver/Src/stm32h7xx_ll_usb.c ****   {
 149:Drivers/STM32H7xx_HAL_Driver/Src/stm32h7xx_ll_usb.c ****     if ((hclk >= 14200000U) && (hclk < 15000000U))
 150:Drivers/STM32H7xx_HAL_Driver/Src/stm32h7xx_ll_usb.c ****     {
 151:Drivers/STM32H7xx_HAL_Driver/Src/stm32h7xx_ll_usb.c ****       /* hclk Clock Range between 14.2-15 MHz */
 152:Drivers/STM32H7xx_HAL_Driver/Src/stm32h7xx_ll_usb.c ****       UsbTrd = 0xFU;
 153:Drivers/STM32H7xx_HAL_Driver/Src/stm32h7xx_ll_usb.c ****     }
 154:Drivers/STM32H7xx_HAL_Driver/Src/stm32h7xx_ll_usb.c ****     else if ((hclk >= 15000000U) && (hclk < 16000000U))
 155:Drivers/STM32H7xx_HAL_Driver/Src/stm32h7xx_ll_usb.c ****     {
 156:Drivers/STM32H7xx_HAL_Driver/Src/stm32h7xx_ll_usb.c ****       /* hclk Clock Range between 15-16 MHz */
 157:Drivers/STM32H7xx_HAL_Driver/Src/stm32h7xx_ll_usb.c ****       UsbTrd = 0xEU;
 158:Drivers/STM32H7xx_HAL_Driver/Src/stm32h7xx_ll_usb.c ****     }
 159:Drivers/STM32H7xx_HAL_Driver/Src/stm32h7xx_ll_usb.c ****     else if ((hclk >= 16000000U) && (hclk < 17200000U))
 160:Drivers/STM32H7xx_HAL_Driver/Src/stm32h7xx_ll_usb.c ****     {
 161:Drivers/STM32H7xx_HAL_Driver/Src/stm32h7xx_ll_usb.c ****       /* hclk Clock Range between 16-17.2 MHz */
 162:Drivers/STM32H7xx_HAL_Driver/Src/stm32h7xx_ll_usb.c ****       UsbTrd = 0xDU;
 163:Drivers/STM32H7xx_HAL_Driver/Src/stm32h7xx_ll_usb.c ****     }
 164:Drivers/STM32H7xx_HAL_Driver/Src/stm32h7xx_ll_usb.c ****     else if ((hclk >= 17200000U) && (hclk < 18500000U))
 165:Drivers/STM32H7xx_HAL_Driver/Src/stm32h7xx_ll_usb.c ****     {
 166:Drivers/STM32H7xx_HAL_Driver/Src/stm32h7xx_ll_usb.c ****       /* hclk Clock Range between 17.2-18.5 MHz */
 167:Drivers/STM32H7xx_HAL_Driver/Src/stm32h7xx_ll_usb.c ****       UsbTrd = 0xCU;
 168:Drivers/STM32H7xx_HAL_Driver/Src/stm32h7xx_ll_usb.c ****     }
 169:Drivers/STM32H7xx_HAL_Driver/Src/stm32h7xx_ll_usb.c ****     else if ((hclk >= 18500000U) && (hclk < 20000000U))
 170:Drivers/STM32H7xx_HAL_Driver/Src/stm32h7xx_ll_usb.c ****     {
 171:Drivers/STM32H7xx_HAL_Driver/Src/stm32h7xx_ll_usb.c ****       /* hclk Clock Range between 18.5-20 MHz */
 172:Drivers/STM32H7xx_HAL_Driver/Src/stm32h7xx_ll_usb.c ****       UsbTrd = 0xBU;
 173:Drivers/STM32H7xx_HAL_Driver/Src/stm32h7xx_ll_usb.c ****     }
 174:Drivers/STM32H7xx_HAL_Driver/Src/stm32h7xx_ll_usb.c ****     else if ((hclk >= 20000000U) && (hclk < 21800000U))
 175:Drivers/STM32H7xx_HAL_Driver/Src/stm32h7xx_ll_usb.c ****     {
 176:Drivers/STM32H7xx_HAL_Driver/Src/stm32h7xx_ll_usb.c ****       /* hclk Clock Range between 20-21.8 MHz */
 177:Drivers/STM32H7xx_HAL_Driver/Src/stm32h7xx_ll_usb.c ****       UsbTrd = 0xAU;
 178:Drivers/STM32H7xx_HAL_Driver/Src/stm32h7xx_ll_usb.c ****     }
 179:Drivers/STM32H7xx_HAL_Driver/Src/stm32h7xx_ll_usb.c ****     else if ((hclk >= 21800000U) && (hclk < 24000000U))
 180:Drivers/STM32H7xx_HAL_Driver/Src/stm32h7xx_ll_usb.c ****     {
 181:Drivers/STM32H7xx_HAL_Driver/Src/stm32h7xx_ll_usb.c ****       /* hclk Clock Range between 21.8-24 MHz */
 182:Drivers/STM32H7xx_HAL_Driver/Src/stm32h7xx_ll_usb.c ****       UsbTrd = 0x9U;
 183:Drivers/STM32H7xx_HAL_Driver/Src/stm32h7xx_ll_usb.c ****     }
 184:Drivers/STM32H7xx_HAL_Driver/Src/stm32h7xx_ll_usb.c ****     else if ((hclk >= 24000000U) && (hclk < 27700000U))
 185:Drivers/STM32H7xx_HAL_Driver/Src/stm32h7xx_ll_usb.c ****     {
 186:Drivers/STM32H7xx_HAL_Driver/Src/stm32h7xx_ll_usb.c ****       /* hclk Clock Range between 24-27.7 MHz */
 187:Drivers/STM32H7xx_HAL_Driver/Src/stm32h7xx_ll_usb.c ****       UsbTrd = 0x8U;
 188:Drivers/STM32H7xx_HAL_Driver/Src/stm32h7xx_ll_usb.c ****     }
 189:Drivers/STM32H7xx_HAL_Driver/Src/stm32h7xx_ll_usb.c ****     else if ((hclk >= 27700000U) && (hclk < 32000000U))
 190:Drivers/STM32H7xx_HAL_Driver/Src/stm32h7xx_ll_usb.c ****     {
 191:Drivers/STM32H7xx_HAL_Driver/Src/stm32h7xx_ll_usb.c ****       /* hclk Clock Range between 27.7-32 MHz */
 192:Drivers/STM32H7xx_HAL_Driver/Src/stm32h7xx_ll_usb.c ****       UsbTrd = 0x7U;
 193:Drivers/STM32H7xx_HAL_Driver/Src/stm32h7xx_ll_usb.c ****     }
 194:Drivers/STM32H7xx_HAL_Driver/Src/stm32h7xx_ll_usb.c ****     else /* if(hclk >= 32000000) */
 195:Drivers/STM32H7xx_HAL_Driver/Src/stm32h7xx_ll_usb.c ****     {
 196:Drivers/STM32H7xx_HAL_Driver/Src/stm32h7xx_ll_usb.c ****       /* hclk Clock Range between 32-200 MHz */
 197:Drivers/STM32H7xx_HAL_Driver/Src/stm32h7xx_ll_usb.c ****       UsbTrd = 0x6U;
 198:Drivers/STM32H7xx_HAL_Driver/Src/stm32h7xx_ll_usb.c ****     }
 199:Drivers/STM32H7xx_HAL_Driver/Src/stm32h7xx_ll_usb.c ****   }
 200:Drivers/STM32H7xx_HAL_Driver/Src/stm32h7xx_ll_usb.c ****   else if (speed == USBD_HS_SPEED)
 201:Drivers/STM32H7xx_HAL_Driver/Src/stm32h7xx_ll_usb.c ****   {
 202:Drivers/STM32H7xx_HAL_Driver/Src/stm32h7xx_ll_usb.c ****     UsbTrd = USBD_HS_TRDT_VALUE;
ARM GAS  C:\Users\xiaofei\AppData\Local\Temp\ccBH0Ic6.s 			page 5


 203:Drivers/STM32H7xx_HAL_Driver/Src/stm32h7xx_ll_usb.c ****   }
 204:Drivers/STM32H7xx_HAL_Driver/Src/stm32h7xx_ll_usb.c ****   else
 205:Drivers/STM32H7xx_HAL_Driver/Src/stm32h7xx_ll_usb.c ****   {
 206:Drivers/STM32H7xx_HAL_Driver/Src/stm32h7xx_ll_usb.c ****     UsbTrd = USBD_DEFAULT_TRDT_VALUE;
 207:Drivers/STM32H7xx_HAL_Driver/Src/stm32h7xx_ll_usb.c ****   }
 208:Drivers/STM32H7xx_HAL_Driver/Src/stm32h7xx_ll_usb.c **** 
 209:Drivers/STM32H7xx_HAL_Driver/Src/stm32h7xx_ll_usb.c ****   USBx->GUSBCFG &= ~USB_OTG_GUSBCFG_TRDT;
 210:Drivers/STM32H7xx_HAL_Driver/Src/stm32h7xx_ll_usb.c ****   USBx->GUSBCFG |= (uint32_t)((UsbTrd << 10) & USB_OTG_GUSBCFG_TRDT);
 211:Drivers/STM32H7xx_HAL_Driver/Src/stm32h7xx_ll_usb.c **** 
 212:Drivers/STM32H7xx_HAL_Driver/Src/stm32h7xx_ll_usb.c ****   return HAL_OK;
 213:Drivers/STM32H7xx_HAL_Driver/Src/stm32h7xx_ll_usb.c **** }
 214:Drivers/STM32H7xx_HAL_Driver/Src/stm32h7xx_ll_usb.c **** 
 215:Drivers/STM32H7xx_HAL_Driver/Src/stm32h7xx_ll_usb.c **** /**
 216:Drivers/STM32H7xx_HAL_Driver/Src/stm32h7xx_ll_usb.c ****   * @brief  USB_EnableGlobalInt
 217:Drivers/STM32H7xx_HAL_Driver/Src/stm32h7xx_ll_usb.c ****   *         Enables the controller's Global Int in the AHB Config reg
 218:Drivers/STM32H7xx_HAL_Driver/Src/stm32h7xx_ll_usb.c ****   * @param  USBx  Selected device
 219:Drivers/STM32H7xx_HAL_Driver/Src/stm32h7xx_ll_usb.c ****   * @retval HAL status
 220:Drivers/STM32H7xx_HAL_Driver/Src/stm32h7xx_ll_usb.c ****   */
 221:Drivers/STM32H7xx_HAL_Driver/Src/stm32h7xx_ll_usb.c **** HAL_StatusTypeDef USB_EnableGlobalInt(USB_OTG_GlobalTypeDef *USBx)
 222:Drivers/STM32H7xx_HAL_Driver/Src/stm32h7xx_ll_usb.c **** {
 223:Drivers/STM32H7xx_HAL_Driver/Src/stm32h7xx_ll_usb.c ****   USBx->GAHBCFG |= USB_OTG_GAHBCFG_GINT;
 224:Drivers/STM32H7xx_HAL_Driver/Src/stm32h7xx_ll_usb.c ****   return HAL_OK;
 225:Drivers/STM32H7xx_HAL_Driver/Src/stm32h7xx_ll_usb.c **** }
 226:Drivers/STM32H7xx_HAL_Driver/Src/stm32h7xx_ll_usb.c **** 
 227:Drivers/STM32H7xx_HAL_Driver/Src/stm32h7xx_ll_usb.c **** /**
 228:Drivers/STM32H7xx_HAL_Driver/Src/stm32h7xx_ll_usb.c ****   * @brief  USB_DisableGlobalInt
 229:Drivers/STM32H7xx_HAL_Driver/Src/stm32h7xx_ll_usb.c ****   *         Disable the controller's Global Int in the AHB Config reg
 230:Drivers/STM32H7xx_HAL_Driver/Src/stm32h7xx_ll_usb.c ****   * @param  USBx  Selected device
 231:Drivers/STM32H7xx_HAL_Driver/Src/stm32h7xx_ll_usb.c ****   * @retval HAL status
 232:Drivers/STM32H7xx_HAL_Driver/Src/stm32h7xx_ll_usb.c **** */
 233:Drivers/STM32H7xx_HAL_Driver/Src/stm32h7xx_ll_usb.c **** HAL_StatusTypeDef USB_DisableGlobalInt(USB_OTG_GlobalTypeDef *USBx)
 234:Drivers/STM32H7xx_HAL_Driver/Src/stm32h7xx_ll_usb.c **** {
 235:Drivers/STM32H7xx_HAL_Driver/Src/stm32h7xx_ll_usb.c ****   USBx->GAHBCFG &= ~USB_OTG_GAHBCFG_GINT;
 236:Drivers/STM32H7xx_HAL_Driver/Src/stm32h7xx_ll_usb.c ****   return HAL_OK;
 237:Drivers/STM32H7xx_HAL_Driver/Src/stm32h7xx_ll_usb.c **** }
 238:Drivers/STM32H7xx_HAL_Driver/Src/stm32h7xx_ll_usb.c **** 
 239:Drivers/STM32H7xx_HAL_Driver/Src/stm32h7xx_ll_usb.c **** /**
 240:Drivers/STM32H7xx_HAL_Driver/Src/stm32h7xx_ll_usb.c ****   * @brief  USB_SetCurrentMode : Set functional mode
 241:Drivers/STM32H7xx_HAL_Driver/Src/stm32h7xx_ll_usb.c ****   * @param  USBx  Selected device
 242:Drivers/STM32H7xx_HAL_Driver/Src/stm32h7xx_ll_usb.c ****   * @param  mode   current core mode
 243:Drivers/STM32H7xx_HAL_Driver/Src/stm32h7xx_ll_usb.c ****   *          This parameter can be one of these values:
 244:Drivers/STM32H7xx_HAL_Driver/Src/stm32h7xx_ll_usb.c ****   *            @arg USB_DEVICE_MODE: Peripheral mode
 245:Drivers/STM32H7xx_HAL_Driver/Src/stm32h7xx_ll_usb.c ****   *            @arg USB_HOST_MODE: Host mode
 246:Drivers/STM32H7xx_HAL_Driver/Src/stm32h7xx_ll_usb.c ****   *            @arg USB_DRD_MODE: Dual Role Device mode
 247:Drivers/STM32H7xx_HAL_Driver/Src/stm32h7xx_ll_usb.c ****   * @retval HAL status
 248:Drivers/STM32H7xx_HAL_Driver/Src/stm32h7xx_ll_usb.c ****   */
 249:Drivers/STM32H7xx_HAL_Driver/Src/stm32h7xx_ll_usb.c **** HAL_StatusTypeDef USB_SetCurrentMode(USB_OTG_GlobalTypeDef *USBx, USB_OTG_ModeTypeDef mode)
 250:Drivers/STM32H7xx_HAL_Driver/Src/stm32h7xx_ll_usb.c **** {
 251:Drivers/STM32H7xx_HAL_Driver/Src/stm32h7xx_ll_usb.c ****   USBx->GUSBCFG &= ~(USB_OTG_GUSBCFG_FHMOD | USB_OTG_GUSBCFG_FDMOD);
 252:Drivers/STM32H7xx_HAL_Driver/Src/stm32h7xx_ll_usb.c **** 
 253:Drivers/STM32H7xx_HAL_Driver/Src/stm32h7xx_ll_usb.c ****   if (mode == USB_HOST_MODE)
 254:Drivers/STM32H7xx_HAL_Driver/Src/stm32h7xx_ll_usb.c ****   {
 255:Drivers/STM32H7xx_HAL_Driver/Src/stm32h7xx_ll_usb.c ****     USBx->GUSBCFG |= USB_OTG_GUSBCFG_FHMOD;
 256:Drivers/STM32H7xx_HAL_Driver/Src/stm32h7xx_ll_usb.c ****   }
 257:Drivers/STM32H7xx_HAL_Driver/Src/stm32h7xx_ll_usb.c ****   else if (mode == USB_DEVICE_MODE)
 258:Drivers/STM32H7xx_HAL_Driver/Src/stm32h7xx_ll_usb.c ****   {
 259:Drivers/STM32H7xx_HAL_Driver/Src/stm32h7xx_ll_usb.c ****     USBx->GUSBCFG |= USB_OTG_GUSBCFG_FDMOD;
ARM GAS  C:\Users\xiaofei\AppData\Local\Temp\ccBH0Ic6.s 			page 6


 260:Drivers/STM32H7xx_HAL_Driver/Src/stm32h7xx_ll_usb.c ****   }
 261:Drivers/STM32H7xx_HAL_Driver/Src/stm32h7xx_ll_usb.c ****   else
 262:Drivers/STM32H7xx_HAL_Driver/Src/stm32h7xx_ll_usb.c ****   {
 263:Drivers/STM32H7xx_HAL_Driver/Src/stm32h7xx_ll_usb.c ****     return HAL_ERROR;
 264:Drivers/STM32H7xx_HAL_Driver/Src/stm32h7xx_ll_usb.c ****   }
 265:Drivers/STM32H7xx_HAL_Driver/Src/stm32h7xx_ll_usb.c ****   HAL_Delay(50U);
 266:Drivers/STM32H7xx_HAL_Driver/Src/stm32h7xx_ll_usb.c **** 
 267:Drivers/STM32H7xx_HAL_Driver/Src/stm32h7xx_ll_usb.c ****   return HAL_OK;
 268:Drivers/STM32H7xx_HAL_Driver/Src/stm32h7xx_ll_usb.c **** }
 269:Drivers/STM32H7xx_HAL_Driver/Src/stm32h7xx_ll_usb.c **** 
 270:Drivers/STM32H7xx_HAL_Driver/Src/stm32h7xx_ll_usb.c **** /**
 271:Drivers/STM32H7xx_HAL_Driver/Src/stm32h7xx_ll_usb.c ****   * @brief  USB_DevInit : Initializes the USB_OTG controller registers
 272:Drivers/STM32H7xx_HAL_Driver/Src/stm32h7xx_ll_usb.c ****   *         for device mode
 273:Drivers/STM32H7xx_HAL_Driver/Src/stm32h7xx_ll_usb.c ****   * @param  USBx  Selected device
 274:Drivers/STM32H7xx_HAL_Driver/Src/stm32h7xx_ll_usb.c ****   * @param  cfg   pointer to a USB_OTG_CfgTypeDef structure that contains
 275:Drivers/STM32H7xx_HAL_Driver/Src/stm32h7xx_ll_usb.c ****   *         the configuration information for the specified USBx peripheral.
 276:Drivers/STM32H7xx_HAL_Driver/Src/stm32h7xx_ll_usb.c ****   * @retval HAL status
 277:Drivers/STM32H7xx_HAL_Driver/Src/stm32h7xx_ll_usb.c ****   */
 278:Drivers/STM32H7xx_HAL_Driver/Src/stm32h7xx_ll_usb.c **** HAL_StatusTypeDef USB_DevInit(USB_OTG_GlobalTypeDef *USBx, USB_OTG_CfgTypeDef cfg)
 279:Drivers/STM32H7xx_HAL_Driver/Src/stm32h7xx_ll_usb.c **** {
 280:Drivers/STM32H7xx_HAL_Driver/Src/stm32h7xx_ll_usb.c ****   HAL_StatusTypeDef ret = HAL_OK;
 281:Drivers/STM32H7xx_HAL_Driver/Src/stm32h7xx_ll_usb.c ****   uint32_t USBx_BASE = (uint32_t)USBx;
 282:Drivers/STM32H7xx_HAL_Driver/Src/stm32h7xx_ll_usb.c ****   uint32_t i;
 283:Drivers/STM32H7xx_HAL_Driver/Src/stm32h7xx_ll_usb.c **** 
 284:Drivers/STM32H7xx_HAL_Driver/Src/stm32h7xx_ll_usb.c ****   for (i = 0U; i < 15U; i++)
 285:Drivers/STM32H7xx_HAL_Driver/Src/stm32h7xx_ll_usb.c ****   {
 286:Drivers/STM32H7xx_HAL_Driver/Src/stm32h7xx_ll_usb.c ****     USBx->DIEPTXF[i] = 0U;
 287:Drivers/STM32H7xx_HAL_Driver/Src/stm32h7xx_ll_usb.c ****   }
 288:Drivers/STM32H7xx_HAL_Driver/Src/stm32h7xx_ll_usb.c **** 
 289:Drivers/STM32H7xx_HAL_Driver/Src/stm32h7xx_ll_usb.c ****   /* VBUS Sensing setup */
 290:Drivers/STM32H7xx_HAL_Driver/Src/stm32h7xx_ll_usb.c ****   if (cfg.vbus_sensing_enable == 0U)
 291:Drivers/STM32H7xx_HAL_Driver/Src/stm32h7xx_ll_usb.c ****   {
 292:Drivers/STM32H7xx_HAL_Driver/Src/stm32h7xx_ll_usb.c ****     USBx_DEVICE->DCTL |= USB_OTG_DCTL_SDIS;
 293:Drivers/STM32H7xx_HAL_Driver/Src/stm32h7xx_ll_usb.c **** 
 294:Drivers/STM32H7xx_HAL_Driver/Src/stm32h7xx_ll_usb.c ****     /* Deactivate VBUS Sensing B */
 295:Drivers/STM32H7xx_HAL_Driver/Src/stm32h7xx_ll_usb.c ****     USBx->GCCFG &= ~USB_OTG_GCCFG_VBDEN;
 296:Drivers/STM32H7xx_HAL_Driver/Src/stm32h7xx_ll_usb.c **** 
 297:Drivers/STM32H7xx_HAL_Driver/Src/stm32h7xx_ll_usb.c ****     /* B-peripheral session valid override enable */
 298:Drivers/STM32H7xx_HAL_Driver/Src/stm32h7xx_ll_usb.c ****     USBx->GOTGCTL |= USB_OTG_GOTGCTL_BVALOEN;
 299:Drivers/STM32H7xx_HAL_Driver/Src/stm32h7xx_ll_usb.c ****     USBx->GOTGCTL |= USB_OTG_GOTGCTL_BVALOVAL;
 300:Drivers/STM32H7xx_HAL_Driver/Src/stm32h7xx_ll_usb.c ****   }
 301:Drivers/STM32H7xx_HAL_Driver/Src/stm32h7xx_ll_usb.c ****   else
 302:Drivers/STM32H7xx_HAL_Driver/Src/stm32h7xx_ll_usb.c ****   {
 303:Drivers/STM32H7xx_HAL_Driver/Src/stm32h7xx_ll_usb.c ****     /* Enable HW VBUS sensing */
 304:Drivers/STM32H7xx_HAL_Driver/Src/stm32h7xx_ll_usb.c ****     USBx->GCCFG |= USB_OTG_GCCFG_VBDEN;
 305:Drivers/STM32H7xx_HAL_Driver/Src/stm32h7xx_ll_usb.c ****   }
 306:Drivers/STM32H7xx_HAL_Driver/Src/stm32h7xx_ll_usb.c **** 
 307:Drivers/STM32H7xx_HAL_Driver/Src/stm32h7xx_ll_usb.c ****   /* Restart the Phy Clock */
 308:Drivers/STM32H7xx_HAL_Driver/Src/stm32h7xx_ll_usb.c ****   USBx_PCGCCTL = 0U;
 309:Drivers/STM32H7xx_HAL_Driver/Src/stm32h7xx_ll_usb.c **** 
 310:Drivers/STM32H7xx_HAL_Driver/Src/stm32h7xx_ll_usb.c ****   /* Device mode configuration */
 311:Drivers/STM32H7xx_HAL_Driver/Src/stm32h7xx_ll_usb.c ****   USBx_DEVICE->DCFG |= DCFG_FRAME_INTERVAL_80;
 312:Drivers/STM32H7xx_HAL_Driver/Src/stm32h7xx_ll_usb.c **** 
 313:Drivers/STM32H7xx_HAL_Driver/Src/stm32h7xx_ll_usb.c ****   if (cfg.phy_itface == USB_OTG_ULPI_PHY)
 314:Drivers/STM32H7xx_HAL_Driver/Src/stm32h7xx_ll_usb.c ****   {
 315:Drivers/STM32H7xx_HAL_Driver/Src/stm32h7xx_ll_usb.c ****     if (cfg.speed == USBD_HS_SPEED)
 316:Drivers/STM32H7xx_HAL_Driver/Src/stm32h7xx_ll_usb.c ****     {
ARM GAS  C:\Users\xiaofei\AppData\Local\Temp\ccBH0Ic6.s 			page 7


 317:Drivers/STM32H7xx_HAL_Driver/Src/stm32h7xx_ll_usb.c ****       /* Set Core speed to High speed mode */
 318:Drivers/STM32H7xx_HAL_Driver/Src/stm32h7xx_ll_usb.c ****       (void)USB_SetDevSpeed(USBx, USB_OTG_SPEED_HIGH);
 319:Drivers/STM32H7xx_HAL_Driver/Src/stm32h7xx_ll_usb.c ****     }
 320:Drivers/STM32H7xx_HAL_Driver/Src/stm32h7xx_ll_usb.c ****     else
 321:Drivers/STM32H7xx_HAL_Driver/Src/stm32h7xx_ll_usb.c ****     {
 322:Drivers/STM32H7xx_HAL_Driver/Src/stm32h7xx_ll_usb.c ****       /* Set Core speed to Full speed mode */
 323:Drivers/STM32H7xx_HAL_Driver/Src/stm32h7xx_ll_usb.c ****       (void)USB_SetDevSpeed(USBx, USB_OTG_SPEED_HIGH_IN_FULL);
 324:Drivers/STM32H7xx_HAL_Driver/Src/stm32h7xx_ll_usb.c ****     }
 325:Drivers/STM32H7xx_HAL_Driver/Src/stm32h7xx_ll_usb.c ****   }
 326:Drivers/STM32H7xx_HAL_Driver/Src/stm32h7xx_ll_usb.c ****   else
 327:Drivers/STM32H7xx_HAL_Driver/Src/stm32h7xx_ll_usb.c ****   {
 328:Drivers/STM32H7xx_HAL_Driver/Src/stm32h7xx_ll_usb.c ****     /* Set Core speed to Full speed mode */
 329:Drivers/STM32H7xx_HAL_Driver/Src/stm32h7xx_ll_usb.c ****     (void)USB_SetDevSpeed(USBx, USB_OTG_SPEED_FULL);
 330:Drivers/STM32H7xx_HAL_Driver/Src/stm32h7xx_ll_usb.c ****   }
 331:Drivers/STM32H7xx_HAL_Driver/Src/stm32h7xx_ll_usb.c **** 
 332:Drivers/STM32H7xx_HAL_Driver/Src/stm32h7xx_ll_usb.c ****   /* Flush the FIFOs */
 333:Drivers/STM32H7xx_HAL_Driver/Src/stm32h7xx_ll_usb.c ****   if (USB_FlushTxFifo(USBx, 0x10U) != HAL_OK) /* all Tx FIFOs */
 334:Drivers/STM32H7xx_HAL_Driver/Src/stm32h7xx_ll_usb.c ****   {
 335:Drivers/STM32H7xx_HAL_Driver/Src/stm32h7xx_ll_usb.c ****     ret = HAL_ERROR;
 336:Drivers/STM32H7xx_HAL_Driver/Src/stm32h7xx_ll_usb.c ****   }
 337:Drivers/STM32H7xx_HAL_Driver/Src/stm32h7xx_ll_usb.c **** 
 338:Drivers/STM32H7xx_HAL_Driver/Src/stm32h7xx_ll_usb.c ****   if (USB_FlushRxFifo(USBx) != HAL_OK)
 339:Drivers/STM32H7xx_HAL_Driver/Src/stm32h7xx_ll_usb.c ****   {
 340:Drivers/STM32H7xx_HAL_Driver/Src/stm32h7xx_ll_usb.c ****     ret = HAL_ERROR;
 341:Drivers/STM32H7xx_HAL_Driver/Src/stm32h7xx_ll_usb.c ****   }
 342:Drivers/STM32H7xx_HAL_Driver/Src/stm32h7xx_ll_usb.c **** 
 343:Drivers/STM32H7xx_HAL_Driver/Src/stm32h7xx_ll_usb.c ****   /* Clear all pending Device Interrupts */
 344:Drivers/STM32H7xx_HAL_Driver/Src/stm32h7xx_ll_usb.c ****   USBx_DEVICE->DIEPMSK = 0U;
 345:Drivers/STM32H7xx_HAL_Driver/Src/stm32h7xx_ll_usb.c ****   USBx_DEVICE->DOEPMSK = 0U;
 346:Drivers/STM32H7xx_HAL_Driver/Src/stm32h7xx_ll_usb.c ****   USBx_DEVICE->DAINTMSK = 0U;
 347:Drivers/STM32H7xx_HAL_Driver/Src/stm32h7xx_ll_usb.c **** 
 348:Drivers/STM32H7xx_HAL_Driver/Src/stm32h7xx_ll_usb.c ****   for (i = 0U; i < cfg.dev_endpoints; i++)
 349:Drivers/STM32H7xx_HAL_Driver/Src/stm32h7xx_ll_usb.c ****   {
 350:Drivers/STM32H7xx_HAL_Driver/Src/stm32h7xx_ll_usb.c ****     if ((USBx_INEP(i)->DIEPCTL & USB_OTG_DIEPCTL_EPENA) == USB_OTG_DIEPCTL_EPENA)
 351:Drivers/STM32H7xx_HAL_Driver/Src/stm32h7xx_ll_usb.c ****     {
 352:Drivers/STM32H7xx_HAL_Driver/Src/stm32h7xx_ll_usb.c ****       if (i == 0U)
 353:Drivers/STM32H7xx_HAL_Driver/Src/stm32h7xx_ll_usb.c ****       {
 354:Drivers/STM32H7xx_HAL_Driver/Src/stm32h7xx_ll_usb.c ****         USBx_INEP(i)->DIEPCTL = USB_OTG_DIEPCTL_SNAK;
 355:Drivers/STM32H7xx_HAL_Driver/Src/stm32h7xx_ll_usb.c ****       }
 356:Drivers/STM32H7xx_HAL_Driver/Src/stm32h7xx_ll_usb.c ****       else
 357:Drivers/STM32H7xx_HAL_Driver/Src/stm32h7xx_ll_usb.c ****       {
 358:Drivers/STM32H7xx_HAL_Driver/Src/stm32h7xx_ll_usb.c ****         USBx_INEP(i)->DIEPCTL = USB_OTG_DIEPCTL_EPDIS | USB_OTG_DIEPCTL_SNAK;
 359:Drivers/STM32H7xx_HAL_Driver/Src/stm32h7xx_ll_usb.c ****       }
 360:Drivers/STM32H7xx_HAL_Driver/Src/stm32h7xx_ll_usb.c ****     }
 361:Drivers/STM32H7xx_HAL_Driver/Src/stm32h7xx_ll_usb.c ****     else
 362:Drivers/STM32H7xx_HAL_Driver/Src/stm32h7xx_ll_usb.c ****     {
 363:Drivers/STM32H7xx_HAL_Driver/Src/stm32h7xx_ll_usb.c ****       USBx_INEP(i)->DIEPCTL = 0U;
 364:Drivers/STM32H7xx_HAL_Driver/Src/stm32h7xx_ll_usb.c ****     }
 365:Drivers/STM32H7xx_HAL_Driver/Src/stm32h7xx_ll_usb.c **** 
 366:Drivers/STM32H7xx_HAL_Driver/Src/stm32h7xx_ll_usb.c ****     USBx_INEP(i)->DIEPTSIZ = 0U;
 367:Drivers/STM32H7xx_HAL_Driver/Src/stm32h7xx_ll_usb.c ****     USBx_INEP(i)->DIEPINT  = 0xFB7FU;
 368:Drivers/STM32H7xx_HAL_Driver/Src/stm32h7xx_ll_usb.c ****   }
 369:Drivers/STM32H7xx_HAL_Driver/Src/stm32h7xx_ll_usb.c **** 
 370:Drivers/STM32H7xx_HAL_Driver/Src/stm32h7xx_ll_usb.c ****   for (i = 0U; i < cfg.dev_endpoints; i++)
 371:Drivers/STM32H7xx_HAL_Driver/Src/stm32h7xx_ll_usb.c ****   {
 372:Drivers/STM32H7xx_HAL_Driver/Src/stm32h7xx_ll_usb.c ****     if ((USBx_OUTEP(i)->DOEPCTL & USB_OTG_DOEPCTL_EPENA) == USB_OTG_DOEPCTL_EPENA)
 373:Drivers/STM32H7xx_HAL_Driver/Src/stm32h7xx_ll_usb.c ****     {
ARM GAS  C:\Users\xiaofei\AppData\Local\Temp\ccBH0Ic6.s 			page 8


 374:Drivers/STM32H7xx_HAL_Driver/Src/stm32h7xx_ll_usb.c ****       if (i == 0U)
 375:Drivers/STM32H7xx_HAL_Driver/Src/stm32h7xx_ll_usb.c ****       {
 376:Drivers/STM32H7xx_HAL_Driver/Src/stm32h7xx_ll_usb.c ****         USBx_OUTEP(i)->DOEPCTL = USB_OTG_DOEPCTL_SNAK;
 377:Drivers/STM32H7xx_HAL_Driver/Src/stm32h7xx_ll_usb.c ****       }
 378:Drivers/STM32H7xx_HAL_Driver/Src/stm32h7xx_ll_usb.c ****       else
 379:Drivers/STM32H7xx_HAL_Driver/Src/stm32h7xx_ll_usb.c ****       {
 380:Drivers/STM32H7xx_HAL_Driver/Src/stm32h7xx_ll_usb.c ****         USBx_OUTEP(i)->DOEPCTL = USB_OTG_DOEPCTL_EPDIS | USB_OTG_DOEPCTL_SNAK;
 381:Drivers/STM32H7xx_HAL_Driver/Src/stm32h7xx_ll_usb.c ****       }
 382:Drivers/STM32H7xx_HAL_Driver/Src/stm32h7xx_ll_usb.c ****     }
 383:Drivers/STM32H7xx_HAL_Driver/Src/stm32h7xx_ll_usb.c ****     else
 384:Drivers/STM32H7xx_HAL_Driver/Src/stm32h7xx_ll_usb.c ****     {
 385:Drivers/STM32H7xx_HAL_Driver/Src/stm32h7xx_ll_usb.c ****       USBx_OUTEP(i)->DOEPCTL = 0U;
 386:Drivers/STM32H7xx_HAL_Driver/Src/stm32h7xx_ll_usb.c ****     }
 387:Drivers/STM32H7xx_HAL_Driver/Src/stm32h7xx_ll_usb.c **** 
 388:Drivers/STM32H7xx_HAL_Driver/Src/stm32h7xx_ll_usb.c ****     USBx_OUTEP(i)->DOEPTSIZ = 0U;
 389:Drivers/STM32H7xx_HAL_Driver/Src/stm32h7xx_ll_usb.c ****     USBx_OUTEP(i)->DOEPINT  = 0xFB7FU;
 390:Drivers/STM32H7xx_HAL_Driver/Src/stm32h7xx_ll_usb.c ****   }
 391:Drivers/STM32H7xx_HAL_Driver/Src/stm32h7xx_ll_usb.c **** 
 392:Drivers/STM32H7xx_HAL_Driver/Src/stm32h7xx_ll_usb.c ****   USBx_DEVICE->DIEPMSK &= ~(USB_OTG_DIEPMSK_TXFURM);
 393:Drivers/STM32H7xx_HAL_Driver/Src/stm32h7xx_ll_usb.c **** 
 394:Drivers/STM32H7xx_HAL_Driver/Src/stm32h7xx_ll_usb.c ****   /* Disable all interrupts. */
 395:Drivers/STM32H7xx_HAL_Driver/Src/stm32h7xx_ll_usb.c ****   USBx->GINTMSK = 0U;
 396:Drivers/STM32H7xx_HAL_Driver/Src/stm32h7xx_ll_usb.c **** 
 397:Drivers/STM32H7xx_HAL_Driver/Src/stm32h7xx_ll_usb.c ****   /* Clear any pending interrupts */
 398:Drivers/STM32H7xx_HAL_Driver/Src/stm32h7xx_ll_usb.c ****   USBx->GINTSTS = 0xBFFFFFFFU;
 399:Drivers/STM32H7xx_HAL_Driver/Src/stm32h7xx_ll_usb.c **** 
 400:Drivers/STM32H7xx_HAL_Driver/Src/stm32h7xx_ll_usb.c ****   /* Enable the common interrupts */
 401:Drivers/STM32H7xx_HAL_Driver/Src/stm32h7xx_ll_usb.c ****   if (cfg.dma_enable == 0U)
 402:Drivers/STM32H7xx_HAL_Driver/Src/stm32h7xx_ll_usb.c ****   {
 403:Drivers/STM32H7xx_HAL_Driver/Src/stm32h7xx_ll_usb.c ****     USBx->GINTMSK |= USB_OTG_GINTMSK_RXFLVLM;
 404:Drivers/STM32H7xx_HAL_Driver/Src/stm32h7xx_ll_usb.c ****   }
 405:Drivers/STM32H7xx_HAL_Driver/Src/stm32h7xx_ll_usb.c **** 
 406:Drivers/STM32H7xx_HAL_Driver/Src/stm32h7xx_ll_usb.c ****   /* Enable interrupts matching to the Device mode ONLY */
 407:Drivers/STM32H7xx_HAL_Driver/Src/stm32h7xx_ll_usb.c ****   USBx->GINTMSK |= USB_OTG_GINTMSK_USBSUSPM | USB_OTG_GINTMSK_USBRST |
 408:Drivers/STM32H7xx_HAL_Driver/Src/stm32h7xx_ll_usb.c ****                    USB_OTG_GINTMSK_ENUMDNEM | USB_OTG_GINTMSK_IEPINT |
 409:Drivers/STM32H7xx_HAL_Driver/Src/stm32h7xx_ll_usb.c ****                    USB_OTG_GINTMSK_OEPINT   | USB_OTG_GINTMSK_IISOIXFRM |
 410:Drivers/STM32H7xx_HAL_Driver/Src/stm32h7xx_ll_usb.c ****                    USB_OTG_GINTMSK_PXFRM_IISOOXFRM | USB_OTG_GINTMSK_WUIM;
 411:Drivers/STM32H7xx_HAL_Driver/Src/stm32h7xx_ll_usb.c **** 
 412:Drivers/STM32H7xx_HAL_Driver/Src/stm32h7xx_ll_usb.c ****   if (cfg.Sof_enable != 0U)
 413:Drivers/STM32H7xx_HAL_Driver/Src/stm32h7xx_ll_usb.c ****   {
 414:Drivers/STM32H7xx_HAL_Driver/Src/stm32h7xx_ll_usb.c ****     USBx->GINTMSK |= USB_OTG_GINTMSK_SOFM;
 415:Drivers/STM32H7xx_HAL_Driver/Src/stm32h7xx_ll_usb.c ****   }
 416:Drivers/STM32H7xx_HAL_Driver/Src/stm32h7xx_ll_usb.c **** 
 417:Drivers/STM32H7xx_HAL_Driver/Src/stm32h7xx_ll_usb.c ****   if (cfg.vbus_sensing_enable == 1U)
 418:Drivers/STM32H7xx_HAL_Driver/Src/stm32h7xx_ll_usb.c ****   {
 419:Drivers/STM32H7xx_HAL_Driver/Src/stm32h7xx_ll_usb.c ****     USBx->GINTMSK |= (USB_OTG_GINTMSK_SRQIM | USB_OTG_GINTMSK_OTGINT);
 420:Drivers/STM32H7xx_HAL_Driver/Src/stm32h7xx_ll_usb.c ****   }
 421:Drivers/STM32H7xx_HAL_Driver/Src/stm32h7xx_ll_usb.c **** 
 422:Drivers/STM32H7xx_HAL_Driver/Src/stm32h7xx_ll_usb.c ****   return ret;
 423:Drivers/STM32H7xx_HAL_Driver/Src/stm32h7xx_ll_usb.c **** }
 424:Drivers/STM32H7xx_HAL_Driver/Src/stm32h7xx_ll_usb.c **** 
 425:Drivers/STM32H7xx_HAL_Driver/Src/stm32h7xx_ll_usb.c **** /**
 426:Drivers/STM32H7xx_HAL_Driver/Src/stm32h7xx_ll_usb.c ****   * @brief  USB_OTG_FlushTxFifo : Flush a Tx FIFO
 427:Drivers/STM32H7xx_HAL_Driver/Src/stm32h7xx_ll_usb.c ****   * @param  USBx  Selected device
 428:Drivers/STM32H7xx_HAL_Driver/Src/stm32h7xx_ll_usb.c ****   * @param  num  FIFO number
 429:Drivers/STM32H7xx_HAL_Driver/Src/stm32h7xx_ll_usb.c ****   *         This parameter can be a value from 1 to 15
 430:Drivers/STM32H7xx_HAL_Driver/Src/stm32h7xx_ll_usb.c ****             15 means Flush all Tx FIFOs
ARM GAS  C:\Users\xiaofei\AppData\Local\Temp\ccBH0Ic6.s 			page 9


 431:Drivers/STM32H7xx_HAL_Driver/Src/stm32h7xx_ll_usb.c ****   * @retval HAL status
 432:Drivers/STM32H7xx_HAL_Driver/Src/stm32h7xx_ll_usb.c ****   */
 433:Drivers/STM32H7xx_HAL_Driver/Src/stm32h7xx_ll_usb.c **** HAL_StatusTypeDef USB_FlushTxFifo(USB_OTG_GlobalTypeDef *USBx, uint32_t num)
 434:Drivers/STM32H7xx_HAL_Driver/Src/stm32h7xx_ll_usb.c **** {
 435:Drivers/STM32H7xx_HAL_Driver/Src/stm32h7xx_ll_usb.c ****   uint32_t count = 0U;
 436:Drivers/STM32H7xx_HAL_Driver/Src/stm32h7xx_ll_usb.c **** 
 437:Drivers/STM32H7xx_HAL_Driver/Src/stm32h7xx_ll_usb.c ****   USBx->GRSTCTL = (USB_OTG_GRSTCTL_TXFFLSH | (num << 6));
 438:Drivers/STM32H7xx_HAL_Driver/Src/stm32h7xx_ll_usb.c **** 
 439:Drivers/STM32H7xx_HAL_Driver/Src/stm32h7xx_ll_usb.c ****   do
 440:Drivers/STM32H7xx_HAL_Driver/Src/stm32h7xx_ll_usb.c ****   {
 441:Drivers/STM32H7xx_HAL_Driver/Src/stm32h7xx_ll_usb.c ****     if (++count > 200000U)
 442:Drivers/STM32H7xx_HAL_Driver/Src/stm32h7xx_ll_usb.c ****     {
 443:Drivers/STM32H7xx_HAL_Driver/Src/stm32h7xx_ll_usb.c ****       return HAL_TIMEOUT;
 444:Drivers/STM32H7xx_HAL_Driver/Src/stm32h7xx_ll_usb.c ****     }
 445:Drivers/STM32H7xx_HAL_Driver/Src/stm32h7xx_ll_usb.c ****   }
 446:Drivers/STM32H7xx_HAL_Driver/Src/stm32h7xx_ll_usb.c ****   while ((USBx->GRSTCTL & USB_OTG_GRSTCTL_TXFFLSH) == USB_OTG_GRSTCTL_TXFFLSH);
 447:Drivers/STM32H7xx_HAL_Driver/Src/stm32h7xx_ll_usb.c **** 
 448:Drivers/STM32H7xx_HAL_Driver/Src/stm32h7xx_ll_usb.c ****   return HAL_OK;
 449:Drivers/STM32H7xx_HAL_Driver/Src/stm32h7xx_ll_usb.c **** }
 450:Drivers/STM32H7xx_HAL_Driver/Src/stm32h7xx_ll_usb.c **** 
 451:Drivers/STM32H7xx_HAL_Driver/Src/stm32h7xx_ll_usb.c **** /**
 452:Drivers/STM32H7xx_HAL_Driver/Src/stm32h7xx_ll_usb.c ****   * @brief  USB_FlushRxFifo : Flush Rx FIFO
 453:Drivers/STM32H7xx_HAL_Driver/Src/stm32h7xx_ll_usb.c ****   * @param  USBx  Selected device
 454:Drivers/STM32H7xx_HAL_Driver/Src/stm32h7xx_ll_usb.c ****   * @retval HAL status
 455:Drivers/STM32H7xx_HAL_Driver/Src/stm32h7xx_ll_usb.c ****   */
 456:Drivers/STM32H7xx_HAL_Driver/Src/stm32h7xx_ll_usb.c **** HAL_StatusTypeDef USB_FlushRxFifo(USB_OTG_GlobalTypeDef *USBx)
 457:Drivers/STM32H7xx_HAL_Driver/Src/stm32h7xx_ll_usb.c **** {
 458:Drivers/STM32H7xx_HAL_Driver/Src/stm32h7xx_ll_usb.c ****   uint32_t count = 0;
 459:Drivers/STM32H7xx_HAL_Driver/Src/stm32h7xx_ll_usb.c **** 
 460:Drivers/STM32H7xx_HAL_Driver/Src/stm32h7xx_ll_usb.c ****   USBx->GRSTCTL = USB_OTG_GRSTCTL_RXFFLSH;
 461:Drivers/STM32H7xx_HAL_Driver/Src/stm32h7xx_ll_usb.c **** 
 462:Drivers/STM32H7xx_HAL_Driver/Src/stm32h7xx_ll_usb.c ****   do
 463:Drivers/STM32H7xx_HAL_Driver/Src/stm32h7xx_ll_usb.c ****   {
 464:Drivers/STM32H7xx_HAL_Driver/Src/stm32h7xx_ll_usb.c ****     if (++count > 200000U)
 465:Drivers/STM32H7xx_HAL_Driver/Src/stm32h7xx_ll_usb.c ****     {
 466:Drivers/STM32H7xx_HAL_Driver/Src/stm32h7xx_ll_usb.c ****       return HAL_TIMEOUT;
 467:Drivers/STM32H7xx_HAL_Driver/Src/stm32h7xx_ll_usb.c ****     }
 468:Drivers/STM32H7xx_HAL_Driver/Src/stm32h7xx_ll_usb.c ****   }
 469:Drivers/STM32H7xx_HAL_Driver/Src/stm32h7xx_ll_usb.c ****   while ((USBx->GRSTCTL & USB_OTG_GRSTCTL_RXFFLSH) == USB_OTG_GRSTCTL_RXFFLSH);
 470:Drivers/STM32H7xx_HAL_Driver/Src/stm32h7xx_ll_usb.c **** 
 471:Drivers/STM32H7xx_HAL_Driver/Src/stm32h7xx_ll_usb.c ****   return HAL_OK;
 472:Drivers/STM32H7xx_HAL_Driver/Src/stm32h7xx_ll_usb.c **** }
 473:Drivers/STM32H7xx_HAL_Driver/Src/stm32h7xx_ll_usb.c **** 
 474:Drivers/STM32H7xx_HAL_Driver/Src/stm32h7xx_ll_usb.c **** /**
 475:Drivers/STM32H7xx_HAL_Driver/Src/stm32h7xx_ll_usb.c ****   * @brief  USB_SetDevSpeed  Initializes the DevSpd field of DCFG register
 476:Drivers/STM32H7xx_HAL_Driver/Src/stm32h7xx_ll_usb.c ****   *         depending the PHY type and the enumeration speed of the device.
 477:Drivers/STM32H7xx_HAL_Driver/Src/stm32h7xx_ll_usb.c ****   * @param  USBx  Selected device
 478:Drivers/STM32H7xx_HAL_Driver/Src/stm32h7xx_ll_usb.c ****   * @param  speed  device speed
 479:Drivers/STM32H7xx_HAL_Driver/Src/stm32h7xx_ll_usb.c ****   *          This parameter can be one of these values:
 480:Drivers/STM32H7xx_HAL_Driver/Src/stm32h7xx_ll_usb.c ****   *            @arg USB_OTG_SPEED_HIGH: High speed mode
 481:Drivers/STM32H7xx_HAL_Driver/Src/stm32h7xx_ll_usb.c ****   *            @arg USB_OTG_SPEED_HIGH_IN_FULL: High speed core in Full Speed mode
 482:Drivers/STM32H7xx_HAL_Driver/Src/stm32h7xx_ll_usb.c ****   *            @arg USB_OTG_SPEED_FULL: Full speed mode
 483:Drivers/STM32H7xx_HAL_Driver/Src/stm32h7xx_ll_usb.c ****   * @retval  Hal status
 484:Drivers/STM32H7xx_HAL_Driver/Src/stm32h7xx_ll_usb.c ****   */
 485:Drivers/STM32H7xx_HAL_Driver/Src/stm32h7xx_ll_usb.c **** HAL_StatusTypeDef USB_SetDevSpeed(USB_OTG_GlobalTypeDef *USBx, uint8_t speed)
 486:Drivers/STM32H7xx_HAL_Driver/Src/stm32h7xx_ll_usb.c **** {
 487:Drivers/STM32H7xx_HAL_Driver/Src/stm32h7xx_ll_usb.c ****   uint32_t USBx_BASE = (uint32_t)USBx;
ARM GAS  C:\Users\xiaofei\AppData\Local\Temp\ccBH0Ic6.s 			page 10


 488:Drivers/STM32H7xx_HAL_Driver/Src/stm32h7xx_ll_usb.c **** 
 489:Drivers/STM32H7xx_HAL_Driver/Src/stm32h7xx_ll_usb.c ****   USBx_DEVICE->DCFG |= speed;
 490:Drivers/STM32H7xx_HAL_Driver/Src/stm32h7xx_ll_usb.c ****   return HAL_OK;
 491:Drivers/STM32H7xx_HAL_Driver/Src/stm32h7xx_ll_usb.c **** }
 492:Drivers/STM32H7xx_HAL_Driver/Src/stm32h7xx_ll_usb.c **** 
 493:Drivers/STM32H7xx_HAL_Driver/Src/stm32h7xx_ll_usb.c **** /**
 494:Drivers/STM32H7xx_HAL_Driver/Src/stm32h7xx_ll_usb.c ****   * @brief  USB_GetDevSpeed  Return the Dev Speed
 495:Drivers/STM32H7xx_HAL_Driver/Src/stm32h7xx_ll_usb.c ****   * @param  USBx  Selected device
 496:Drivers/STM32H7xx_HAL_Driver/Src/stm32h7xx_ll_usb.c ****   * @retval speed  device speed
 497:Drivers/STM32H7xx_HAL_Driver/Src/stm32h7xx_ll_usb.c ****   *          This parameter can be one of these values:
 498:Drivers/STM32H7xx_HAL_Driver/Src/stm32h7xx_ll_usb.c ****   *            @arg PCD_SPEED_HIGH: High speed mode
 499:Drivers/STM32H7xx_HAL_Driver/Src/stm32h7xx_ll_usb.c ****   *            @arg PCD_SPEED_FULL: Full speed mode
 500:Drivers/STM32H7xx_HAL_Driver/Src/stm32h7xx_ll_usb.c ****   */
 501:Drivers/STM32H7xx_HAL_Driver/Src/stm32h7xx_ll_usb.c **** uint8_t USB_GetDevSpeed(USB_OTG_GlobalTypeDef *USBx)
 502:Drivers/STM32H7xx_HAL_Driver/Src/stm32h7xx_ll_usb.c **** {
 503:Drivers/STM32H7xx_HAL_Driver/Src/stm32h7xx_ll_usb.c ****   uint32_t USBx_BASE = (uint32_t)USBx;
 504:Drivers/STM32H7xx_HAL_Driver/Src/stm32h7xx_ll_usb.c ****   uint8_t speed;
 505:Drivers/STM32H7xx_HAL_Driver/Src/stm32h7xx_ll_usb.c ****   uint32_t DevEnumSpeed = USBx_DEVICE->DSTS & USB_OTG_DSTS_ENUMSPD;
 506:Drivers/STM32H7xx_HAL_Driver/Src/stm32h7xx_ll_usb.c **** 
 507:Drivers/STM32H7xx_HAL_Driver/Src/stm32h7xx_ll_usb.c ****   if (DevEnumSpeed == DSTS_ENUMSPD_HS_PHY_30MHZ_OR_60MHZ)
 508:Drivers/STM32H7xx_HAL_Driver/Src/stm32h7xx_ll_usb.c ****   {
 509:Drivers/STM32H7xx_HAL_Driver/Src/stm32h7xx_ll_usb.c ****     speed = USBD_HS_SPEED;
 510:Drivers/STM32H7xx_HAL_Driver/Src/stm32h7xx_ll_usb.c ****   }
 511:Drivers/STM32H7xx_HAL_Driver/Src/stm32h7xx_ll_usb.c ****   else if ((DevEnumSpeed == DSTS_ENUMSPD_FS_PHY_30MHZ_OR_60MHZ) ||
 512:Drivers/STM32H7xx_HAL_Driver/Src/stm32h7xx_ll_usb.c ****            (DevEnumSpeed == DSTS_ENUMSPD_FS_PHY_48MHZ))
 513:Drivers/STM32H7xx_HAL_Driver/Src/stm32h7xx_ll_usb.c ****   {
 514:Drivers/STM32H7xx_HAL_Driver/Src/stm32h7xx_ll_usb.c ****     speed = USBD_FS_SPEED;
 515:Drivers/STM32H7xx_HAL_Driver/Src/stm32h7xx_ll_usb.c ****   }
 516:Drivers/STM32H7xx_HAL_Driver/Src/stm32h7xx_ll_usb.c ****   else
 517:Drivers/STM32H7xx_HAL_Driver/Src/stm32h7xx_ll_usb.c ****   {
 518:Drivers/STM32H7xx_HAL_Driver/Src/stm32h7xx_ll_usb.c ****     speed = 0xFU;
 519:Drivers/STM32H7xx_HAL_Driver/Src/stm32h7xx_ll_usb.c ****   }
 520:Drivers/STM32H7xx_HAL_Driver/Src/stm32h7xx_ll_usb.c **** 
 521:Drivers/STM32H7xx_HAL_Driver/Src/stm32h7xx_ll_usb.c ****   return speed;
 522:Drivers/STM32H7xx_HAL_Driver/Src/stm32h7xx_ll_usb.c **** }
 523:Drivers/STM32H7xx_HAL_Driver/Src/stm32h7xx_ll_usb.c **** 
 524:Drivers/STM32H7xx_HAL_Driver/Src/stm32h7xx_ll_usb.c **** /**
 525:Drivers/STM32H7xx_HAL_Driver/Src/stm32h7xx_ll_usb.c ****   * @brief  Activate and configure an endpoint
 526:Drivers/STM32H7xx_HAL_Driver/Src/stm32h7xx_ll_usb.c ****   * @param  USBx  Selected device
 527:Drivers/STM32H7xx_HAL_Driver/Src/stm32h7xx_ll_usb.c ****   * @param  ep pointer to endpoint structure
 528:Drivers/STM32H7xx_HAL_Driver/Src/stm32h7xx_ll_usb.c ****   * @retval HAL status
 529:Drivers/STM32H7xx_HAL_Driver/Src/stm32h7xx_ll_usb.c ****   */
 530:Drivers/STM32H7xx_HAL_Driver/Src/stm32h7xx_ll_usb.c **** HAL_StatusTypeDef USB_ActivateEndpoint(USB_OTG_GlobalTypeDef *USBx, USB_OTG_EPTypeDef *ep)
 531:Drivers/STM32H7xx_HAL_Driver/Src/stm32h7xx_ll_usb.c **** {
 532:Drivers/STM32H7xx_HAL_Driver/Src/stm32h7xx_ll_usb.c ****   uint32_t USBx_BASE = (uint32_t)USBx;
 533:Drivers/STM32H7xx_HAL_Driver/Src/stm32h7xx_ll_usb.c ****   uint32_t epnum = (uint32_t)ep->num;
 534:Drivers/STM32H7xx_HAL_Driver/Src/stm32h7xx_ll_usb.c **** 
 535:Drivers/STM32H7xx_HAL_Driver/Src/stm32h7xx_ll_usb.c ****   if (ep->is_in == 1U)
 536:Drivers/STM32H7xx_HAL_Driver/Src/stm32h7xx_ll_usb.c ****   {
 537:Drivers/STM32H7xx_HAL_Driver/Src/stm32h7xx_ll_usb.c ****     USBx_DEVICE->DAINTMSK |= USB_OTG_DAINTMSK_IEPM & (uint32_t)(1UL << (ep->num & EP_ADDR_MSK));
 538:Drivers/STM32H7xx_HAL_Driver/Src/stm32h7xx_ll_usb.c **** 
 539:Drivers/STM32H7xx_HAL_Driver/Src/stm32h7xx_ll_usb.c ****     if ((USBx_INEP(epnum)->DIEPCTL & USB_OTG_DIEPCTL_USBAEP) == 0U)
 540:Drivers/STM32H7xx_HAL_Driver/Src/stm32h7xx_ll_usb.c ****     {
 541:Drivers/STM32H7xx_HAL_Driver/Src/stm32h7xx_ll_usb.c ****       USBx_INEP(epnum)->DIEPCTL |= (ep->maxpacket & USB_OTG_DIEPCTL_MPSIZ) |
 542:Drivers/STM32H7xx_HAL_Driver/Src/stm32h7xx_ll_usb.c ****                                    ((uint32_t)ep->type << 18) | (epnum << 22) |
 543:Drivers/STM32H7xx_HAL_Driver/Src/stm32h7xx_ll_usb.c ****                                    USB_OTG_DIEPCTL_SD0PID_SEVNFRM |
 544:Drivers/STM32H7xx_HAL_Driver/Src/stm32h7xx_ll_usb.c ****                                    USB_OTG_DIEPCTL_USBAEP;
ARM GAS  C:\Users\xiaofei\AppData\Local\Temp\ccBH0Ic6.s 			page 11


 545:Drivers/STM32H7xx_HAL_Driver/Src/stm32h7xx_ll_usb.c ****     }
 546:Drivers/STM32H7xx_HAL_Driver/Src/stm32h7xx_ll_usb.c ****   }
 547:Drivers/STM32H7xx_HAL_Driver/Src/stm32h7xx_ll_usb.c ****   else
 548:Drivers/STM32H7xx_HAL_Driver/Src/stm32h7xx_ll_usb.c ****   {
 549:Drivers/STM32H7xx_HAL_Driver/Src/stm32h7xx_ll_usb.c ****     USBx_DEVICE->DAINTMSK |= USB_OTG_DAINTMSK_OEPM & ((uint32_t)(1UL << (ep->num & EP_ADDR_MSK)) <<
 550:Drivers/STM32H7xx_HAL_Driver/Src/stm32h7xx_ll_usb.c **** 
 551:Drivers/STM32H7xx_HAL_Driver/Src/stm32h7xx_ll_usb.c ****     if (((USBx_OUTEP(epnum)->DOEPCTL) & USB_OTG_DOEPCTL_USBAEP) == 0U)
 552:Drivers/STM32H7xx_HAL_Driver/Src/stm32h7xx_ll_usb.c ****     {
 553:Drivers/STM32H7xx_HAL_Driver/Src/stm32h7xx_ll_usb.c ****       USBx_OUTEP(epnum)->DOEPCTL |= (ep->maxpacket & USB_OTG_DOEPCTL_MPSIZ) |
 554:Drivers/STM32H7xx_HAL_Driver/Src/stm32h7xx_ll_usb.c ****                                     ((uint32_t)ep->type << 18) |
 555:Drivers/STM32H7xx_HAL_Driver/Src/stm32h7xx_ll_usb.c ****                                     USB_OTG_DIEPCTL_SD0PID_SEVNFRM |
 556:Drivers/STM32H7xx_HAL_Driver/Src/stm32h7xx_ll_usb.c ****                                     USB_OTG_DOEPCTL_USBAEP;
 557:Drivers/STM32H7xx_HAL_Driver/Src/stm32h7xx_ll_usb.c ****     }
 558:Drivers/STM32H7xx_HAL_Driver/Src/stm32h7xx_ll_usb.c ****   }
 559:Drivers/STM32H7xx_HAL_Driver/Src/stm32h7xx_ll_usb.c ****   return HAL_OK;
 560:Drivers/STM32H7xx_HAL_Driver/Src/stm32h7xx_ll_usb.c **** }
 561:Drivers/STM32H7xx_HAL_Driver/Src/stm32h7xx_ll_usb.c **** 
 562:Drivers/STM32H7xx_HAL_Driver/Src/stm32h7xx_ll_usb.c **** /**
 563:Drivers/STM32H7xx_HAL_Driver/Src/stm32h7xx_ll_usb.c ****   * @brief  Activate and configure a dedicated endpoint
 564:Drivers/STM32H7xx_HAL_Driver/Src/stm32h7xx_ll_usb.c ****   * @param  USBx  Selected device
 565:Drivers/STM32H7xx_HAL_Driver/Src/stm32h7xx_ll_usb.c ****   * @param  ep pointer to endpoint structure
 566:Drivers/STM32H7xx_HAL_Driver/Src/stm32h7xx_ll_usb.c ****   * @retval HAL status
 567:Drivers/STM32H7xx_HAL_Driver/Src/stm32h7xx_ll_usb.c ****   */
 568:Drivers/STM32H7xx_HAL_Driver/Src/stm32h7xx_ll_usb.c **** HAL_StatusTypeDef USB_ActivateDedicatedEndpoint(USB_OTG_GlobalTypeDef *USBx, USB_OTG_EPTypeDef *ep)
 569:Drivers/STM32H7xx_HAL_Driver/Src/stm32h7xx_ll_usb.c **** {
 570:Drivers/STM32H7xx_HAL_Driver/Src/stm32h7xx_ll_usb.c ****   uint32_t USBx_BASE = (uint32_t)USBx;
 571:Drivers/STM32H7xx_HAL_Driver/Src/stm32h7xx_ll_usb.c ****   uint32_t epnum = (uint32_t)ep->num;
 572:Drivers/STM32H7xx_HAL_Driver/Src/stm32h7xx_ll_usb.c **** 
 573:Drivers/STM32H7xx_HAL_Driver/Src/stm32h7xx_ll_usb.c ****   /* Read DEPCTLn register */
 574:Drivers/STM32H7xx_HAL_Driver/Src/stm32h7xx_ll_usb.c ****   if (ep->is_in == 1U)
 575:Drivers/STM32H7xx_HAL_Driver/Src/stm32h7xx_ll_usb.c ****   {
 576:Drivers/STM32H7xx_HAL_Driver/Src/stm32h7xx_ll_usb.c ****     if (((USBx_INEP(epnum)->DIEPCTL) & USB_OTG_DIEPCTL_USBAEP) == 0U)
 577:Drivers/STM32H7xx_HAL_Driver/Src/stm32h7xx_ll_usb.c ****     {
 578:Drivers/STM32H7xx_HAL_Driver/Src/stm32h7xx_ll_usb.c ****       USBx_INEP(epnum)->DIEPCTL |= (ep->maxpacket & USB_OTG_DIEPCTL_MPSIZ) |
 579:Drivers/STM32H7xx_HAL_Driver/Src/stm32h7xx_ll_usb.c ****                                    ((uint32_t)ep->type << 18) | (epnum << 22) |
 580:Drivers/STM32H7xx_HAL_Driver/Src/stm32h7xx_ll_usb.c ****                                    USB_OTG_DIEPCTL_SD0PID_SEVNFRM |
 581:Drivers/STM32H7xx_HAL_Driver/Src/stm32h7xx_ll_usb.c ****                                    USB_OTG_DIEPCTL_USBAEP;
 582:Drivers/STM32H7xx_HAL_Driver/Src/stm32h7xx_ll_usb.c ****     }
 583:Drivers/STM32H7xx_HAL_Driver/Src/stm32h7xx_ll_usb.c **** 
 584:Drivers/STM32H7xx_HAL_Driver/Src/stm32h7xx_ll_usb.c ****     USBx_DEVICE->DEACHMSK |= USB_OTG_DAINTMSK_IEPM & (uint32_t)(1UL << (ep->num & EP_ADDR_MSK));
 585:Drivers/STM32H7xx_HAL_Driver/Src/stm32h7xx_ll_usb.c ****   }
 586:Drivers/STM32H7xx_HAL_Driver/Src/stm32h7xx_ll_usb.c ****   else
 587:Drivers/STM32H7xx_HAL_Driver/Src/stm32h7xx_ll_usb.c ****   {
 588:Drivers/STM32H7xx_HAL_Driver/Src/stm32h7xx_ll_usb.c ****     if (((USBx_OUTEP(epnum)->DOEPCTL) & USB_OTG_DOEPCTL_USBAEP) == 0U)
 589:Drivers/STM32H7xx_HAL_Driver/Src/stm32h7xx_ll_usb.c ****     {
 590:Drivers/STM32H7xx_HAL_Driver/Src/stm32h7xx_ll_usb.c ****       USBx_OUTEP(epnum)->DOEPCTL |= (ep->maxpacket & USB_OTG_DOEPCTL_MPSIZ) |
 591:Drivers/STM32H7xx_HAL_Driver/Src/stm32h7xx_ll_usb.c ****                                     ((uint32_t)ep->type << 18) | (epnum << 22) |
 592:Drivers/STM32H7xx_HAL_Driver/Src/stm32h7xx_ll_usb.c ****                                     USB_OTG_DOEPCTL_USBAEP;
 593:Drivers/STM32H7xx_HAL_Driver/Src/stm32h7xx_ll_usb.c ****     }
 594:Drivers/STM32H7xx_HAL_Driver/Src/stm32h7xx_ll_usb.c **** 
 595:Drivers/STM32H7xx_HAL_Driver/Src/stm32h7xx_ll_usb.c ****     USBx_DEVICE->DEACHMSK |= USB_OTG_DAINTMSK_OEPM & ((uint32_t)(1UL << (ep->num & EP_ADDR_MSK)) <<
 596:Drivers/STM32H7xx_HAL_Driver/Src/stm32h7xx_ll_usb.c ****   }
 597:Drivers/STM32H7xx_HAL_Driver/Src/stm32h7xx_ll_usb.c **** 
 598:Drivers/STM32H7xx_HAL_Driver/Src/stm32h7xx_ll_usb.c ****   return HAL_OK;
 599:Drivers/STM32H7xx_HAL_Driver/Src/stm32h7xx_ll_usb.c **** }
 600:Drivers/STM32H7xx_HAL_Driver/Src/stm32h7xx_ll_usb.c **** 
 601:Drivers/STM32H7xx_HAL_Driver/Src/stm32h7xx_ll_usb.c **** /**
ARM GAS  C:\Users\xiaofei\AppData\Local\Temp\ccBH0Ic6.s 			page 12


 602:Drivers/STM32H7xx_HAL_Driver/Src/stm32h7xx_ll_usb.c ****   * @brief  De-activate and de-initialize an endpoint
 603:Drivers/STM32H7xx_HAL_Driver/Src/stm32h7xx_ll_usb.c ****   * @param  USBx  Selected device
 604:Drivers/STM32H7xx_HAL_Driver/Src/stm32h7xx_ll_usb.c ****   * @param  ep pointer to endpoint structure
 605:Drivers/STM32H7xx_HAL_Driver/Src/stm32h7xx_ll_usb.c ****   * @retval HAL status
 606:Drivers/STM32H7xx_HAL_Driver/Src/stm32h7xx_ll_usb.c ****   */
 607:Drivers/STM32H7xx_HAL_Driver/Src/stm32h7xx_ll_usb.c **** HAL_StatusTypeDef USB_DeactivateEndpoint(USB_OTG_GlobalTypeDef *USBx, USB_OTG_EPTypeDef *ep)
 608:Drivers/STM32H7xx_HAL_Driver/Src/stm32h7xx_ll_usb.c **** {
 609:Drivers/STM32H7xx_HAL_Driver/Src/stm32h7xx_ll_usb.c ****   uint32_t USBx_BASE = (uint32_t)USBx;
 610:Drivers/STM32H7xx_HAL_Driver/Src/stm32h7xx_ll_usb.c ****   uint32_t epnum = (uint32_t)ep->num;
 611:Drivers/STM32H7xx_HAL_Driver/Src/stm32h7xx_ll_usb.c **** 
 612:Drivers/STM32H7xx_HAL_Driver/Src/stm32h7xx_ll_usb.c ****   /* Read DEPCTLn register */
 613:Drivers/STM32H7xx_HAL_Driver/Src/stm32h7xx_ll_usb.c ****   if (ep->is_in == 1U)
 614:Drivers/STM32H7xx_HAL_Driver/Src/stm32h7xx_ll_usb.c ****   {
 615:Drivers/STM32H7xx_HAL_Driver/Src/stm32h7xx_ll_usb.c ****     if ((USBx_INEP(epnum)->DIEPCTL & USB_OTG_DIEPCTL_EPENA) == USB_OTG_DIEPCTL_EPENA)
 616:Drivers/STM32H7xx_HAL_Driver/Src/stm32h7xx_ll_usb.c ****     {
 617:Drivers/STM32H7xx_HAL_Driver/Src/stm32h7xx_ll_usb.c ****       USBx_INEP(epnum)->DIEPCTL |= USB_OTG_DIEPCTL_SNAK;
 618:Drivers/STM32H7xx_HAL_Driver/Src/stm32h7xx_ll_usb.c ****       USBx_INEP(epnum)->DIEPCTL |= USB_OTG_DIEPCTL_EPDIS;
 619:Drivers/STM32H7xx_HAL_Driver/Src/stm32h7xx_ll_usb.c ****     }
 620:Drivers/STM32H7xx_HAL_Driver/Src/stm32h7xx_ll_usb.c **** 
 621:Drivers/STM32H7xx_HAL_Driver/Src/stm32h7xx_ll_usb.c ****     USBx_DEVICE->DEACHMSK &= ~(USB_OTG_DAINTMSK_IEPM & (uint32_t)(1UL << (ep->num & EP_ADDR_MSK)));
 622:Drivers/STM32H7xx_HAL_Driver/Src/stm32h7xx_ll_usb.c ****     USBx_DEVICE->DAINTMSK &= ~(USB_OTG_DAINTMSK_IEPM & (uint32_t)(1UL << (ep->num & EP_ADDR_MSK)));
 623:Drivers/STM32H7xx_HAL_Driver/Src/stm32h7xx_ll_usb.c ****     USBx_INEP(epnum)->DIEPCTL &= ~(USB_OTG_DIEPCTL_USBAEP |
 624:Drivers/STM32H7xx_HAL_Driver/Src/stm32h7xx_ll_usb.c ****                                    USB_OTG_DIEPCTL_MPSIZ |
 625:Drivers/STM32H7xx_HAL_Driver/Src/stm32h7xx_ll_usb.c ****                                    USB_OTG_DIEPCTL_TXFNUM |
 626:Drivers/STM32H7xx_HAL_Driver/Src/stm32h7xx_ll_usb.c ****                                    USB_OTG_DIEPCTL_SD0PID_SEVNFRM |
 627:Drivers/STM32H7xx_HAL_Driver/Src/stm32h7xx_ll_usb.c ****                                    USB_OTG_DIEPCTL_EPTYP);
 628:Drivers/STM32H7xx_HAL_Driver/Src/stm32h7xx_ll_usb.c ****   }
 629:Drivers/STM32H7xx_HAL_Driver/Src/stm32h7xx_ll_usb.c ****   else
 630:Drivers/STM32H7xx_HAL_Driver/Src/stm32h7xx_ll_usb.c ****   {
 631:Drivers/STM32H7xx_HAL_Driver/Src/stm32h7xx_ll_usb.c ****     if ((USBx_OUTEP(epnum)->DOEPCTL & USB_OTG_DOEPCTL_EPENA) == USB_OTG_DOEPCTL_EPENA)
 632:Drivers/STM32H7xx_HAL_Driver/Src/stm32h7xx_ll_usb.c ****     {
 633:Drivers/STM32H7xx_HAL_Driver/Src/stm32h7xx_ll_usb.c ****       USBx_OUTEP(epnum)->DOEPCTL |= USB_OTG_DOEPCTL_SNAK;
 634:Drivers/STM32H7xx_HAL_Driver/Src/stm32h7xx_ll_usb.c ****       USBx_OUTEP(epnum)->DOEPCTL |= USB_OTG_DOEPCTL_EPDIS;
 635:Drivers/STM32H7xx_HAL_Driver/Src/stm32h7xx_ll_usb.c ****     }
 636:Drivers/STM32H7xx_HAL_Driver/Src/stm32h7xx_ll_usb.c **** 
 637:Drivers/STM32H7xx_HAL_Driver/Src/stm32h7xx_ll_usb.c ****     USBx_DEVICE->DEACHMSK &= ~(USB_OTG_DAINTMSK_OEPM & ((uint32_t)(1UL << (ep->num & EP_ADDR_MSK)) 
 638:Drivers/STM32H7xx_HAL_Driver/Src/stm32h7xx_ll_usb.c ****     USBx_DEVICE->DAINTMSK &= ~(USB_OTG_DAINTMSK_OEPM & ((uint32_t)(1UL << (ep->num & EP_ADDR_MSK)) 
 639:Drivers/STM32H7xx_HAL_Driver/Src/stm32h7xx_ll_usb.c ****     USBx_OUTEP(epnum)->DOEPCTL &= ~(USB_OTG_DOEPCTL_USBAEP |
 640:Drivers/STM32H7xx_HAL_Driver/Src/stm32h7xx_ll_usb.c ****                                     USB_OTG_DOEPCTL_MPSIZ |
 641:Drivers/STM32H7xx_HAL_Driver/Src/stm32h7xx_ll_usb.c ****                                     USB_OTG_DOEPCTL_SD0PID_SEVNFRM |
 642:Drivers/STM32H7xx_HAL_Driver/Src/stm32h7xx_ll_usb.c ****                                     USB_OTG_DOEPCTL_EPTYP);
 643:Drivers/STM32H7xx_HAL_Driver/Src/stm32h7xx_ll_usb.c ****   }
 644:Drivers/STM32H7xx_HAL_Driver/Src/stm32h7xx_ll_usb.c **** 
 645:Drivers/STM32H7xx_HAL_Driver/Src/stm32h7xx_ll_usb.c ****   return HAL_OK;
 646:Drivers/STM32H7xx_HAL_Driver/Src/stm32h7xx_ll_usb.c **** }
 647:Drivers/STM32H7xx_HAL_Driver/Src/stm32h7xx_ll_usb.c **** 
 648:Drivers/STM32H7xx_HAL_Driver/Src/stm32h7xx_ll_usb.c **** /**
 649:Drivers/STM32H7xx_HAL_Driver/Src/stm32h7xx_ll_usb.c ****   * @brief  De-activate and de-initialize a dedicated endpoint
 650:Drivers/STM32H7xx_HAL_Driver/Src/stm32h7xx_ll_usb.c ****   * @param  USBx  Selected device
 651:Drivers/STM32H7xx_HAL_Driver/Src/stm32h7xx_ll_usb.c ****   * @param  ep pointer to endpoint structure
 652:Drivers/STM32H7xx_HAL_Driver/Src/stm32h7xx_ll_usb.c ****   * @retval HAL status
 653:Drivers/STM32H7xx_HAL_Driver/Src/stm32h7xx_ll_usb.c ****   */
 654:Drivers/STM32H7xx_HAL_Driver/Src/stm32h7xx_ll_usb.c **** HAL_StatusTypeDef USB_DeactivateDedicatedEndpoint(USB_OTG_GlobalTypeDef *USBx, USB_OTG_EPTypeDef *e
 655:Drivers/STM32H7xx_HAL_Driver/Src/stm32h7xx_ll_usb.c **** {
 656:Drivers/STM32H7xx_HAL_Driver/Src/stm32h7xx_ll_usb.c ****   uint32_t USBx_BASE = (uint32_t)USBx;
 657:Drivers/STM32H7xx_HAL_Driver/Src/stm32h7xx_ll_usb.c ****   uint32_t epnum = (uint32_t)ep->num;
 658:Drivers/STM32H7xx_HAL_Driver/Src/stm32h7xx_ll_usb.c **** 
ARM GAS  C:\Users\xiaofei\AppData\Local\Temp\ccBH0Ic6.s 			page 13


 659:Drivers/STM32H7xx_HAL_Driver/Src/stm32h7xx_ll_usb.c ****   /* Read DEPCTLn register */
 660:Drivers/STM32H7xx_HAL_Driver/Src/stm32h7xx_ll_usb.c ****   if (ep->is_in == 1U)
 661:Drivers/STM32H7xx_HAL_Driver/Src/stm32h7xx_ll_usb.c ****   {
 662:Drivers/STM32H7xx_HAL_Driver/Src/stm32h7xx_ll_usb.c ****     if ((USBx_INEP(epnum)->DIEPCTL & USB_OTG_DIEPCTL_EPENA) == USB_OTG_DIEPCTL_EPENA)
 663:Drivers/STM32H7xx_HAL_Driver/Src/stm32h7xx_ll_usb.c ****     {
 664:Drivers/STM32H7xx_HAL_Driver/Src/stm32h7xx_ll_usb.c ****       USBx_INEP(epnum)->DIEPCTL  |= USB_OTG_DIEPCTL_SNAK;
 665:Drivers/STM32H7xx_HAL_Driver/Src/stm32h7xx_ll_usb.c ****       USBx_INEP(epnum)->DIEPCTL  |= USB_OTG_DIEPCTL_EPDIS;
 666:Drivers/STM32H7xx_HAL_Driver/Src/stm32h7xx_ll_usb.c ****     }
 667:Drivers/STM32H7xx_HAL_Driver/Src/stm32h7xx_ll_usb.c **** 
 668:Drivers/STM32H7xx_HAL_Driver/Src/stm32h7xx_ll_usb.c ****     USBx_INEP(epnum)->DIEPCTL &= ~ USB_OTG_DIEPCTL_USBAEP;
 669:Drivers/STM32H7xx_HAL_Driver/Src/stm32h7xx_ll_usb.c ****     USBx_DEVICE->DAINTMSK &= ~(USB_OTG_DAINTMSK_IEPM & (uint32_t)(1UL << (ep->num & EP_ADDR_MSK)));
 670:Drivers/STM32H7xx_HAL_Driver/Src/stm32h7xx_ll_usb.c ****   }
 671:Drivers/STM32H7xx_HAL_Driver/Src/stm32h7xx_ll_usb.c ****   else
 672:Drivers/STM32H7xx_HAL_Driver/Src/stm32h7xx_ll_usb.c ****   {
 673:Drivers/STM32H7xx_HAL_Driver/Src/stm32h7xx_ll_usb.c ****     if ((USBx_OUTEP(epnum)->DOEPCTL & USB_OTG_DOEPCTL_EPENA) == USB_OTG_DOEPCTL_EPENA)
 674:Drivers/STM32H7xx_HAL_Driver/Src/stm32h7xx_ll_usb.c ****     {
 675:Drivers/STM32H7xx_HAL_Driver/Src/stm32h7xx_ll_usb.c ****       USBx_OUTEP(epnum)->DOEPCTL  |= USB_OTG_DOEPCTL_SNAK;
 676:Drivers/STM32H7xx_HAL_Driver/Src/stm32h7xx_ll_usb.c ****       USBx_OUTEP(epnum)->DOEPCTL  |= USB_OTG_DOEPCTL_EPDIS;
 677:Drivers/STM32H7xx_HAL_Driver/Src/stm32h7xx_ll_usb.c ****     }
 678:Drivers/STM32H7xx_HAL_Driver/Src/stm32h7xx_ll_usb.c **** 
 679:Drivers/STM32H7xx_HAL_Driver/Src/stm32h7xx_ll_usb.c ****     USBx_OUTEP(epnum)->DOEPCTL &= ~USB_OTG_DOEPCTL_USBAEP;
 680:Drivers/STM32H7xx_HAL_Driver/Src/stm32h7xx_ll_usb.c ****     USBx_DEVICE->DAINTMSK &= ~(USB_OTG_DAINTMSK_OEPM & ((uint32_t)(1UL << (ep->num & EP_ADDR_MSK)) 
 681:Drivers/STM32H7xx_HAL_Driver/Src/stm32h7xx_ll_usb.c ****   }
 682:Drivers/STM32H7xx_HAL_Driver/Src/stm32h7xx_ll_usb.c **** 
 683:Drivers/STM32H7xx_HAL_Driver/Src/stm32h7xx_ll_usb.c ****   return HAL_OK;
 684:Drivers/STM32H7xx_HAL_Driver/Src/stm32h7xx_ll_usb.c **** }
 685:Drivers/STM32H7xx_HAL_Driver/Src/stm32h7xx_ll_usb.c **** 
 686:Drivers/STM32H7xx_HAL_Driver/Src/stm32h7xx_ll_usb.c **** /**
 687:Drivers/STM32H7xx_HAL_Driver/Src/stm32h7xx_ll_usb.c ****   * @brief  USB_EPStartXfer : setup and starts a transfer over an EP
 688:Drivers/STM32H7xx_HAL_Driver/Src/stm32h7xx_ll_usb.c ****   * @param  USBx  Selected device
 689:Drivers/STM32H7xx_HAL_Driver/Src/stm32h7xx_ll_usb.c ****   * @param  ep pointer to endpoint structure
 690:Drivers/STM32H7xx_HAL_Driver/Src/stm32h7xx_ll_usb.c ****   * @param  dma USB dma enabled or disabled
 691:Drivers/STM32H7xx_HAL_Driver/Src/stm32h7xx_ll_usb.c ****   *          This parameter can be one of these values:
 692:Drivers/STM32H7xx_HAL_Driver/Src/stm32h7xx_ll_usb.c ****   *           0 : DMA feature not used
 693:Drivers/STM32H7xx_HAL_Driver/Src/stm32h7xx_ll_usb.c ****   *           1 : DMA feature used
 694:Drivers/STM32H7xx_HAL_Driver/Src/stm32h7xx_ll_usb.c ****   * @retval HAL status
 695:Drivers/STM32H7xx_HAL_Driver/Src/stm32h7xx_ll_usb.c ****   */
 696:Drivers/STM32H7xx_HAL_Driver/Src/stm32h7xx_ll_usb.c **** HAL_StatusTypeDef USB_EPStartXfer(USB_OTG_GlobalTypeDef *USBx, USB_OTG_EPTypeDef *ep, uint8_t dma)
 697:Drivers/STM32H7xx_HAL_Driver/Src/stm32h7xx_ll_usb.c **** {
 698:Drivers/STM32H7xx_HAL_Driver/Src/stm32h7xx_ll_usb.c ****   uint32_t USBx_BASE = (uint32_t)USBx;
 699:Drivers/STM32H7xx_HAL_Driver/Src/stm32h7xx_ll_usb.c ****   uint32_t epnum = (uint32_t)ep->num;
 700:Drivers/STM32H7xx_HAL_Driver/Src/stm32h7xx_ll_usb.c ****   uint16_t pktcnt;
 701:Drivers/STM32H7xx_HAL_Driver/Src/stm32h7xx_ll_usb.c **** 
 702:Drivers/STM32H7xx_HAL_Driver/Src/stm32h7xx_ll_usb.c ****   /* IN endpoint */
 703:Drivers/STM32H7xx_HAL_Driver/Src/stm32h7xx_ll_usb.c ****   if (ep->is_in == 1U)
 704:Drivers/STM32H7xx_HAL_Driver/Src/stm32h7xx_ll_usb.c ****   {
 705:Drivers/STM32H7xx_HAL_Driver/Src/stm32h7xx_ll_usb.c ****     /* Zero Length Packet? */
 706:Drivers/STM32H7xx_HAL_Driver/Src/stm32h7xx_ll_usb.c ****     if (ep->xfer_len == 0U)
 707:Drivers/STM32H7xx_HAL_Driver/Src/stm32h7xx_ll_usb.c ****     {
 708:Drivers/STM32H7xx_HAL_Driver/Src/stm32h7xx_ll_usb.c ****       USBx_INEP(epnum)->DIEPTSIZ &= ~(USB_OTG_DIEPTSIZ_PKTCNT);
 709:Drivers/STM32H7xx_HAL_Driver/Src/stm32h7xx_ll_usb.c ****       USBx_INEP(epnum)->DIEPTSIZ |= (USB_OTG_DIEPTSIZ_PKTCNT & (1U << 19));
 710:Drivers/STM32H7xx_HAL_Driver/Src/stm32h7xx_ll_usb.c ****       USBx_INEP(epnum)->DIEPTSIZ &= ~(USB_OTG_DIEPTSIZ_XFRSIZ);
 711:Drivers/STM32H7xx_HAL_Driver/Src/stm32h7xx_ll_usb.c ****     }
 712:Drivers/STM32H7xx_HAL_Driver/Src/stm32h7xx_ll_usb.c ****     else
 713:Drivers/STM32H7xx_HAL_Driver/Src/stm32h7xx_ll_usb.c ****     {
 714:Drivers/STM32H7xx_HAL_Driver/Src/stm32h7xx_ll_usb.c ****       /* Program the transfer size and packet count
 715:Drivers/STM32H7xx_HAL_Driver/Src/stm32h7xx_ll_usb.c ****       * as follows: xfersize = N * maxpacket +
ARM GAS  C:\Users\xiaofei\AppData\Local\Temp\ccBH0Ic6.s 			page 14


 716:Drivers/STM32H7xx_HAL_Driver/Src/stm32h7xx_ll_usb.c ****       * short_packet pktcnt = N + (short_packet
 717:Drivers/STM32H7xx_HAL_Driver/Src/stm32h7xx_ll_usb.c ****       * exist ? 1 : 0)
 718:Drivers/STM32H7xx_HAL_Driver/Src/stm32h7xx_ll_usb.c ****       */
 719:Drivers/STM32H7xx_HAL_Driver/Src/stm32h7xx_ll_usb.c ****       USBx_INEP(epnum)->DIEPTSIZ &= ~(USB_OTG_DIEPTSIZ_XFRSIZ);
 720:Drivers/STM32H7xx_HAL_Driver/Src/stm32h7xx_ll_usb.c ****       USBx_INEP(epnum)->DIEPTSIZ &= ~(USB_OTG_DIEPTSIZ_PKTCNT);
 721:Drivers/STM32H7xx_HAL_Driver/Src/stm32h7xx_ll_usb.c ****       USBx_INEP(epnum)->DIEPTSIZ |= (USB_OTG_DIEPTSIZ_PKTCNT & (((ep->xfer_len + ep->maxpacket - 1U
 722:Drivers/STM32H7xx_HAL_Driver/Src/stm32h7xx_ll_usb.c ****       USBx_INEP(epnum)->DIEPTSIZ |= (USB_OTG_DIEPTSIZ_XFRSIZ & ep->xfer_len);
 723:Drivers/STM32H7xx_HAL_Driver/Src/stm32h7xx_ll_usb.c **** 
 724:Drivers/STM32H7xx_HAL_Driver/Src/stm32h7xx_ll_usb.c ****       if (ep->type == EP_TYPE_ISOC)
 725:Drivers/STM32H7xx_HAL_Driver/Src/stm32h7xx_ll_usb.c ****       {
 726:Drivers/STM32H7xx_HAL_Driver/Src/stm32h7xx_ll_usb.c ****         USBx_INEP(epnum)->DIEPTSIZ &= ~(USB_OTG_DIEPTSIZ_MULCNT);
 727:Drivers/STM32H7xx_HAL_Driver/Src/stm32h7xx_ll_usb.c ****         USBx_INEP(epnum)->DIEPTSIZ |= (USB_OTG_DIEPTSIZ_MULCNT & (1U << 29));
 728:Drivers/STM32H7xx_HAL_Driver/Src/stm32h7xx_ll_usb.c ****       }
 729:Drivers/STM32H7xx_HAL_Driver/Src/stm32h7xx_ll_usb.c ****     }
 730:Drivers/STM32H7xx_HAL_Driver/Src/stm32h7xx_ll_usb.c **** 
 731:Drivers/STM32H7xx_HAL_Driver/Src/stm32h7xx_ll_usb.c ****     if (dma == 1U)
 732:Drivers/STM32H7xx_HAL_Driver/Src/stm32h7xx_ll_usb.c ****     {
 733:Drivers/STM32H7xx_HAL_Driver/Src/stm32h7xx_ll_usb.c ****       if ((uint32_t)ep->dma_addr != 0U)
 734:Drivers/STM32H7xx_HAL_Driver/Src/stm32h7xx_ll_usb.c ****       {
 735:Drivers/STM32H7xx_HAL_Driver/Src/stm32h7xx_ll_usb.c ****         USBx_INEP(epnum)->DIEPDMA = (uint32_t)(ep->dma_addr);
 736:Drivers/STM32H7xx_HAL_Driver/Src/stm32h7xx_ll_usb.c ****       }
 737:Drivers/STM32H7xx_HAL_Driver/Src/stm32h7xx_ll_usb.c **** 
 738:Drivers/STM32H7xx_HAL_Driver/Src/stm32h7xx_ll_usb.c ****       if (ep->type == EP_TYPE_ISOC)
 739:Drivers/STM32H7xx_HAL_Driver/Src/stm32h7xx_ll_usb.c ****       {
 740:Drivers/STM32H7xx_HAL_Driver/Src/stm32h7xx_ll_usb.c ****         if ((USBx_DEVICE->DSTS & (1U << 8)) == 0U)
 741:Drivers/STM32H7xx_HAL_Driver/Src/stm32h7xx_ll_usb.c ****         {
 742:Drivers/STM32H7xx_HAL_Driver/Src/stm32h7xx_ll_usb.c ****           USBx_INEP(epnum)->DIEPCTL |= USB_OTG_DIEPCTL_SODDFRM;
 743:Drivers/STM32H7xx_HAL_Driver/Src/stm32h7xx_ll_usb.c ****         }
 744:Drivers/STM32H7xx_HAL_Driver/Src/stm32h7xx_ll_usb.c ****         else
 745:Drivers/STM32H7xx_HAL_Driver/Src/stm32h7xx_ll_usb.c ****         {
 746:Drivers/STM32H7xx_HAL_Driver/Src/stm32h7xx_ll_usb.c ****           USBx_INEP(epnum)->DIEPCTL |= USB_OTG_DIEPCTL_SD0PID_SEVNFRM;
 747:Drivers/STM32H7xx_HAL_Driver/Src/stm32h7xx_ll_usb.c ****         }
 748:Drivers/STM32H7xx_HAL_Driver/Src/stm32h7xx_ll_usb.c ****       }
 749:Drivers/STM32H7xx_HAL_Driver/Src/stm32h7xx_ll_usb.c **** 
 750:Drivers/STM32H7xx_HAL_Driver/Src/stm32h7xx_ll_usb.c ****       /* EP enable, IN data in FIFO */
 751:Drivers/STM32H7xx_HAL_Driver/Src/stm32h7xx_ll_usb.c ****       USBx_INEP(epnum)->DIEPCTL |= (USB_OTG_DIEPCTL_CNAK | USB_OTG_DIEPCTL_EPENA);
 752:Drivers/STM32H7xx_HAL_Driver/Src/stm32h7xx_ll_usb.c ****     }
 753:Drivers/STM32H7xx_HAL_Driver/Src/stm32h7xx_ll_usb.c ****     else
 754:Drivers/STM32H7xx_HAL_Driver/Src/stm32h7xx_ll_usb.c ****     {
 755:Drivers/STM32H7xx_HAL_Driver/Src/stm32h7xx_ll_usb.c ****       /* EP enable, IN data in FIFO */
 756:Drivers/STM32H7xx_HAL_Driver/Src/stm32h7xx_ll_usb.c ****       USBx_INEP(epnum)->DIEPCTL |= (USB_OTG_DIEPCTL_CNAK | USB_OTG_DIEPCTL_EPENA);
 757:Drivers/STM32H7xx_HAL_Driver/Src/stm32h7xx_ll_usb.c **** 
 758:Drivers/STM32H7xx_HAL_Driver/Src/stm32h7xx_ll_usb.c ****       if (ep->type != EP_TYPE_ISOC)
 759:Drivers/STM32H7xx_HAL_Driver/Src/stm32h7xx_ll_usb.c ****       {
 760:Drivers/STM32H7xx_HAL_Driver/Src/stm32h7xx_ll_usb.c ****         /* Enable the Tx FIFO Empty Interrupt for this EP */
 761:Drivers/STM32H7xx_HAL_Driver/Src/stm32h7xx_ll_usb.c ****         if (ep->xfer_len > 0U)
 762:Drivers/STM32H7xx_HAL_Driver/Src/stm32h7xx_ll_usb.c ****         {
 763:Drivers/STM32H7xx_HAL_Driver/Src/stm32h7xx_ll_usb.c ****           USBx_DEVICE->DIEPEMPMSK |= 1UL << (ep->num & EP_ADDR_MSK);
 764:Drivers/STM32H7xx_HAL_Driver/Src/stm32h7xx_ll_usb.c ****         }
 765:Drivers/STM32H7xx_HAL_Driver/Src/stm32h7xx_ll_usb.c ****       }
 766:Drivers/STM32H7xx_HAL_Driver/Src/stm32h7xx_ll_usb.c ****       else
 767:Drivers/STM32H7xx_HAL_Driver/Src/stm32h7xx_ll_usb.c ****       {
 768:Drivers/STM32H7xx_HAL_Driver/Src/stm32h7xx_ll_usb.c ****         if ((USBx_DEVICE->DSTS & (1U << 8)) == 0U)
 769:Drivers/STM32H7xx_HAL_Driver/Src/stm32h7xx_ll_usb.c ****         {
 770:Drivers/STM32H7xx_HAL_Driver/Src/stm32h7xx_ll_usb.c ****           USBx_INEP(epnum)->DIEPCTL |= USB_OTG_DIEPCTL_SODDFRM;
 771:Drivers/STM32H7xx_HAL_Driver/Src/stm32h7xx_ll_usb.c ****         }
 772:Drivers/STM32H7xx_HAL_Driver/Src/stm32h7xx_ll_usb.c ****         else
ARM GAS  C:\Users\xiaofei\AppData\Local\Temp\ccBH0Ic6.s 			page 15


 773:Drivers/STM32H7xx_HAL_Driver/Src/stm32h7xx_ll_usb.c ****         {
 774:Drivers/STM32H7xx_HAL_Driver/Src/stm32h7xx_ll_usb.c ****           USBx_INEP(epnum)->DIEPCTL |= USB_OTG_DIEPCTL_SD0PID_SEVNFRM;
 775:Drivers/STM32H7xx_HAL_Driver/Src/stm32h7xx_ll_usb.c ****         }
 776:Drivers/STM32H7xx_HAL_Driver/Src/stm32h7xx_ll_usb.c **** 
 777:Drivers/STM32H7xx_HAL_Driver/Src/stm32h7xx_ll_usb.c ****         (void)USB_WritePacket(USBx, ep->xfer_buff, ep->num, (uint16_t)ep->xfer_len, dma);
 778:Drivers/STM32H7xx_HAL_Driver/Src/stm32h7xx_ll_usb.c ****       }
 779:Drivers/STM32H7xx_HAL_Driver/Src/stm32h7xx_ll_usb.c ****     }
 780:Drivers/STM32H7xx_HAL_Driver/Src/stm32h7xx_ll_usb.c ****   }
 781:Drivers/STM32H7xx_HAL_Driver/Src/stm32h7xx_ll_usb.c ****   else /* OUT endpoint */
 782:Drivers/STM32H7xx_HAL_Driver/Src/stm32h7xx_ll_usb.c ****   {
 783:Drivers/STM32H7xx_HAL_Driver/Src/stm32h7xx_ll_usb.c ****     /* Program the transfer size and packet count as follows:
 784:Drivers/STM32H7xx_HAL_Driver/Src/stm32h7xx_ll_usb.c ****     * pktcnt = N
 785:Drivers/STM32H7xx_HAL_Driver/Src/stm32h7xx_ll_usb.c ****     * xfersize = N * maxpacket
 786:Drivers/STM32H7xx_HAL_Driver/Src/stm32h7xx_ll_usb.c ****     */
 787:Drivers/STM32H7xx_HAL_Driver/Src/stm32h7xx_ll_usb.c ****     USBx_OUTEP(epnum)->DOEPTSIZ &= ~(USB_OTG_DOEPTSIZ_XFRSIZ);
 788:Drivers/STM32H7xx_HAL_Driver/Src/stm32h7xx_ll_usb.c ****     USBx_OUTEP(epnum)->DOEPTSIZ &= ~(USB_OTG_DOEPTSIZ_PKTCNT);
 789:Drivers/STM32H7xx_HAL_Driver/Src/stm32h7xx_ll_usb.c **** 
 790:Drivers/STM32H7xx_HAL_Driver/Src/stm32h7xx_ll_usb.c ****     if (ep->xfer_len == 0U)
 791:Drivers/STM32H7xx_HAL_Driver/Src/stm32h7xx_ll_usb.c ****     {
 792:Drivers/STM32H7xx_HAL_Driver/Src/stm32h7xx_ll_usb.c ****       USBx_OUTEP(epnum)->DOEPTSIZ |= (USB_OTG_DOEPTSIZ_XFRSIZ & ep->maxpacket);
 793:Drivers/STM32H7xx_HAL_Driver/Src/stm32h7xx_ll_usb.c ****       USBx_OUTEP(epnum)->DOEPTSIZ |= (USB_OTG_DOEPTSIZ_PKTCNT & (1U << 19));
 794:Drivers/STM32H7xx_HAL_Driver/Src/stm32h7xx_ll_usb.c ****     }
 795:Drivers/STM32H7xx_HAL_Driver/Src/stm32h7xx_ll_usb.c ****     else
 796:Drivers/STM32H7xx_HAL_Driver/Src/stm32h7xx_ll_usb.c ****     {
 797:Drivers/STM32H7xx_HAL_Driver/Src/stm32h7xx_ll_usb.c ****       pktcnt = (uint16_t)((ep->xfer_len + ep->maxpacket - 1U) / ep->maxpacket);
 798:Drivers/STM32H7xx_HAL_Driver/Src/stm32h7xx_ll_usb.c ****       USBx_OUTEP(epnum)->DOEPTSIZ |= USB_OTG_DOEPTSIZ_PKTCNT & ((uint32_t)pktcnt << 19);
 799:Drivers/STM32H7xx_HAL_Driver/Src/stm32h7xx_ll_usb.c ****       USBx_OUTEP(epnum)->DOEPTSIZ |= USB_OTG_DOEPTSIZ_XFRSIZ & (ep->maxpacket * pktcnt);
 800:Drivers/STM32H7xx_HAL_Driver/Src/stm32h7xx_ll_usb.c ****     }
 801:Drivers/STM32H7xx_HAL_Driver/Src/stm32h7xx_ll_usb.c **** 
 802:Drivers/STM32H7xx_HAL_Driver/Src/stm32h7xx_ll_usb.c ****     if (dma == 1U)
 803:Drivers/STM32H7xx_HAL_Driver/Src/stm32h7xx_ll_usb.c ****     {
 804:Drivers/STM32H7xx_HAL_Driver/Src/stm32h7xx_ll_usb.c ****       if ((uint32_t)ep->xfer_buff != 0U)
 805:Drivers/STM32H7xx_HAL_Driver/Src/stm32h7xx_ll_usb.c ****       {
 806:Drivers/STM32H7xx_HAL_Driver/Src/stm32h7xx_ll_usb.c ****         USBx_OUTEP(epnum)->DOEPDMA = (uint32_t)(ep->xfer_buff);
 807:Drivers/STM32H7xx_HAL_Driver/Src/stm32h7xx_ll_usb.c ****       }
 808:Drivers/STM32H7xx_HAL_Driver/Src/stm32h7xx_ll_usb.c ****     }
 809:Drivers/STM32H7xx_HAL_Driver/Src/stm32h7xx_ll_usb.c **** 
 810:Drivers/STM32H7xx_HAL_Driver/Src/stm32h7xx_ll_usb.c ****     if (ep->type == EP_TYPE_ISOC)
 811:Drivers/STM32H7xx_HAL_Driver/Src/stm32h7xx_ll_usb.c ****     {
 812:Drivers/STM32H7xx_HAL_Driver/Src/stm32h7xx_ll_usb.c ****       if ((USBx_DEVICE->DSTS & (1U << 8)) == 0U)
 813:Drivers/STM32H7xx_HAL_Driver/Src/stm32h7xx_ll_usb.c ****       {
 814:Drivers/STM32H7xx_HAL_Driver/Src/stm32h7xx_ll_usb.c ****         USBx_OUTEP(epnum)->DOEPCTL |= USB_OTG_DOEPCTL_SODDFRM;
 815:Drivers/STM32H7xx_HAL_Driver/Src/stm32h7xx_ll_usb.c ****       }
 816:Drivers/STM32H7xx_HAL_Driver/Src/stm32h7xx_ll_usb.c ****       else
 817:Drivers/STM32H7xx_HAL_Driver/Src/stm32h7xx_ll_usb.c ****       {
 818:Drivers/STM32H7xx_HAL_Driver/Src/stm32h7xx_ll_usb.c ****         USBx_OUTEP(epnum)->DOEPCTL |= USB_OTG_DOEPCTL_SD0PID_SEVNFRM;
 819:Drivers/STM32H7xx_HAL_Driver/Src/stm32h7xx_ll_usb.c ****       }
 820:Drivers/STM32H7xx_HAL_Driver/Src/stm32h7xx_ll_usb.c ****     }
 821:Drivers/STM32H7xx_HAL_Driver/Src/stm32h7xx_ll_usb.c ****     /* EP enable */
 822:Drivers/STM32H7xx_HAL_Driver/Src/stm32h7xx_ll_usb.c ****     USBx_OUTEP(epnum)->DOEPCTL |= (USB_OTG_DOEPCTL_CNAK | USB_OTG_DOEPCTL_EPENA);
 823:Drivers/STM32H7xx_HAL_Driver/Src/stm32h7xx_ll_usb.c ****   }
 824:Drivers/STM32H7xx_HAL_Driver/Src/stm32h7xx_ll_usb.c **** 
 825:Drivers/STM32H7xx_HAL_Driver/Src/stm32h7xx_ll_usb.c ****   return HAL_OK;
 826:Drivers/STM32H7xx_HAL_Driver/Src/stm32h7xx_ll_usb.c **** }
 827:Drivers/STM32H7xx_HAL_Driver/Src/stm32h7xx_ll_usb.c **** 
 828:Drivers/STM32H7xx_HAL_Driver/Src/stm32h7xx_ll_usb.c **** /**
 829:Drivers/STM32H7xx_HAL_Driver/Src/stm32h7xx_ll_usb.c ****   * @brief  USB_EP0StartXfer : setup and starts a transfer over the EP  0
ARM GAS  C:\Users\xiaofei\AppData\Local\Temp\ccBH0Ic6.s 			page 16


 830:Drivers/STM32H7xx_HAL_Driver/Src/stm32h7xx_ll_usb.c ****   * @param  USBx  Selected device
 831:Drivers/STM32H7xx_HAL_Driver/Src/stm32h7xx_ll_usb.c ****   * @param  ep pointer to endpoint structure
 832:Drivers/STM32H7xx_HAL_Driver/Src/stm32h7xx_ll_usb.c ****   * @param  dma USB dma enabled or disabled
 833:Drivers/STM32H7xx_HAL_Driver/Src/stm32h7xx_ll_usb.c ****   *          This parameter can be one of these values:
 834:Drivers/STM32H7xx_HAL_Driver/Src/stm32h7xx_ll_usb.c ****   *           0 : DMA feature not used
 835:Drivers/STM32H7xx_HAL_Driver/Src/stm32h7xx_ll_usb.c ****   *           1 : DMA feature used
 836:Drivers/STM32H7xx_HAL_Driver/Src/stm32h7xx_ll_usb.c ****   * @retval HAL status
 837:Drivers/STM32H7xx_HAL_Driver/Src/stm32h7xx_ll_usb.c ****   */
 838:Drivers/STM32H7xx_HAL_Driver/Src/stm32h7xx_ll_usb.c **** HAL_StatusTypeDef USB_EP0StartXfer(USB_OTG_GlobalTypeDef *USBx, USB_OTG_EPTypeDef *ep, uint8_t dma)
 839:Drivers/STM32H7xx_HAL_Driver/Src/stm32h7xx_ll_usb.c **** {
 840:Drivers/STM32H7xx_HAL_Driver/Src/stm32h7xx_ll_usb.c ****   uint32_t USBx_BASE = (uint32_t)USBx;
 841:Drivers/STM32H7xx_HAL_Driver/Src/stm32h7xx_ll_usb.c ****   uint32_t epnum = (uint32_t)ep->num;
 842:Drivers/STM32H7xx_HAL_Driver/Src/stm32h7xx_ll_usb.c **** 
 843:Drivers/STM32H7xx_HAL_Driver/Src/stm32h7xx_ll_usb.c ****   /* IN endpoint */
 844:Drivers/STM32H7xx_HAL_Driver/Src/stm32h7xx_ll_usb.c ****   if (ep->is_in == 1U)
 845:Drivers/STM32H7xx_HAL_Driver/Src/stm32h7xx_ll_usb.c ****   {
 846:Drivers/STM32H7xx_HAL_Driver/Src/stm32h7xx_ll_usb.c ****     /* Zero Length Packet? */
 847:Drivers/STM32H7xx_HAL_Driver/Src/stm32h7xx_ll_usb.c ****     if (ep->xfer_len == 0U)
 848:Drivers/STM32H7xx_HAL_Driver/Src/stm32h7xx_ll_usb.c ****     {
 849:Drivers/STM32H7xx_HAL_Driver/Src/stm32h7xx_ll_usb.c ****       USBx_INEP(epnum)->DIEPTSIZ &= ~(USB_OTG_DIEPTSIZ_PKTCNT);
 850:Drivers/STM32H7xx_HAL_Driver/Src/stm32h7xx_ll_usb.c ****       USBx_INEP(epnum)->DIEPTSIZ |= (USB_OTG_DIEPTSIZ_PKTCNT & (1U << 19));
 851:Drivers/STM32H7xx_HAL_Driver/Src/stm32h7xx_ll_usb.c ****       USBx_INEP(epnum)->DIEPTSIZ &= ~(USB_OTG_DIEPTSIZ_XFRSIZ);
 852:Drivers/STM32H7xx_HAL_Driver/Src/stm32h7xx_ll_usb.c ****     }
 853:Drivers/STM32H7xx_HAL_Driver/Src/stm32h7xx_ll_usb.c ****     else
 854:Drivers/STM32H7xx_HAL_Driver/Src/stm32h7xx_ll_usb.c ****     {
 855:Drivers/STM32H7xx_HAL_Driver/Src/stm32h7xx_ll_usb.c ****       /* Program the transfer size and packet count
 856:Drivers/STM32H7xx_HAL_Driver/Src/stm32h7xx_ll_usb.c ****       * as follows: xfersize = N * maxpacket +
 857:Drivers/STM32H7xx_HAL_Driver/Src/stm32h7xx_ll_usb.c ****       * short_packet pktcnt = N + (short_packet
 858:Drivers/STM32H7xx_HAL_Driver/Src/stm32h7xx_ll_usb.c ****       * exist ? 1 : 0)
 859:Drivers/STM32H7xx_HAL_Driver/Src/stm32h7xx_ll_usb.c ****       */
 860:Drivers/STM32H7xx_HAL_Driver/Src/stm32h7xx_ll_usb.c ****       USBx_INEP(epnum)->DIEPTSIZ &= ~(USB_OTG_DIEPTSIZ_XFRSIZ);
 861:Drivers/STM32H7xx_HAL_Driver/Src/stm32h7xx_ll_usb.c ****       USBx_INEP(epnum)->DIEPTSIZ &= ~(USB_OTG_DIEPTSIZ_PKTCNT);
 862:Drivers/STM32H7xx_HAL_Driver/Src/stm32h7xx_ll_usb.c **** 
 863:Drivers/STM32H7xx_HAL_Driver/Src/stm32h7xx_ll_usb.c ****       if (ep->xfer_len > ep->maxpacket)
 864:Drivers/STM32H7xx_HAL_Driver/Src/stm32h7xx_ll_usb.c ****       {
 865:Drivers/STM32H7xx_HAL_Driver/Src/stm32h7xx_ll_usb.c ****         ep->xfer_len = ep->maxpacket;
 866:Drivers/STM32H7xx_HAL_Driver/Src/stm32h7xx_ll_usb.c ****       }
 867:Drivers/STM32H7xx_HAL_Driver/Src/stm32h7xx_ll_usb.c ****       USBx_INEP(epnum)->DIEPTSIZ |= (USB_OTG_DIEPTSIZ_PKTCNT & (1U << 19));
 868:Drivers/STM32H7xx_HAL_Driver/Src/stm32h7xx_ll_usb.c ****       USBx_INEP(epnum)->DIEPTSIZ |= (USB_OTG_DIEPTSIZ_XFRSIZ & ep->xfer_len);
 869:Drivers/STM32H7xx_HAL_Driver/Src/stm32h7xx_ll_usb.c ****     }
 870:Drivers/STM32H7xx_HAL_Driver/Src/stm32h7xx_ll_usb.c **** 
 871:Drivers/STM32H7xx_HAL_Driver/Src/stm32h7xx_ll_usb.c ****     if (dma == 1U)
 872:Drivers/STM32H7xx_HAL_Driver/Src/stm32h7xx_ll_usb.c ****     {
 873:Drivers/STM32H7xx_HAL_Driver/Src/stm32h7xx_ll_usb.c ****       if ((uint32_t)ep->dma_addr != 0U)
 874:Drivers/STM32H7xx_HAL_Driver/Src/stm32h7xx_ll_usb.c ****       {
 875:Drivers/STM32H7xx_HAL_Driver/Src/stm32h7xx_ll_usb.c ****         USBx_INEP(epnum)->DIEPDMA = (uint32_t)(ep->dma_addr);
 876:Drivers/STM32H7xx_HAL_Driver/Src/stm32h7xx_ll_usb.c ****       }
 877:Drivers/STM32H7xx_HAL_Driver/Src/stm32h7xx_ll_usb.c **** 
 878:Drivers/STM32H7xx_HAL_Driver/Src/stm32h7xx_ll_usb.c ****       /* EP enable, IN data in FIFO */
 879:Drivers/STM32H7xx_HAL_Driver/Src/stm32h7xx_ll_usb.c ****       USBx_INEP(epnum)->DIEPCTL |= (USB_OTG_DIEPCTL_CNAK | USB_OTG_DIEPCTL_EPENA);
 880:Drivers/STM32H7xx_HAL_Driver/Src/stm32h7xx_ll_usb.c ****     }
 881:Drivers/STM32H7xx_HAL_Driver/Src/stm32h7xx_ll_usb.c ****     else
 882:Drivers/STM32H7xx_HAL_Driver/Src/stm32h7xx_ll_usb.c ****     {
 883:Drivers/STM32H7xx_HAL_Driver/Src/stm32h7xx_ll_usb.c ****       /* EP enable, IN data in FIFO */
 884:Drivers/STM32H7xx_HAL_Driver/Src/stm32h7xx_ll_usb.c ****       USBx_INEP(epnum)->DIEPCTL |= (USB_OTG_DIEPCTL_CNAK | USB_OTG_DIEPCTL_EPENA);
 885:Drivers/STM32H7xx_HAL_Driver/Src/stm32h7xx_ll_usb.c **** 
 886:Drivers/STM32H7xx_HAL_Driver/Src/stm32h7xx_ll_usb.c ****       /* Enable the Tx FIFO Empty Interrupt for this EP */
ARM GAS  C:\Users\xiaofei\AppData\Local\Temp\ccBH0Ic6.s 			page 17


 887:Drivers/STM32H7xx_HAL_Driver/Src/stm32h7xx_ll_usb.c ****       if (ep->xfer_len > 0U)
 888:Drivers/STM32H7xx_HAL_Driver/Src/stm32h7xx_ll_usb.c ****       {
 889:Drivers/STM32H7xx_HAL_Driver/Src/stm32h7xx_ll_usb.c ****         USBx_DEVICE->DIEPEMPMSK |= 1UL << (ep->num & EP_ADDR_MSK);
 890:Drivers/STM32H7xx_HAL_Driver/Src/stm32h7xx_ll_usb.c ****       }
 891:Drivers/STM32H7xx_HAL_Driver/Src/stm32h7xx_ll_usb.c ****     }
 892:Drivers/STM32H7xx_HAL_Driver/Src/stm32h7xx_ll_usb.c ****   }
 893:Drivers/STM32H7xx_HAL_Driver/Src/stm32h7xx_ll_usb.c ****   else /* OUT endpoint */
 894:Drivers/STM32H7xx_HAL_Driver/Src/stm32h7xx_ll_usb.c ****   {
 895:Drivers/STM32H7xx_HAL_Driver/Src/stm32h7xx_ll_usb.c ****     /* Program the transfer size and packet count as follows:
 896:Drivers/STM32H7xx_HAL_Driver/Src/stm32h7xx_ll_usb.c ****     * pktcnt = N
 897:Drivers/STM32H7xx_HAL_Driver/Src/stm32h7xx_ll_usb.c ****     * xfersize = N * maxpacket
 898:Drivers/STM32H7xx_HAL_Driver/Src/stm32h7xx_ll_usb.c ****     */
 899:Drivers/STM32H7xx_HAL_Driver/Src/stm32h7xx_ll_usb.c ****     USBx_OUTEP(epnum)->DOEPTSIZ &= ~(USB_OTG_DOEPTSIZ_XFRSIZ);
 900:Drivers/STM32H7xx_HAL_Driver/Src/stm32h7xx_ll_usb.c ****     USBx_OUTEP(epnum)->DOEPTSIZ &= ~(USB_OTG_DOEPTSIZ_PKTCNT);
 901:Drivers/STM32H7xx_HAL_Driver/Src/stm32h7xx_ll_usb.c **** 
 902:Drivers/STM32H7xx_HAL_Driver/Src/stm32h7xx_ll_usb.c ****     if (ep->xfer_len > 0U)
 903:Drivers/STM32H7xx_HAL_Driver/Src/stm32h7xx_ll_usb.c ****     {
 904:Drivers/STM32H7xx_HAL_Driver/Src/stm32h7xx_ll_usb.c ****       ep->xfer_len = ep->maxpacket;
 905:Drivers/STM32H7xx_HAL_Driver/Src/stm32h7xx_ll_usb.c ****     }
 906:Drivers/STM32H7xx_HAL_Driver/Src/stm32h7xx_ll_usb.c **** 
 907:Drivers/STM32H7xx_HAL_Driver/Src/stm32h7xx_ll_usb.c ****     USBx_OUTEP(epnum)->DOEPTSIZ |= (USB_OTG_DOEPTSIZ_PKTCNT & (1U << 19));
 908:Drivers/STM32H7xx_HAL_Driver/Src/stm32h7xx_ll_usb.c ****     USBx_OUTEP(epnum)->DOEPTSIZ |= (USB_OTG_DOEPTSIZ_XFRSIZ & (ep->maxpacket));
 909:Drivers/STM32H7xx_HAL_Driver/Src/stm32h7xx_ll_usb.c **** 
 910:Drivers/STM32H7xx_HAL_Driver/Src/stm32h7xx_ll_usb.c ****     if (dma == 1U)
 911:Drivers/STM32H7xx_HAL_Driver/Src/stm32h7xx_ll_usb.c ****     {
 912:Drivers/STM32H7xx_HAL_Driver/Src/stm32h7xx_ll_usb.c ****       if ((uint32_t)ep->xfer_buff != 0U)
 913:Drivers/STM32H7xx_HAL_Driver/Src/stm32h7xx_ll_usb.c ****       {
 914:Drivers/STM32H7xx_HAL_Driver/Src/stm32h7xx_ll_usb.c ****         USBx_OUTEP(epnum)->DOEPDMA = (uint32_t)(ep->xfer_buff);
 915:Drivers/STM32H7xx_HAL_Driver/Src/stm32h7xx_ll_usb.c ****       }
 916:Drivers/STM32H7xx_HAL_Driver/Src/stm32h7xx_ll_usb.c ****     }
 917:Drivers/STM32H7xx_HAL_Driver/Src/stm32h7xx_ll_usb.c **** 
 918:Drivers/STM32H7xx_HAL_Driver/Src/stm32h7xx_ll_usb.c ****     /* EP enable */
 919:Drivers/STM32H7xx_HAL_Driver/Src/stm32h7xx_ll_usb.c ****     USBx_OUTEP(epnum)->DOEPCTL |= (USB_OTG_DOEPCTL_CNAK | USB_OTG_DOEPCTL_EPENA);
 920:Drivers/STM32H7xx_HAL_Driver/Src/stm32h7xx_ll_usb.c ****   }
 921:Drivers/STM32H7xx_HAL_Driver/Src/stm32h7xx_ll_usb.c **** 
 922:Drivers/STM32H7xx_HAL_Driver/Src/stm32h7xx_ll_usb.c ****   return HAL_OK;
 923:Drivers/STM32H7xx_HAL_Driver/Src/stm32h7xx_ll_usb.c **** }
 924:Drivers/STM32H7xx_HAL_Driver/Src/stm32h7xx_ll_usb.c **** 
 925:Drivers/STM32H7xx_HAL_Driver/Src/stm32h7xx_ll_usb.c **** /**
 926:Drivers/STM32H7xx_HAL_Driver/Src/stm32h7xx_ll_usb.c ****   * @brief  USB_WritePacket : Writes a packet into the Tx FIFO associated
 927:Drivers/STM32H7xx_HAL_Driver/Src/stm32h7xx_ll_usb.c ****   *         with the EP/channel
 928:Drivers/STM32H7xx_HAL_Driver/Src/stm32h7xx_ll_usb.c ****   * @param  USBx  Selected device
 929:Drivers/STM32H7xx_HAL_Driver/Src/stm32h7xx_ll_usb.c ****   * @param  src   pointer to source buffer
 930:Drivers/STM32H7xx_HAL_Driver/Src/stm32h7xx_ll_usb.c ****   * @param  ch_ep_num  endpoint or host channel number
 931:Drivers/STM32H7xx_HAL_Driver/Src/stm32h7xx_ll_usb.c ****   * @param  len  Number of bytes to write
 932:Drivers/STM32H7xx_HAL_Driver/Src/stm32h7xx_ll_usb.c ****   * @param  dma USB dma enabled or disabled
 933:Drivers/STM32H7xx_HAL_Driver/Src/stm32h7xx_ll_usb.c ****   *          This parameter can be one of these values:
 934:Drivers/STM32H7xx_HAL_Driver/Src/stm32h7xx_ll_usb.c ****   *           0 : DMA feature not used
 935:Drivers/STM32H7xx_HAL_Driver/Src/stm32h7xx_ll_usb.c ****   *           1 : DMA feature used
 936:Drivers/STM32H7xx_HAL_Driver/Src/stm32h7xx_ll_usb.c ****   * @retval HAL status
 937:Drivers/STM32H7xx_HAL_Driver/Src/stm32h7xx_ll_usb.c ****   */
 938:Drivers/STM32H7xx_HAL_Driver/Src/stm32h7xx_ll_usb.c **** HAL_StatusTypeDef USB_WritePacket(USB_OTG_GlobalTypeDef *USBx, uint8_t *src, uint8_t ch_ep_num, uin
 939:Drivers/STM32H7xx_HAL_Driver/Src/stm32h7xx_ll_usb.c **** {
 940:Drivers/STM32H7xx_HAL_Driver/Src/stm32h7xx_ll_usb.c ****   uint32_t USBx_BASE = (uint32_t)USBx;
 941:Drivers/STM32H7xx_HAL_Driver/Src/stm32h7xx_ll_usb.c ****   uint32_t *pSrc = (uint32_t *)src;
 942:Drivers/STM32H7xx_HAL_Driver/Src/stm32h7xx_ll_usb.c ****   uint32_t count32b, i;
 943:Drivers/STM32H7xx_HAL_Driver/Src/stm32h7xx_ll_usb.c **** 
ARM GAS  C:\Users\xiaofei\AppData\Local\Temp\ccBH0Ic6.s 			page 18


 944:Drivers/STM32H7xx_HAL_Driver/Src/stm32h7xx_ll_usb.c ****   if (dma == 0U)
 945:Drivers/STM32H7xx_HAL_Driver/Src/stm32h7xx_ll_usb.c ****   {
 946:Drivers/STM32H7xx_HAL_Driver/Src/stm32h7xx_ll_usb.c ****     count32b = ((uint32_t)len + 3U) / 4U;
 947:Drivers/STM32H7xx_HAL_Driver/Src/stm32h7xx_ll_usb.c ****     for (i = 0U; i < count32b; i++)
 948:Drivers/STM32H7xx_HAL_Driver/Src/stm32h7xx_ll_usb.c ****     {
 949:Drivers/STM32H7xx_HAL_Driver/Src/stm32h7xx_ll_usb.c ****       USBx_DFIFO((uint32_t)ch_ep_num) = __UNALIGNED_UINT32_READ(pSrc);
 950:Drivers/STM32H7xx_HAL_Driver/Src/stm32h7xx_ll_usb.c ****       pSrc++;
 951:Drivers/STM32H7xx_HAL_Driver/Src/stm32h7xx_ll_usb.c ****     }
 952:Drivers/STM32H7xx_HAL_Driver/Src/stm32h7xx_ll_usb.c ****   }
 953:Drivers/STM32H7xx_HAL_Driver/Src/stm32h7xx_ll_usb.c **** 
 954:Drivers/STM32H7xx_HAL_Driver/Src/stm32h7xx_ll_usb.c ****   return HAL_OK;
 955:Drivers/STM32H7xx_HAL_Driver/Src/stm32h7xx_ll_usb.c **** }
 956:Drivers/STM32H7xx_HAL_Driver/Src/stm32h7xx_ll_usb.c **** 
 957:Drivers/STM32H7xx_HAL_Driver/Src/stm32h7xx_ll_usb.c **** /**
 958:Drivers/STM32H7xx_HAL_Driver/Src/stm32h7xx_ll_usb.c ****   * @brief  USB_ReadPacket : read a packet from the RX FIFO
 959:Drivers/STM32H7xx_HAL_Driver/Src/stm32h7xx_ll_usb.c ****   * @param  USBx  Selected device
 960:Drivers/STM32H7xx_HAL_Driver/Src/stm32h7xx_ll_usb.c ****   * @param  dest  source pointer
 961:Drivers/STM32H7xx_HAL_Driver/Src/stm32h7xx_ll_usb.c ****   * @param  len  Number of bytes to read
 962:Drivers/STM32H7xx_HAL_Driver/Src/stm32h7xx_ll_usb.c ****   * @retval pointer to destination buffer
 963:Drivers/STM32H7xx_HAL_Driver/Src/stm32h7xx_ll_usb.c ****   */
 964:Drivers/STM32H7xx_HAL_Driver/Src/stm32h7xx_ll_usb.c **** void *USB_ReadPacket(USB_OTG_GlobalTypeDef *USBx, uint8_t *dest, uint16_t len)
 965:Drivers/STM32H7xx_HAL_Driver/Src/stm32h7xx_ll_usb.c **** {
 966:Drivers/STM32H7xx_HAL_Driver/Src/stm32h7xx_ll_usb.c ****   uint32_t USBx_BASE = (uint32_t)USBx;
 967:Drivers/STM32H7xx_HAL_Driver/Src/stm32h7xx_ll_usb.c ****   uint32_t *pDest = (uint32_t *)dest;
 968:Drivers/STM32H7xx_HAL_Driver/Src/stm32h7xx_ll_usb.c ****   uint32_t i;
 969:Drivers/STM32H7xx_HAL_Driver/Src/stm32h7xx_ll_usb.c ****   uint32_t count32b = ((uint32_t)len + 3U) / 4U;
 970:Drivers/STM32H7xx_HAL_Driver/Src/stm32h7xx_ll_usb.c **** 
 971:Drivers/STM32H7xx_HAL_Driver/Src/stm32h7xx_ll_usb.c ****   for (i = 0U; i < count32b; i++)
 972:Drivers/STM32H7xx_HAL_Driver/Src/stm32h7xx_ll_usb.c ****   {
 973:Drivers/STM32H7xx_HAL_Driver/Src/stm32h7xx_ll_usb.c ****     __UNALIGNED_UINT32_WRITE(pDest, USBx_DFIFO(0U));
 974:Drivers/STM32H7xx_HAL_Driver/Src/stm32h7xx_ll_usb.c ****     pDest++;
 975:Drivers/STM32H7xx_HAL_Driver/Src/stm32h7xx_ll_usb.c ****   }
 976:Drivers/STM32H7xx_HAL_Driver/Src/stm32h7xx_ll_usb.c **** 
 977:Drivers/STM32H7xx_HAL_Driver/Src/stm32h7xx_ll_usb.c ****   return ((void *)pDest);
 978:Drivers/STM32H7xx_HAL_Driver/Src/stm32h7xx_ll_usb.c **** }
 979:Drivers/STM32H7xx_HAL_Driver/Src/stm32h7xx_ll_usb.c **** 
 980:Drivers/STM32H7xx_HAL_Driver/Src/stm32h7xx_ll_usb.c **** /**
 981:Drivers/STM32H7xx_HAL_Driver/Src/stm32h7xx_ll_usb.c ****   * @brief  USB_EPSetStall : set a stall condition over an EP
 982:Drivers/STM32H7xx_HAL_Driver/Src/stm32h7xx_ll_usb.c ****   * @param  USBx  Selected device
 983:Drivers/STM32H7xx_HAL_Driver/Src/stm32h7xx_ll_usb.c ****   * @param  ep pointer to endpoint structure
 984:Drivers/STM32H7xx_HAL_Driver/Src/stm32h7xx_ll_usb.c ****   * @retval HAL status
 985:Drivers/STM32H7xx_HAL_Driver/Src/stm32h7xx_ll_usb.c ****   */
 986:Drivers/STM32H7xx_HAL_Driver/Src/stm32h7xx_ll_usb.c **** HAL_StatusTypeDef USB_EPSetStall(USB_OTG_GlobalTypeDef *USBx, USB_OTG_EPTypeDef *ep)
 987:Drivers/STM32H7xx_HAL_Driver/Src/stm32h7xx_ll_usb.c **** {
 988:Drivers/STM32H7xx_HAL_Driver/Src/stm32h7xx_ll_usb.c ****   uint32_t USBx_BASE = (uint32_t)USBx;
 989:Drivers/STM32H7xx_HAL_Driver/Src/stm32h7xx_ll_usb.c ****   uint32_t epnum = (uint32_t)ep->num;
 990:Drivers/STM32H7xx_HAL_Driver/Src/stm32h7xx_ll_usb.c **** 
 991:Drivers/STM32H7xx_HAL_Driver/Src/stm32h7xx_ll_usb.c ****   if (ep->is_in == 1U)
 992:Drivers/STM32H7xx_HAL_Driver/Src/stm32h7xx_ll_usb.c ****   {
 993:Drivers/STM32H7xx_HAL_Driver/Src/stm32h7xx_ll_usb.c ****     if (((USBx_INEP(epnum)->DIEPCTL & USB_OTG_DIEPCTL_EPENA) == 0U) && (epnum != 0U))
 994:Drivers/STM32H7xx_HAL_Driver/Src/stm32h7xx_ll_usb.c ****     {
 995:Drivers/STM32H7xx_HAL_Driver/Src/stm32h7xx_ll_usb.c ****       USBx_INEP(epnum)->DIEPCTL &= ~(USB_OTG_DIEPCTL_EPDIS);
 996:Drivers/STM32H7xx_HAL_Driver/Src/stm32h7xx_ll_usb.c ****     }
 997:Drivers/STM32H7xx_HAL_Driver/Src/stm32h7xx_ll_usb.c ****     USBx_INEP(epnum)->DIEPCTL |= USB_OTG_DIEPCTL_STALL;
 998:Drivers/STM32H7xx_HAL_Driver/Src/stm32h7xx_ll_usb.c ****   }
 999:Drivers/STM32H7xx_HAL_Driver/Src/stm32h7xx_ll_usb.c ****   else
1000:Drivers/STM32H7xx_HAL_Driver/Src/stm32h7xx_ll_usb.c ****   {
ARM GAS  C:\Users\xiaofei\AppData\Local\Temp\ccBH0Ic6.s 			page 19


1001:Drivers/STM32H7xx_HAL_Driver/Src/stm32h7xx_ll_usb.c ****     if (((USBx_OUTEP(epnum)->DOEPCTL & USB_OTG_DOEPCTL_EPENA) == 0U) && (epnum != 0U))
1002:Drivers/STM32H7xx_HAL_Driver/Src/stm32h7xx_ll_usb.c ****     {
1003:Drivers/STM32H7xx_HAL_Driver/Src/stm32h7xx_ll_usb.c ****       USBx_OUTEP(epnum)->DOEPCTL &= ~(USB_OTG_DOEPCTL_EPDIS);
1004:Drivers/STM32H7xx_HAL_Driver/Src/stm32h7xx_ll_usb.c ****     }
1005:Drivers/STM32H7xx_HAL_Driver/Src/stm32h7xx_ll_usb.c ****     USBx_OUTEP(epnum)->DOEPCTL |= USB_OTG_DOEPCTL_STALL;
1006:Drivers/STM32H7xx_HAL_Driver/Src/stm32h7xx_ll_usb.c ****   }
1007:Drivers/STM32H7xx_HAL_Driver/Src/stm32h7xx_ll_usb.c **** 
1008:Drivers/STM32H7xx_HAL_Driver/Src/stm32h7xx_ll_usb.c ****   return HAL_OK;
1009:Drivers/STM32H7xx_HAL_Driver/Src/stm32h7xx_ll_usb.c **** }
1010:Drivers/STM32H7xx_HAL_Driver/Src/stm32h7xx_ll_usb.c **** 
1011:Drivers/STM32H7xx_HAL_Driver/Src/stm32h7xx_ll_usb.c **** /**
1012:Drivers/STM32H7xx_HAL_Driver/Src/stm32h7xx_ll_usb.c ****   * @brief  USB_EPClearStall : Clear a stall condition over an EP
1013:Drivers/STM32H7xx_HAL_Driver/Src/stm32h7xx_ll_usb.c ****   * @param  USBx  Selected device
1014:Drivers/STM32H7xx_HAL_Driver/Src/stm32h7xx_ll_usb.c ****   * @param  ep pointer to endpoint structure
1015:Drivers/STM32H7xx_HAL_Driver/Src/stm32h7xx_ll_usb.c ****   * @retval HAL status
1016:Drivers/STM32H7xx_HAL_Driver/Src/stm32h7xx_ll_usb.c ****   */
1017:Drivers/STM32H7xx_HAL_Driver/Src/stm32h7xx_ll_usb.c **** HAL_StatusTypeDef USB_EPClearStall(USB_OTG_GlobalTypeDef *USBx, USB_OTG_EPTypeDef *ep)
1018:Drivers/STM32H7xx_HAL_Driver/Src/stm32h7xx_ll_usb.c **** {
1019:Drivers/STM32H7xx_HAL_Driver/Src/stm32h7xx_ll_usb.c ****   uint32_t USBx_BASE = (uint32_t)USBx;
1020:Drivers/STM32H7xx_HAL_Driver/Src/stm32h7xx_ll_usb.c ****   uint32_t epnum = (uint32_t)ep->num;
1021:Drivers/STM32H7xx_HAL_Driver/Src/stm32h7xx_ll_usb.c **** 
1022:Drivers/STM32H7xx_HAL_Driver/Src/stm32h7xx_ll_usb.c ****   if (ep->is_in == 1U)
1023:Drivers/STM32H7xx_HAL_Driver/Src/stm32h7xx_ll_usb.c ****   {
1024:Drivers/STM32H7xx_HAL_Driver/Src/stm32h7xx_ll_usb.c ****     USBx_INEP(epnum)->DIEPCTL &= ~USB_OTG_DIEPCTL_STALL;
1025:Drivers/STM32H7xx_HAL_Driver/Src/stm32h7xx_ll_usb.c ****     if ((ep->type == EP_TYPE_INTR) || (ep->type == EP_TYPE_BULK))
1026:Drivers/STM32H7xx_HAL_Driver/Src/stm32h7xx_ll_usb.c ****     {
1027:Drivers/STM32H7xx_HAL_Driver/Src/stm32h7xx_ll_usb.c ****       USBx_INEP(epnum)->DIEPCTL |= USB_OTG_DIEPCTL_SD0PID_SEVNFRM; /* DATA0 */
1028:Drivers/STM32H7xx_HAL_Driver/Src/stm32h7xx_ll_usb.c ****     }
1029:Drivers/STM32H7xx_HAL_Driver/Src/stm32h7xx_ll_usb.c ****   }
1030:Drivers/STM32H7xx_HAL_Driver/Src/stm32h7xx_ll_usb.c ****   else
1031:Drivers/STM32H7xx_HAL_Driver/Src/stm32h7xx_ll_usb.c ****   {
1032:Drivers/STM32H7xx_HAL_Driver/Src/stm32h7xx_ll_usb.c ****     USBx_OUTEP(epnum)->DOEPCTL &= ~USB_OTG_DOEPCTL_STALL;
1033:Drivers/STM32H7xx_HAL_Driver/Src/stm32h7xx_ll_usb.c ****     if ((ep->type == EP_TYPE_INTR) || (ep->type == EP_TYPE_BULK))
1034:Drivers/STM32H7xx_HAL_Driver/Src/stm32h7xx_ll_usb.c ****     {
1035:Drivers/STM32H7xx_HAL_Driver/Src/stm32h7xx_ll_usb.c ****       USBx_OUTEP(epnum)->DOEPCTL |= USB_OTG_DOEPCTL_SD0PID_SEVNFRM; /* DATA0 */
1036:Drivers/STM32H7xx_HAL_Driver/Src/stm32h7xx_ll_usb.c ****     }
1037:Drivers/STM32H7xx_HAL_Driver/Src/stm32h7xx_ll_usb.c ****   }
1038:Drivers/STM32H7xx_HAL_Driver/Src/stm32h7xx_ll_usb.c ****   return HAL_OK;
1039:Drivers/STM32H7xx_HAL_Driver/Src/stm32h7xx_ll_usb.c **** }
1040:Drivers/STM32H7xx_HAL_Driver/Src/stm32h7xx_ll_usb.c **** 
1041:Drivers/STM32H7xx_HAL_Driver/Src/stm32h7xx_ll_usb.c **** /**
1042:Drivers/STM32H7xx_HAL_Driver/Src/stm32h7xx_ll_usb.c ****   * @brief  USB_StopDevice : Stop the usb device mode
1043:Drivers/STM32H7xx_HAL_Driver/Src/stm32h7xx_ll_usb.c ****   * @param  USBx  Selected device
1044:Drivers/STM32H7xx_HAL_Driver/Src/stm32h7xx_ll_usb.c ****   * @retval HAL status
1045:Drivers/STM32H7xx_HAL_Driver/Src/stm32h7xx_ll_usb.c ****   */
1046:Drivers/STM32H7xx_HAL_Driver/Src/stm32h7xx_ll_usb.c **** HAL_StatusTypeDef USB_StopDevice(USB_OTG_GlobalTypeDef *USBx)
1047:Drivers/STM32H7xx_HAL_Driver/Src/stm32h7xx_ll_usb.c **** {
1048:Drivers/STM32H7xx_HAL_Driver/Src/stm32h7xx_ll_usb.c ****   HAL_StatusTypeDef ret;
1049:Drivers/STM32H7xx_HAL_Driver/Src/stm32h7xx_ll_usb.c ****   uint32_t USBx_BASE = (uint32_t)USBx;
1050:Drivers/STM32H7xx_HAL_Driver/Src/stm32h7xx_ll_usb.c ****   uint32_t i;
1051:Drivers/STM32H7xx_HAL_Driver/Src/stm32h7xx_ll_usb.c **** 
1052:Drivers/STM32H7xx_HAL_Driver/Src/stm32h7xx_ll_usb.c ****   /* Clear Pending interrupt */
1053:Drivers/STM32H7xx_HAL_Driver/Src/stm32h7xx_ll_usb.c ****   for (i = 0U; i < 15U; i++)
1054:Drivers/STM32H7xx_HAL_Driver/Src/stm32h7xx_ll_usb.c ****   {
1055:Drivers/STM32H7xx_HAL_Driver/Src/stm32h7xx_ll_usb.c ****     USBx_INEP(i)->DIEPINT = 0xFB7FU;
1056:Drivers/STM32H7xx_HAL_Driver/Src/stm32h7xx_ll_usb.c ****     USBx_OUTEP(i)->DOEPINT = 0xFB7FU;
1057:Drivers/STM32H7xx_HAL_Driver/Src/stm32h7xx_ll_usb.c ****   }
ARM GAS  C:\Users\xiaofei\AppData\Local\Temp\ccBH0Ic6.s 			page 20


1058:Drivers/STM32H7xx_HAL_Driver/Src/stm32h7xx_ll_usb.c **** 
1059:Drivers/STM32H7xx_HAL_Driver/Src/stm32h7xx_ll_usb.c ****   /* Clear interrupt masks */
1060:Drivers/STM32H7xx_HAL_Driver/Src/stm32h7xx_ll_usb.c ****   USBx_DEVICE->DIEPMSK  = 0U;
1061:Drivers/STM32H7xx_HAL_Driver/Src/stm32h7xx_ll_usb.c ****   USBx_DEVICE->DOEPMSK  = 0U;
1062:Drivers/STM32H7xx_HAL_Driver/Src/stm32h7xx_ll_usb.c ****   USBx_DEVICE->DAINTMSK = 0U;
1063:Drivers/STM32H7xx_HAL_Driver/Src/stm32h7xx_ll_usb.c **** 
1064:Drivers/STM32H7xx_HAL_Driver/Src/stm32h7xx_ll_usb.c ****   /* Flush the FIFO */
1065:Drivers/STM32H7xx_HAL_Driver/Src/stm32h7xx_ll_usb.c ****   ret = USB_FlushRxFifo(USBx);
1066:Drivers/STM32H7xx_HAL_Driver/Src/stm32h7xx_ll_usb.c ****   if (ret != HAL_OK)
1067:Drivers/STM32H7xx_HAL_Driver/Src/stm32h7xx_ll_usb.c ****   {
1068:Drivers/STM32H7xx_HAL_Driver/Src/stm32h7xx_ll_usb.c ****     return ret;
1069:Drivers/STM32H7xx_HAL_Driver/Src/stm32h7xx_ll_usb.c ****   }
1070:Drivers/STM32H7xx_HAL_Driver/Src/stm32h7xx_ll_usb.c **** 
1071:Drivers/STM32H7xx_HAL_Driver/Src/stm32h7xx_ll_usb.c ****   ret = USB_FlushTxFifo(USBx,  0x10U);
1072:Drivers/STM32H7xx_HAL_Driver/Src/stm32h7xx_ll_usb.c ****   if (ret != HAL_OK)
1073:Drivers/STM32H7xx_HAL_Driver/Src/stm32h7xx_ll_usb.c ****   {
1074:Drivers/STM32H7xx_HAL_Driver/Src/stm32h7xx_ll_usb.c ****     return ret;
1075:Drivers/STM32H7xx_HAL_Driver/Src/stm32h7xx_ll_usb.c ****   }
1076:Drivers/STM32H7xx_HAL_Driver/Src/stm32h7xx_ll_usb.c **** 
1077:Drivers/STM32H7xx_HAL_Driver/Src/stm32h7xx_ll_usb.c ****   return ret;
1078:Drivers/STM32H7xx_HAL_Driver/Src/stm32h7xx_ll_usb.c **** }
1079:Drivers/STM32H7xx_HAL_Driver/Src/stm32h7xx_ll_usb.c **** 
1080:Drivers/STM32H7xx_HAL_Driver/Src/stm32h7xx_ll_usb.c **** /**
1081:Drivers/STM32H7xx_HAL_Driver/Src/stm32h7xx_ll_usb.c ****   * @brief  USB_SetDevAddress : Stop the usb device mode
1082:Drivers/STM32H7xx_HAL_Driver/Src/stm32h7xx_ll_usb.c ****   * @param  USBx  Selected device
1083:Drivers/STM32H7xx_HAL_Driver/Src/stm32h7xx_ll_usb.c ****   * @param  address  new device address to be assigned
1084:Drivers/STM32H7xx_HAL_Driver/Src/stm32h7xx_ll_usb.c ****   *          This parameter can be a value from 0 to 255
1085:Drivers/STM32H7xx_HAL_Driver/Src/stm32h7xx_ll_usb.c ****   * @retval HAL status
1086:Drivers/STM32H7xx_HAL_Driver/Src/stm32h7xx_ll_usb.c ****   */
1087:Drivers/STM32H7xx_HAL_Driver/Src/stm32h7xx_ll_usb.c **** HAL_StatusTypeDef  USB_SetDevAddress(USB_OTG_GlobalTypeDef *USBx, uint8_t address)
1088:Drivers/STM32H7xx_HAL_Driver/Src/stm32h7xx_ll_usb.c **** {
1089:Drivers/STM32H7xx_HAL_Driver/Src/stm32h7xx_ll_usb.c ****   uint32_t USBx_BASE = (uint32_t)USBx;
1090:Drivers/STM32H7xx_HAL_Driver/Src/stm32h7xx_ll_usb.c **** 
1091:Drivers/STM32H7xx_HAL_Driver/Src/stm32h7xx_ll_usb.c ****   USBx_DEVICE->DCFG &= ~(USB_OTG_DCFG_DAD);
1092:Drivers/STM32H7xx_HAL_Driver/Src/stm32h7xx_ll_usb.c ****   USBx_DEVICE->DCFG |= ((uint32_t)address << 4) & USB_OTG_DCFG_DAD;
1093:Drivers/STM32H7xx_HAL_Driver/Src/stm32h7xx_ll_usb.c **** 
1094:Drivers/STM32H7xx_HAL_Driver/Src/stm32h7xx_ll_usb.c ****   return HAL_OK;
1095:Drivers/STM32H7xx_HAL_Driver/Src/stm32h7xx_ll_usb.c **** }
1096:Drivers/STM32H7xx_HAL_Driver/Src/stm32h7xx_ll_usb.c **** 
1097:Drivers/STM32H7xx_HAL_Driver/Src/stm32h7xx_ll_usb.c **** /**
1098:Drivers/STM32H7xx_HAL_Driver/Src/stm32h7xx_ll_usb.c ****   * @brief  USB_DevConnect : Connect the USB device by enabling the pull-up/pull-down
1099:Drivers/STM32H7xx_HAL_Driver/Src/stm32h7xx_ll_usb.c ****   * @param  USBx  Selected device
1100:Drivers/STM32H7xx_HAL_Driver/Src/stm32h7xx_ll_usb.c ****   * @retval HAL status
1101:Drivers/STM32H7xx_HAL_Driver/Src/stm32h7xx_ll_usb.c ****   */
1102:Drivers/STM32H7xx_HAL_Driver/Src/stm32h7xx_ll_usb.c **** HAL_StatusTypeDef  USB_DevConnect(USB_OTG_GlobalTypeDef *USBx)
1103:Drivers/STM32H7xx_HAL_Driver/Src/stm32h7xx_ll_usb.c **** {
1104:Drivers/STM32H7xx_HAL_Driver/Src/stm32h7xx_ll_usb.c ****   uint32_t USBx_BASE = (uint32_t)USBx;
1105:Drivers/STM32H7xx_HAL_Driver/Src/stm32h7xx_ll_usb.c **** 
1106:Drivers/STM32H7xx_HAL_Driver/Src/stm32h7xx_ll_usb.c ****   USBx_DEVICE->DCTL &= ~USB_OTG_DCTL_SDIS;
1107:Drivers/STM32H7xx_HAL_Driver/Src/stm32h7xx_ll_usb.c ****   HAL_Delay(3U);
1108:Drivers/STM32H7xx_HAL_Driver/Src/stm32h7xx_ll_usb.c **** 
1109:Drivers/STM32H7xx_HAL_Driver/Src/stm32h7xx_ll_usb.c ****   return HAL_OK;
1110:Drivers/STM32H7xx_HAL_Driver/Src/stm32h7xx_ll_usb.c **** }
1111:Drivers/STM32H7xx_HAL_Driver/Src/stm32h7xx_ll_usb.c **** 
1112:Drivers/STM32H7xx_HAL_Driver/Src/stm32h7xx_ll_usb.c **** /**
1113:Drivers/STM32H7xx_HAL_Driver/Src/stm32h7xx_ll_usb.c ****   * @brief  USB_DevDisconnect : Disconnect the USB device by disabling the pull-up/pull-down
1114:Drivers/STM32H7xx_HAL_Driver/Src/stm32h7xx_ll_usb.c ****   * @param  USBx  Selected device
ARM GAS  C:\Users\xiaofei\AppData\Local\Temp\ccBH0Ic6.s 			page 21


1115:Drivers/STM32H7xx_HAL_Driver/Src/stm32h7xx_ll_usb.c ****   * @retval HAL status
1116:Drivers/STM32H7xx_HAL_Driver/Src/stm32h7xx_ll_usb.c ****   */
1117:Drivers/STM32H7xx_HAL_Driver/Src/stm32h7xx_ll_usb.c **** HAL_StatusTypeDef  USB_DevDisconnect(USB_OTG_GlobalTypeDef *USBx)
1118:Drivers/STM32H7xx_HAL_Driver/Src/stm32h7xx_ll_usb.c **** {
1119:Drivers/STM32H7xx_HAL_Driver/Src/stm32h7xx_ll_usb.c ****   uint32_t USBx_BASE = (uint32_t)USBx;
1120:Drivers/STM32H7xx_HAL_Driver/Src/stm32h7xx_ll_usb.c **** 
1121:Drivers/STM32H7xx_HAL_Driver/Src/stm32h7xx_ll_usb.c ****   USBx_DEVICE->DCTL |= USB_OTG_DCTL_SDIS;
1122:Drivers/STM32H7xx_HAL_Driver/Src/stm32h7xx_ll_usb.c ****   HAL_Delay(3U);
1123:Drivers/STM32H7xx_HAL_Driver/Src/stm32h7xx_ll_usb.c **** 
1124:Drivers/STM32H7xx_HAL_Driver/Src/stm32h7xx_ll_usb.c ****   return HAL_OK;
1125:Drivers/STM32H7xx_HAL_Driver/Src/stm32h7xx_ll_usb.c **** }
1126:Drivers/STM32H7xx_HAL_Driver/Src/stm32h7xx_ll_usb.c **** 
1127:Drivers/STM32H7xx_HAL_Driver/Src/stm32h7xx_ll_usb.c **** /**
1128:Drivers/STM32H7xx_HAL_Driver/Src/stm32h7xx_ll_usb.c ****   * @brief  USB_ReadInterrupts: return the global USB interrupt status
1129:Drivers/STM32H7xx_HAL_Driver/Src/stm32h7xx_ll_usb.c ****   * @param  USBx  Selected device
1130:Drivers/STM32H7xx_HAL_Driver/Src/stm32h7xx_ll_usb.c ****   * @retval HAL status
1131:Drivers/STM32H7xx_HAL_Driver/Src/stm32h7xx_ll_usb.c ****   */
1132:Drivers/STM32H7xx_HAL_Driver/Src/stm32h7xx_ll_usb.c **** uint32_t  USB_ReadInterrupts(USB_OTG_GlobalTypeDef *USBx)
1133:Drivers/STM32H7xx_HAL_Driver/Src/stm32h7xx_ll_usb.c **** {
1134:Drivers/STM32H7xx_HAL_Driver/Src/stm32h7xx_ll_usb.c ****   uint32_t tmpreg;
1135:Drivers/STM32H7xx_HAL_Driver/Src/stm32h7xx_ll_usb.c **** 
1136:Drivers/STM32H7xx_HAL_Driver/Src/stm32h7xx_ll_usb.c ****   tmpreg = USBx->GINTSTS;
1137:Drivers/STM32H7xx_HAL_Driver/Src/stm32h7xx_ll_usb.c ****   tmpreg &= USBx->GINTMSK;
1138:Drivers/STM32H7xx_HAL_Driver/Src/stm32h7xx_ll_usb.c **** 
1139:Drivers/STM32H7xx_HAL_Driver/Src/stm32h7xx_ll_usb.c ****   return tmpreg;
1140:Drivers/STM32H7xx_HAL_Driver/Src/stm32h7xx_ll_usb.c **** }
1141:Drivers/STM32H7xx_HAL_Driver/Src/stm32h7xx_ll_usb.c **** 
1142:Drivers/STM32H7xx_HAL_Driver/Src/stm32h7xx_ll_usb.c **** /**
1143:Drivers/STM32H7xx_HAL_Driver/Src/stm32h7xx_ll_usb.c ****   * @brief  USB_ReadDevAllOutEpInterrupt: return the USB device OUT endpoints interrupt status
1144:Drivers/STM32H7xx_HAL_Driver/Src/stm32h7xx_ll_usb.c ****   * @param  USBx  Selected device
1145:Drivers/STM32H7xx_HAL_Driver/Src/stm32h7xx_ll_usb.c ****   * @retval HAL status
1146:Drivers/STM32H7xx_HAL_Driver/Src/stm32h7xx_ll_usb.c ****   */
1147:Drivers/STM32H7xx_HAL_Driver/Src/stm32h7xx_ll_usb.c **** uint32_t USB_ReadDevAllOutEpInterrupt(USB_OTG_GlobalTypeDef *USBx)
1148:Drivers/STM32H7xx_HAL_Driver/Src/stm32h7xx_ll_usb.c **** {
1149:Drivers/STM32H7xx_HAL_Driver/Src/stm32h7xx_ll_usb.c ****   uint32_t USBx_BASE = (uint32_t)USBx;
1150:Drivers/STM32H7xx_HAL_Driver/Src/stm32h7xx_ll_usb.c ****   uint32_t tmpreg;
1151:Drivers/STM32H7xx_HAL_Driver/Src/stm32h7xx_ll_usb.c **** 
1152:Drivers/STM32H7xx_HAL_Driver/Src/stm32h7xx_ll_usb.c ****   tmpreg  = USBx_DEVICE->DAINT;
1153:Drivers/STM32H7xx_HAL_Driver/Src/stm32h7xx_ll_usb.c ****   tmpreg &= USBx_DEVICE->DAINTMSK;
1154:Drivers/STM32H7xx_HAL_Driver/Src/stm32h7xx_ll_usb.c **** 
1155:Drivers/STM32H7xx_HAL_Driver/Src/stm32h7xx_ll_usb.c ****   return ((tmpreg & 0xffff0000U) >> 16);
1156:Drivers/STM32H7xx_HAL_Driver/Src/stm32h7xx_ll_usb.c **** }
1157:Drivers/STM32H7xx_HAL_Driver/Src/stm32h7xx_ll_usb.c **** 
1158:Drivers/STM32H7xx_HAL_Driver/Src/stm32h7xx_ll_usb.c **** /**
1159:Drivers/STM32H7xx_HAL_Driver/Src/stm32h7xx_ll_usb.c ****   * @brief  USB_ReadDevAllInEpInterrupt: return the USB device IN endpoints interrupt status
1160:Drivers/STM32H7xx_HAL_Driver/Src/stm32h7xx_ll_usb.c ****   * @param  USBx  Selected device
1161:Drivers/STM32H7xx_HAL_Driver/Src/stm32h7xx_ll_usb.c ****   * @retval HAL status
1162:Drivers/STM32H7xx_HAL_Driver/Src/stm32h7xx_ll_usb.c ****   */
1163:Drivers/STM32H7xx_HAL_Driver/Src/stm32h7xx_ll_usb.c **** uint32_t USB_ReadDevAllInEpInterrupt(USB_OTG_GlobalTypeDef *USBx)
1164:Drivers/STM32H7xx_HAL_Driver/Src/stm32h7xx_ll_usb.c **** {
1165:Drivers/STM32H7xx_HAL_Driver/Src/stm32h7xx_ll_usb.c ****   uint32_t USBx_BASE = (uint32_t)USBx;
1166:Drivers/STM32H7xx_HAL_Driver/Src/stm32h7xx_ll_usb.c ****   uint32_t tmpreg;
1167:Drivers/STM32H7xx_HAL_Driver/Src/stm32h7xx_ll_usb.c **** 
1168:Drivers/STM32H7xx_HAL_Driver/Src/stm32h7xx_ll_usb.c ****   tmpreg  = USBx_DEVICE->DAINT;
1169:Drivers/STM32H7xx_HAL_Driver/Src/stm32h7xx_ll_usb.c ****   tmpreg &= USBx_DEVICE->DAINTMSK;
1170:Drivers/STM32H7xx_HAL_Driver/Src/stm32h7xx_ll_usb.c **** 
1171:Drivers/STM32H7xx_HAL_Driver/Src/stm32h7xx_ll_usb.c ****   return ((tmpreg & 0xFFFFU));
ARM GAS  C:\Users\xiaofei\AppData\Local\Temp\ccBH0Ic6.s 			page 22


1172:Drivers/STM32H7xx_HAL_Driver/Src/stm32h7xx_ll_usb.c **** }
1173:Drivers/STM32H7xx_HAL_Driver/Src/stm32h7xx_ll_usb.c **** 
1174:Drivers/STM32H7xx_HAL_Driver/Src/stm32h7xx_ll_usb.c **** /**
1175:Drivers/STM32H7xx_HAL_Driver/Src/stm32h7xx_ll_usb.c ****   * @brief  Returns Device OUT EP Interrupt register
1176:Drivers/STM32H7xx_HAL_Driver/Src/stm32h7xx_ll_usb.c ****   * @param  USBx  Selected device
1177:Drivers/STM32H7xx_HAL_Driver/Src/stm32h7xx_ll_usb.c ****   * @param  epnum  endpoint number
1178:Drivers/STM32H7xx_HAL_Driver/Src/stm32h7xx_ll_usb.c ****   *          This parameter can be a value from 0 to 15
1179:Drivers/STM32H7xx_HAL_Driver/Src/stm32h7xx_ll_usb.c ****   * @retval Device OUT EP Interrupt register
1180:Drivers/STM32H7xx_HAL_Driver/Src/stm32h7xx_ll_usb.c ****   */
1181:Drivers/STM32H7xx_HAL_Driver/Src/stm32h7xx_ll_usb.c **** uint32_t USB_ReadDevOutEPInterrupt(USB_OTG_GlobalTypeDef *USBx, uint8_t epnum)
1182:Drivers/STM32H7xx_HAL_Driver/Src/stm32h7xx_ll_usb.c **** {
1183:Drivers/STM32H7xx_HAL_Driver/Src/stm32h7xx_ll_usb.c ****   uint32_t USBx_BASE = (uint32_t)USBx;
1184:Drivers/STM32H7xx_HAL_Driver/Src/stm32h7xx_ll_usb.c ****   uint32_t tmpreg;
1185:Drivers/STM32H7xx_HAL_Driver/Src/stm32h7xx_ll_usb.c **** 
1186:Drivers/STM32H7xx_HAL_Driver/Src/stm32h7xx_ll_usb.c ****   tmpreg  = USBx_OUTEP((uint32_t)epnum)->DOEPINT;
1187:Drivers/STM32H7xx_HAL_Driver/Src/stm32h7xx_ll_usb.c ****   tmpreg &= USBx_DEVICE->DOEPMSK;
1188:Drivers/STM32H7xx_HAL_Driver/Src/stm32h7xx_ll_usb.c **** 
1189:Drivers/STM32H7xx_HAL_Driver/Src/stm32h7xx_ll_usb.c ****   return tmpreg;
1190:Drivers/STM32H7xx_HAL_Driver/Src/stm32h7xx_ll_usb.c **** }
1191:Drivers/STM32H7xx_HAL_Driver/Src/stm32h7xx_ll_usb.c **** 
1192:Drivers/STM32H7xx_HAL_Driver/Src/stm32h7xx_ll_usb.c **** /**
1193:Drivers/STM32H7xx_HAL_Driver/Src/stm32h7xx_ll_usb.c ****   * @brief  Returns Device IN EP Interrupt register
1194:Drivers/STM32H7xx_HAL_Driver/Src/stm32h7xx_ll_usb.c ****   * @param  USBx  Selected device
1195:Drivers/STM32H7xx_HAL_Driver/Src/stm32h7xx_ll_usb.c ****   * @param  epnum  endpoint number
1196:Drivers/STM32H7xx_HAL_Driver/Src/stm32h7xx_ll_usb.c ****   *          This parameter can be a value from 0 to 15
1197:Drivers/STM32H7xx_HAL_Driver/Src/stm32h7xx_ll_usb.c ****   * @retval Device IN EP Interrupt register
1198:Drivers/STM32H7xx_HAL_Driver/Src/stm32h7xx_ll_usb.c ****   */
1199:Drivers/STM32H7xx_HAL_Driver/Src/stm32h7xx_ll_usb.c **** uint32_t USB_ReadDevInEPInterrupt(USB_OTG_GlobalTypeDef *USBx, uint8_t epnum)
1200:Drivers/STM32H7xx_HAL_Driver/Src/stm32h7xx_ll_usb.c **** {
1201:Drivers/STM32H7xx_HAL_Driver/Src/stm32h7xx_ll_usb.c ****   uint32_t USBx_BASE = (uint32_t)USBx;
1202:Drivers/STM32H7xx_HAL_Driver/Src/stm32h7xx_ll_usb.c ****   uint32_t tmpreg, msk, emp;
1203:Drivers/STM32H7xx_HAL_Driver/Src/stm32h7xx_ll_usb.c **** 
1204:Drivers/STM32H7xx_HAL_Driver/Src/stm32h7xx_ll_usb.c ****   msk = USBx_DEVICE->DIEPMSK;
1205:Drivers/STM32H7xx_HAL_Driver/Src/stm32h7xx_ll_usb.c ****   emp = USBx_DEVICE->DIEPEMPMSK;
1206:Drivers/STM32H7xx_HAL_Driver/Src/stm32h7xx_ll_usb.c ****   msk |= ((emp >> (epnum & EP_ADDR_MSK)) & 0x1U) << 7;
1207:Drivers/STM32H7xx_HAL_Driver/Src/stm32h7xx_ll_usb.c ****   tmpreg = USBx_INEP((uint32_t)epnum)->DIEPINT & msk;
1208:Drivers/STM32H7xx_HAL_Driver/Src/stm32h7xx_ll_usb.c **** 
1209:Drivers/STM32H7xx_HAL_Driver/Src/stm32h7xx_ll_usb.c ****   return tmpreg;
1210:Drivers/STM32H7xx_HAL_Driver/Src/stm32h7xx_ll_usb.c **** }
1211:Drivers/STM32H7xx_HAL_Driver/Src/stm32h7xx_ll_usb.c **** 
1212:Drivers/STM32H7xx_HAL_Driver/Src/stm32h7xx_ll_usb.c **** /**
1213:Drivers/STM32H7xx_HAL_Driver/Src/stm32h7xx_ll_usb.c ****   * @brief  USB_ClearInterrupts: clear a USB interrupt
1214:Drivers/STM32H7xx_HAL_Driver/Src/stm32h7xx_ll_usb.c ****   * @param  USBx  Selected device
1215:Drivers/STM32H7xx_HAL_Driver/Src/stm32h7xx_ll_usb.c ****   * @param  interrupt  interrupt flag
1216:Drivers/STM32H7xx_HAL_Driver/Src/stm32h7xx_ll_usb.c ****   * @retval None
1217:Drivers/STM32H7xx_HAL_Driver/Src/stm32h7xx_ll_usb.c ****   */
1218:Drivers/STM32H7xx_HAL_Driver/Src/stm32h7xx_ll_usb.c **** void  USB_ClearInterrupts(USB_OTG_GlobalTypeDef *USBx, uint32_t interrupt)
1219:Drivers/STM32H7xx_HAL_Driver/Src/stm32h7xx_ll_usb.c **** {
1220:Drivers/STM32H7xx_HAL_Driver/Src/stm32h7xx_ll_usb.c ****   USBx->GINTSTS |= interrupt;
1221:Drivers/STM32H7xx_HAL_Driver/Src/stm32h7xx_ll_usb.c **** }
1222:Drivers/STM32H7xx_HAL_Driver/Src/stm32h7xx_ll_usb.c **** 
1223:Drivers/STM32H7xx_HAL_Driver/Src/stm32h7xx_ll_usb.c **** /**
1224:Drivers/STM32H7xx_HAL_Driver/Src/stm32h7xx_ll_usb.c ****   * @brief  Returns USB core mode
1225:Drivers/STM32H7xx_HAL_Driver/Src/stm32h7xx_ll_usb.c ****   * @param  USBx  Selected device
1226:Drivers/STM32H7xx_HAL_Driver/Src/stm32h7xx_ll_usb.c ****   * @retval return core mode : Host or Device
1227:Drivers/STM32H7xx_HAL_Driver/Src/stm32h7xx_ll_usb.c ****   *          This parameter can be one of these values:
1228:Drivers/STM32H7xx_HAL_Driver/Src/stm32h7xx_ll_usb.c ****   *           0 : Host
ARM GAS  C:\Users\xiaofei\AppData\Local\Temp\ccBH0Ic6.s 			page 23


1229:Drivers/STM32H7xx_HAL_Driver/Src/stm32h7xx_ll_usb.c ****   *           1 : Device
1230:Drivers/STM32H7xx_HAL_Driver/Src/stm32h7xx_ll_usb.c ****   */
1231:Drivers/STM32H7xx_HAL_Driver/Src/stm32h7xx_ll_usb.c **** uint32_t USB_GetMode(USB_OTG_GlobalTypeDef *USBx)
1232:Drivers/STM32H7xx_HAL_Driver/Src/stm32h7xx_ll_usb.c **** {
1233:Drivers/STM32H7xx_HAL_Driver/Src/stm32h7xx_ll_usb.c ****   return ((USBx->GINTSTS) & 0x1U);
1234:Drivers/STM32H7xx_HAL_Driver/Src/stm32h7xx_ll_usb.c **** }
1235:Drivers/STM32H7xx_HAL_Driver/Src/stm32h7xx_ll_usb.c **** 
1236:Drivers/STM32H7xx_HAL_Driver/Src/stm32h7xx_ll_usb.c **** /**
1237:Drivers/STM32H7xx_HAL_Driver/Src/stm32h7xx_ll_usb.c ****   * @brief  Activate EP0 for Setup transactions
1238:Drivers/STM32H7xx_HAL_Driver/Src/stm32h7xx_ll_usb.c ****   * @param  USBx  Selected device
1239:Drivers/STM32H7xx_HAL_Driver/Src/stm32h7xx_ll_usb.c ****   * @retval HAL status
1240:Drivers/STM32H7xx_HAL_Driver/Src/stm32h7xx_ll_usb.c ****   */
1241:Drivers/STM32H7xx_HAL_Driver/Src/stm32h7xx_ll_usb.c **** HAL_StatusTypeDef  USB_ActivateSetup(USB_OTG_GlobalTypeDef *USBx)
1242:Drivers/STM32H7xx_HAL_Driver/Src/stm32h7xx_ll_usb.c **** {
1243:Drivers/STM32H7xx_HAL_Driver/Src/stm32h7xx_ll_usb.c ****   uint32_t USBx_BASE = (uint32_t)USBx;
1244:Drivers/STM32H7xx_HAL_Driver/Src/stm32h7xx_ll_usb.c **** 
1245:Drivers/STM32H7xx_HAL_Driver/Src/stm32h7xx_ll_usb.c ****   /* Set the MPS of the IN EP0 to 64 bytes */
1246:Drivers/STM32H7xx_HAL_Driver/Src/stm32h7xx_ll_usb.c ****   USBx_INEP(0U)->DIEPCTL &= ~USB_OTG_DIEPCTL_MPSIZ;
1247:Drivers/STM32H7xx_HAL_Driver/Src/stm32h7xx_ll_usb.c **** 
1248:Drivers/STM32H7xx_HAL_Driver/Src/stm32h7xx_ll_usb.c ****   USBx_DEVICE->DCTL |= USB_OTG_DCTL_CGINAK;
1249:Drivers/STM32H7xx_HAL_Driver/Src/stm32h7xx_ll_usb.c **** 
1250:Drivers/STM32H7xx_HAL_Driver/Src/stm32h7xx_ll_usb.c ****   return HAL_OK;
1251:Drivers/STM32H7xx_HAL_Driver/Src/stm32h7xx_ll_usb.c **** }
1252:Drivers/STM32H7xx_HAL_Driver/Src/stm32h7xx_ll_usb.c **** 
1253:Drivers/STM32H7xx_HAL_Driver/Src/stm32h7xx_ll_usb.c **** /**
1254:Drivers/STM32H7xx_HAL_Driver/Src/stm32h7xx_ll_usb.c ****   * @brief  Prepare the EP0 to start the first control setup
1255:Drivers/STM32H7xx_HAL_Driver/Src/stm32h7xx_ll_usb.c ****   * @param  USBx  Selected device
1256:Drivers/STM32H7xx_HAL_Driver/Src/stm32h7xx_ll_usb.c ****   * @param  dma USB dma enabled or disabled
1257:Drivers/STM32H7xx_HAL_Driver/Src/stm32h7xx_ll_usb.c ****   *          This parameter can be one of these values:
1258:Drivers/STM32H7xx_HAL_Driver/Src/stm32h7xx_ll_usb.c ****   *           0 : DMA feature not used
1259:Drivers/STM32H7xx_HAL_Driver/Src/stm32h7xx_ll_usb.c ****   *           1 : DMA feature used
1260:Drivers/STM32H7xx_HAL_Driver/Src/stm32h7xx_ll_usb.c ****   * @param  psetup  pointer to setup packet
1261:Drivers/STM32H7xx_HAL_Driver/Src/stm32h7xx_ll_usb.c ****   * @retval HAL status
1262:Drivers/STM32H7xx_HAL_Driver/Src/stm32h7xx_ll_usb.c ****   */
1263:Drivers/STM32H7xx_HAL_Driver/Src/stm32h7xx_ll_usb.c **** HAL_StatusTypeDef USB_EP0_OutStart(USB_OTG_GlobalTypeDef *USBx, uint8_t dma, uint8_t *psetup)
1264:Drivers/STM32H7xx_HAL_Driver/Src/stm32h7xx_ll_usb.c **** {
1265:Drivers/STM32H7xx_HAL_Driver/Src/stm32h7xx_ll_usb.c ****   uint32_t USBx_BASE = (uint32_t)USBx;
1266:Drivers/STM32H7xx_HAL_Driver/Src/stm32h7xx_ll_usb.c ****   uint32_t gSNPSiD = *(__IO uint32_t *)(&USBx->CID + 0x1U);
1267:Drivers/STM32H7xx_HAL_Driver/Src/stm32h7xx_ll_usb.c **** 
1268:Drivers/STM32H7xx_HAL_Driver/Src/stm32h7xx_ll_usb.c ****   if (gSNPSiD > USB_OTG_CORE_ID_300A)
1269:Drivers/STM32H7xx_HAL_Driver/Src/stm32h7xx_ll_usb.c ****   {
1270:Drivers/STM32H7xx_HAL_Driver/Src/stm32h7xx_ll_usb.c ****     if ((USBx_OUTEP(0U)->DOEPCTL & USB_OTG_DOEPCTL_EPENA) == USB_OTG_DOEPCTL_EPENA)
1271:Drivers/STM32H7xx_HAL_Driver/Src/stm32h7xx_ll_usb.c ****     {
1272:Drivers/STM32H7xx_HAL_Driver/Src/stm32h7xx_ll_usb.c ****       return HAL_OK;
1273:Drivers/STM32H7xx_HAL_Driver/Src/stm32h7xx_ll_usb.c ****     }
1274:Drivers/STM32H7xx_HAL_Driver/Src/stm32h7xx_ll_usb.c ****   }
1275:Drivers/STM32H7xx_HAL_Driver/Src/stm32h7xx_ll_usb.c **** 
1276:Drivers/STM32H7xx_HAL_Driver/Src/stm32h7xx_ll_usb.c ****   USBx_OUTEP(0U)->DOEPTSIZ = 0U;
1277:Drivers/STM32H7xx_HAL_Driver/Src/stm32h7xx_ll_usb.c ****   USBx_OUTEP(0U)->DOEPTSIZ |= (USB_OTG_DOEPTSIZ_PKTCNT & (1U << 19));
1278:Drivers/STM32H7xx_HAL_Driver/Src/stm32h7xx_ll_usb.c ****   USBx_OUTEP(0U)->DOEPTSIZ |= (3U * 8U);
1279:Drivers/STM32H7xx_HAL_Driver/Src/stm32h7xx_ll_usb.c ****   USBx_OUTEP(0U)->DOEPTSIZ |=  USB_OTG_DOEPTSIZ_STUPCNT;
1280:Drivers/STM32H7xx_HAL_Driver/Src/stm32h7xx_ll_usb.c **** 
1281:Drivers/STM32H7xx_HAL_Driver/Src/stm32h7xx_ll_usb.c ****   if (dma == 1U)
1282:Drivers/STM32H7xx_HAL_Driver/Src/stm32h7xx_ll_usb.c ****   {
1283:Drivers/STM32H7xx_HAL_Driver/Src/stm32h7xx_ll_usb.c ****     USBx_OUTEP(0U)->DOEPDMA = (uint32_t)psetup;
1284:Drivers/STM32H7xx_HAL_Driver/Src/stm32h7xx_ll_usb.c ****     /* EP enable */
1285:Drivers/STM32H7xx_HAL_Driver/Src/stm32h7xx_ll_usb.c ****     USBx_OUTEP(0U)->DOEPCTL |= USB_OTG_DOEPCTL_EPENA | USB_OTG_DOEPCTL_USBAEP;
ARM GAS  C:\Users\xiaofei\AppData\Local\Temp\ccBH0Ic6.s 			page 24


1286:Drivers/STM32H7xx_HAL_Driver/Src/stm32h7xx_ll_usb.c ****   }
1287:Drivers/STM32H7xx_HAL_Driver/Src/stm32h7xx_ll_usb.c **** 
1288:Drivers/STM32H7xx_HAL_Driver/Src/stm32h7xx_ll_usb.c ****   return HAL_OK;
1289:Drivers/STM32H7xx_HAL_Driver/Src/stm32h7xx_ll_usb.c **** }
1290:Drivers/STM32H7xx_HAL_Driver/Src/stm32h7xx_ll_usb.c **** 
1291:Drivers/STM32H7xx_HAL_Driver/Src/stm32h7xx_ll_usb.c **** /**
1292:Drivers/STM32H7xx_HAL_Driver/Src/stm32h7xx_ll_usb.c ****   * @brief  Reset the USB Core (needed after USB clock settings change)
1293:Drivers/STM32H7xx_HAL_Driver/Src/stm32h7xx_ll_usb.c ****   * @param  USBx  Selected device
1294:Drivers/STM32H7xx_HAL_Driver/Src/stm32h7xx_ll_usb.c ****   * @retval HAL status
1295:Drivers/STM32H7xx_HAL_Driver/Src/stm32h7xx_ll_usb.c ****   */
1296:Drivers/STM32H7xx_HAL_Driver/Src/stm32h7xx_ll_usb.c **** static HAL_StatusTypeDef USB_CoreReset(USB_OTG_GlobalTypeDef *USBx)
1297:Drivers/STM32H7xx_HAL_Driver/Src/stm32h7xx_ll_usb.c **** {
  28              		.loc 1 1297 0
  29              		.cfi_startproc
  30              		@ args = 0, pretend = 0, frame = 0
  31              		@ frame_needed = 0, uses_anonymous_args = 0
  32              		@ link register save eliminated.
  33              	.LVL0:
1298:Drivers/STM32H7xx_HAL_Driver/Src/stm32h7xx_ll_usb.c ****   uint32_t count = 0U;
  34              		.loc 1 1298 0
  35 0000 0023     		movs	r3, #0
  36              	.LVL1:
  37              	.L3:
1299:Drivers/STM32H7xx_HAL_Driver/Src/stm32h7xx_ll_usb.c **** 
1300:Drivers/STM32H7xx_HAL_Driver/Src/stm32h7xx_ll_usb.c ****   /* Wait for AHB master IDLE state. */
1301:Drivers/STM32H7xx_HAL_Driver/Src/stm32h7xx_ll_usb.c ****   do
1302:Drivers/STM32H7xx_HAL_Driver/Src/stm32h7xx_ll_usb.c ****   {
1303:Drivers/STM32H7xx_HAL_Driver/Src/stm32h7xx_ll_usb.c ****     if (++count > 200000U)
  38              		.loc 1 1303 0
  39 0002 0133     		adds	r3, r3, #1
  40              	.LVL2:
  41 0004 0C4A     		ldr	r2, .L7
  42 0006 9342     		cmp	r3, r2
  43 0008 11D8     		bhi	.L5
1304:Drivers/STM32H7xx_HAL_Driver/Src/stm32h7xx_ll_usb.c ****     {
1305:Drivers/STM32H7xx_HAL_Driver/Src/stm32h7xx_ll_usb.c ****       return HAL_TIMEOUT;
1306:Drivers/STM32H7xx_HAL_Driver/Src/stm32h7xx_ll_usb.c ****     }
1307:Drivers/STM32H7xx_HAL_Driver/Src/stm32h7xx_ll_usb.c ****   }
1308:Drivers/STM32H7xx_HAL_Driver/Src/stm32h7xx_ll_usb.c ****   while ((USBx->GRSTCTL & USB_OTG_GRSTCTL_AHBIDL) == 0U);
  44              		.loc 1 1308 0
  45 000a 0269     		ldr	r2, [r0, #16]
  46 000c 002A     		cmp	r2, #0
  47 000e F8DA     		bge	.L3
  48              	.LVL3:
1309:Drivers/STM32H7xx_HAL_Driver/Src/stm32h7xx_ll_usb.c **** 
1310:Drivers/STM32H7xx_HAL_Driver/Src/stm32h7xx_ll_usb.c ****   /* Core Soft Reset */
1311:Drivers/STM32H7xx_HAL_Driver/Src/stm32h7xx_ll_usb.c ****   count = 0U;
1312:Drivers/STM32H7xx_HAL_Driver/Src/stm32h7xx_ll_usb.c ****   USBx->GRSTCTL |= USB_OTG_GRSTCTL_CSRST;
  49              		.loc 1 1312 0
  50 0010 0369     		ldr	r3, [r0, #16]
  51 0012 43F00103 		orr	r3, r3, #1
  52 0016 0361     		str	r3, [r0, #16]
1311:Drivers/STM32H7xx_HAL_Driver/Src/stm32h7xx_ll_usb.c ****   USBx->GRSTCTL |= USB_OTG_GRSTCTL_CSRST;
  53              		.loc 1 1311 0
  54 0018 0023     		movs	r3, #0
  55              	.LVL4:
  56              	.L4:
ARM GAS  C:\Users\xiaofei\AppData\Local\Temp\ccBH0Ic6.s 			page 25


1313:Drivers/STM32H7xx_HAL_Driver/Src/stm32h7xx_ll_usb.c **** 
1314:Drivers/STM32H7xx_HAL_Driver/Src/stm32h7xx_ll_usb.c ****   do
1315:Drivers/STM32H7xx_HAL_Driver/Src/stm32h7xx_ll_usb.c ****   {
1316:Drivers/STM32H7xx_HAL_Driver/Src/stm32h7xx_ll_usb.c ****     if (++count > 200000U)
  57              		.loc 1 1316 0
  58 001a 0133     		adds	r3, r3, #1
  59              	.LVL5:
  60 001c 064A     		ldr	r2, .L7
  61 001e 9342     		cmp	r3, r2
  62 0020 07D8     		bhi	.L6
1317:Drivers/STM32H7xx_HAL_Driver/Src/stm32h7xx_ll_usb.c ****     {
1318:Drivers/STM32H7xx_HAL_Driver/Src/stm32h7xx_ll_usb.c ****       return HAL_TIMEOUT;
1319:Drivers/STM32H7xx_HAL_Driver/Src/stm32h7xx_ll_usb.c ****     }
1320:Drivers/STM32H7xx_HAL_Driver/Src/stm32h7xx_ll_usb.c ****   }
1321:Drivers/STM32H7xx_HAL_Driver/Src/stm32h7xx_ll_usb.c ****   while ((USBx->GRSTCTL & USB_OTG_GRSTCTL_CSRST) == USB_OTG_GRSTCTL_CSRST);
  63              		.loc 1 1321 0
  64 0022 0269     		ldr	r2, [r0, #16]
  65 0024 12F0010F 		tst	r2, #1
  66 0028 F7D1     		bne	.L4
1322:Drivers/STM32H7xx_HAL_Driver/Src/stm32h7xx_ll_usb.c **** 
1323:Drivers/STM32H7xx_HAL_Driver/Src/stm32h7xx_ll_usb.c ****   return HAL_OK;
  67              		.loc 1 1323 0
  68 002a 0020     		movs	r0, #0
  69              	.LVL6:
  70 002c 7047     		bx	lr
  71              	.LVL7:
  72              	.L5:
1305:Drivers/STM32H7xx_HAL_Driver/Src/stm32h7xx_ll_usb.c ****     }
  73              		.loc 1 1305 0
  74 002e 0320     		movs	r0, #3
  75              	.LVL8:
  76 0030 7047     		bx	lr
  77              	.LVL9:
  78              	.L6:
1318:Drivers/STM32H7xx_HAL_Driver/Src/stm32h7xx_ll_usb.c ****     }
  79              		.loc 1 1318 0
  80 0032 0320     		movs	r0, #3
  81              	.LVL10:
1324:Drivers/STM32H7xx_HAL_Driver/Src/stm32h7xx_ll_usb.c **** }
  82              		.loc 1 1324 0
  83 0034 7047     		bx	lr
  84              	.L8:
  85 0036 00BF     		.align	2
  86              	.L7:
  87 0038 400D0300 		.word	200000
  88              		.cfi_endproc
  89              	.LFE174:
  91              		.section	.text.USB_CoreInit,"ax",%progbits
  92              		.align	2
  93              		.global	USB_CoreInit
  94              		.thumb
  95              		.thumb_func
  97              	USB_CoreInit:
  98              	.LFB141:
  83:Drivers/STM32H7xx_HAL_Driver/Src/stm32h7xx_ll_usb.c ****   HAL_StatusTypeDef ret;
  99              		.loc 1 83 0
 100              		.cfi_startproc
ARM GAS  C:\Users\xiaofei\AppData\Local\Temp\ccBH0Ic6.s 			page 26


 101              		@ args = 56, pretend = 16, frame = 0
 102              		@ frame_needed = 0, uses_anonymous_args = 0
 103              	.LVL11:
 104 0000 84B0     		sub	sp, sp, #16
 105              	.LCFI0:
 106              		.cfi_def_cfa_offset 16
 107 0002 10B5     		push	{r4, lr}
 108              	.LCFI1:
 109              		.cfi_def_cfa_offset 24
 110              		.cfi_offset 4, -24
 111              		.cfi_offset 14, -20
 112 0004 0446     		mov	r4, r0
 113 0006 03A8     		add	r0, sp, #12
 114              	.LVL12:
 115 0008 80E80E00 		stmia	r0, {r1, r2, r3}
  86:Drivers/STM32H7xx_HAL_Driver/Src/stm32h7xx_ll_usb.c ****   {
 116              		.loc 1 86 0
 117 000c 089B     		ldr	r3, [sp, #32]
 118 000e 012B     		cmp	r3, #1
 119 0010 16D1     		bne	.L10
  88:Drivers/STM32H7xx_HAL_Driver/Src/stm32h7xx_ll_usb.c **** 
 120              		.loc 1 88 0
 121 0012 A36B     		ldr	r3, [r4, #56]
 122 0014 23F48033 		bic	r3, r3, #65536
 123 0018 A363     		str	r3, [r4, #56]
  91:Drivers/STM32H7xx_HAL_Driver/Src/stm32h7xx_ll_usb.c **** 
 124              		.loc 1 91 0
 125 001a E268     		ldr	r2, [r4, #12]
 126 001c 194B     		ldr	r3, .L16
 127 001e 1340     		ands	r3, r3, r2
 128 0020 E360     		str	r3, [r4, #12]
  94:Drivers/STM32H7xx_HAL_Driver/Src/stm32h7xx_ll_usb.c ****     if (cfg.use_external_vbus == 1U)
 129              		.loc 1 94 0
 130 0022 E368     		ldr	r3, [r4, #12]
 131 0024 23F44013 		bic	r3, r3, #3145728
 132 0028 E360     		str	r3, [r4, #12]
  95:Drivers/STM32H7xx_HAL_Driver/Src/stm32h7xx_ll_usb.c ****     {
 133              		.loc 1 95 0
 134 002a 0F9B     		ldr	r3, [sp, #60]
 135 002c 012B     		cmp	r3, #1
 136 002e 03D1     		bne	.L11
  97:Drivers/STM32H7xx_HAL_Driver/Src/stm32h7xx_ll_usb.c ****     }
 137              		.loc 1 97 0
 138 0030 E368     		ldr	r3, [r4, #12]
 139 0032 43F48013 		orr	r3, r3, #1048576
 140 0036 E360     		str	r3, [r4, #12]
 141              	.L11:
 100:Drivers/STM32H7xx_HAL_Driver/Src/stm32h7xx_ll_usb.c ****   }
 142              		.loc 1 100 0
 143 0038 2046     		mov	r0, r4
 144 003a FFF7FEFF 		bl	USB_CoreReset
 145              	.LVL13:
 146 003e 11E0     		b	.L12
 147              	.LVL14:
 148              	.L10:
 105:Drivers/STM32H7xx_HAL_Driver/Src/stm32h7xx_ll_usb.c **** 
 149              		.loc 1 105 0
ARM GAS  C:\Users\xiaofei\AppData\Local\Temp\ccBH0Ic6.s 			page 27


 150 0040 E368     		ldr	r3, [r4, #12]
 151 0042 43F04003 		orr	r3, r3, #64
 152 0046 E360     		str	r3, [r4, #12]
 108:Drivers/STM32H7xx_HAL_Driver/Src/stm32h7xx_ll_usb.c **** 
 153              		.loc 1 108 0
 154 0048 2046     		mov	r0, r4
 155 004a FFF7FEFF 		bl	USB_CoreReset
 156              	.LVL15:
 110:Drivers/STM32H7xx_HAL_Driver/Src/stm32h7xx_ll_usb.c ****     {
 157              		.loc 1 110 0
 158 004e 0C9B     		ldr	r3, [sp, #48]
 159 0050 23B9     		cbnz	r3, .L13
 113:Drivers/STM32H7xx_HAL_Driver/Src/stm32h7xx_ll_usb.c ****     }
 160              		.loc 1 113 0
 161 0052 A36B     		ldr	r3, [r4, #56]
 162 0054 43F48033 		orr	r3, r3, #65536
 163 0058 A363     		str	r3, [r4, #56]
 164 005a 03E0     		b	.L12
 165              	.L13:
 118:Drivers/STM32H7xx_HAL_Driver/Src/stm32h7xx_ll_usb.c ****     }
 166              		.loc 1 118 0
 167 005c A36B     		ldr	r3, [r4, #56]
 168 005e 23F48033 		bic	r3, r3, #65536
 169 0062 A363     		str	r3, [r4, #56]
 170              	.L12:
 122:Drivers/STM32H7xx_HAL_Driver/Src/stm32h7xx_ll_usb.c ****   {
 171              		.loc 1 122 0
 172 0064 069B     		ldr	r3, [sp, #24]
 173 0066 012B     		cmp	r3, #1
 174 0068 07D1     		bne	.L14
 124:Drivers/STM32H7xx_HAL_Driver/Src/stm32h7xx_ll_usb.c ****     USBx->GAHBCFG |= USB_OTG_GAHBCFG_DMAEN;
 175              		.loc 1 124 0
 176 006a A368     		ldr	r3, [r4, #8]
 177 006c 43F00603 		orr	r3, r3, #6
 178 0070 A360     		str	r3, [r4, #8]
 125:Drivers/STM32H7xx_HAL_Driver/Src/stm32h7xx_ll_usb.c ****   }
 179              		.loc 1 125 0
 180 0072 A368     		ldr	r3, [r4, #8]
 181 0074 43F02003 		orr	r3, r3, #32
 182 0078 A360     		str	r3, [r4, #8]
 183              	.L14:
 129:Drivers/STM32H7xx_HAL_Driver/Src/stm32h7xx_ll_usb.c **** 
 184              		.loc 1 129 0
 185 007a BDE81040 		pop	{r4, lr}
 186              	.LCFI2:
 187              		.cfi_restore 14
 188              		.cfi_restore 4
 189              		.cfi_def_cfa_offset 16
 190              	.LVL16:
 191 007e 04B0     		add	sp, sp, #16
 192              	.LCFI3:
 193              		.cfi_def_cfa_offset 0
 194 0080 7047     		bx	lr
 195              	.L17:
 196 0082 00BF     		.align	2
 197              	.L16:
 198 0084 BFFFBDFF 		.word	-4325441
ARM GAS  C:\Users\xiaofei\AppData\Local\Temp\ccBH0Ic6.s 			page 28


 199              		.cfi_endproc
 200              	.LFE141:
 202              		.section	.text.USB_SetTurnaroundTime,"ax",%progbits
 203              		.align	2
 204              		.global	USB_SetTurnaroundTime
 205              		.thumb
 206              		.thumb_func
 208              	USB_SetTurnaroundTime:
 209              	.LFB142:
 140:Drivers/STM32H7xx_HAL_Driver/Src/stm32h7xx_ll_usb.c ****   uint32_t UsbTrd;
 210              		.loc 1 140 0
 211              		.cfi_startproc
 212              		@ args = 0, pretend = 0, frame = 0
 213              		@ frame_needed = 0, uses_anonymous_args = 0
 214              		@ link register save eliminated.
 215              	.LVL17:
 147:Drivers/STM32H7xx_HAL_Driver/Src/stm32h7xx_ll_usb.c ****   {
 216              		.loc 1 147 0
 217 0000 022A     		cmp	r2, #2
 218 0002 3CD1     		bne	.L20
 149:Drivers/STM32H7xx_HAL_Driver/Src/stm32h7xx_ll_usb.c ****     {
 219              		.loc 1 149 0
 220 0004 2C4B     		ldr	r3, .L30
 221 0006 0B44     		add	r3, r3, r1
 222 0008 2C4A     		ldr	r2, .L30+4
 223              	.LVL18:
 224 000a 9342     		cmp	r3, r2
 225 000c 39D9     		bls	.L21
 154:Drivers/STM32H7xx_HAL_Driver/Src/stm32h7xx_ll_usb.c ****     {
 226              		.loc 1 154 0
 227 000e 2C4B     		ldr	r3, .L30+8
 228 0010 0B44     		add	r3, r3, r1
 229 0012 2C4A     		ldr	r2, .L30+12
 230 0014 9342     		cmp	r3, r2
 231 0016 36D9     		bls	.L22
 159:Drivers/STM32H7xx_HAL_Driver/Src/stm32h7xx_ll_usb.c ****     {
 232              		.loc 1 159 0
 233 0018 2B4B     		ldr	r3, .L30+16
 234 001a 0B44     		add	r3, r3, r1
 235 001c 2B4A     		ldr	r2, .L30+20
 236 001e 9342     		cmp	r3, r2
 237 0020 33D9     		bls	.L23
 164:Drivers/STM32H7xx_HAL_Driver/Src/stm32h7xx_ll_usb.c ****     {
 238              		.loc 1 164 0
 239 0022 2B4B     		ldr	r3, .L30+24
 240 0024 0B44     		add	r3, r3, r1
 241 0026 02F5C332 		add	r2, r2, #99840
 242 002a A032     		adds	r2, r2, #160
 243 002c 9342     		cmp	r3, r2
 244 002e 2ED9     		bls	.L24
 169:Drivers/STM32H7xx_HAL_Driver/Src/stm32h7xx_ll_usb.c ****     {
 245              		.loc 1 169 0
 246 0030 284B     		ldr	r3, .L30+28
 247 0032 0B44     		add	r3, r3, r1
 248 0034 284A     		ldr	r2, .L30+32
 249 0036 9342     		cmp	r3, r2
 250 0038 2BD9     		bls	.L25
ARM GAS  C:\Users\xiaofei\AppData\Local\Temp\ccBH0Ic6.s 			page 29


 174:Drivers/STM32H7xx_HAL_Driver/Src/stm32h7xx_ll_usb.c ****     {
 251              		.loc 1 174 0
 252 003a 284B     		ldr	r3, .L30+36
 253 003c 0B44     		add	r3, r3, r1
 254 003e 02F59222 		add	r2, r2, #299008
 255 0042 02F57872 		add	r2, r2, #992
 256 0046 9342     		cmp	r3, r2
 257 0048 25D9     		bls	.L26
 179:Drivers/STM32H7xx_HAL_Driver/Src/stm32h7xx_ll_usb.c ****     {
 258              		.loc 1 179 0
 259 004a 254B     		ldr	r3, .L30+40
 260 004c 0B44     		add	r3, r3, r1
 261 004e 02F5C322 		add	r2, r2, #399360
 262 0052 02F52072 		add	r2, r2, #640
 263 0056 9342     		cmp	r3, r2
 264 0058 1FD9     		bls	.L27
 184:Drivers/STM32H7xx_HAL_Driver/Src/stm32h7xx_ll_usb.c ****     {
 265              		.loc 1 184 0
 266 005a 224B     		ldr	r3, .L30+44
 267 005c 0B44     		add	r3, r3, r1
 268 005e 02F5B712 		add	r2, r2, #1499136
 269 0062 02F55872 		add	r2, r2, #864
 270 0066 9342     		cmp	r3, r2
 271 0068 19D9     		bls	.L28
 189:Drivers/STM32H7xx_HAL_Driver/Src/stm32h7xx_ll_usb.c ****     {
 272              		.loc 1 189 0
 273 006a 1F4B     		ldr	r3, .L30+48
 274 006c 0B44     		add	r3, r3, r1
 275 006e 02F51222 		add	r2, r2, #598016
 276 0072 02F5F862 		add	r2, r2, #1984
 277 0076 9342     		cmp	r3, r2
 278 0078 13D8     		bhi	.L29
 192:Drivers/STM32H7xx_HAL_Driver/Src/stm32h7xx_ll_usb.c ****     }
 279              		.loc 1 192 0
 280 007a 0721     		movs	r1, #7
 281              	.LVL19:
 282 007c 12E0     		b	.L19
 283              	.LVL20:
 284              	.L20:
 202:Drivers/STM32H7xx_HAL_Driver/Src/stm32h7xx_ll_usb.c ****   }
 285              		.loc 1 202 0
 286 007e 0921     		movs	r1, #9
 287              	.LVL21:
 288 0080 10E0     		b	.L19
 289              	.LVL22:
 290              	.L21:
 152:Drivers/STM32H7xx_HAL_Driver/Src/stm32h7xx_ll_usb.c ****     }
 291              		.loc 1 152 0
 292 0082 0F21     		movs	r1, #15
 293              	.LVL23:
 294 0084 0EE0     		b	.L19
 295              	.LVL24:
 296              	.L22:
 157:Drivers/STM32H7xx_HAL_Driver/Src/stm32h7xx_ll_usb.c ****     }
 297              		.loc 1 157 0
 298 0086 0E21     		movs	r1, #14
 299              	.LVL25:
ARM GAS  C:\Users\xiaofei\AppData\Local\Temp\ccBH0Ic6.s 			page 30


 300 0088 0CE0     		b	.L19
 301              	.LVL26:
 302              	.L23:
 162:Drivers/STM32H7xx_HAL_Driver/Src/stm32h7xx_ll_usb.c ****     }
 303              		.loc 1 162 0
 304 008a 0D21     		movs	r1, #13
 305              	.LVL27:
 306 008c 0AE0     		b	.L19
 307              	.LVL28:
 308              	.L24:
 167:Drivers/STM32H7xx_HAL_Driver/Src/stm32h7xx_ll_usb.c ****     }
 309              		.loc 1 167 0
 310 008e 0C21     		movs	r1, #12
 311              	.LVL29:
 312 0090 08E0     		b	.L19
 313              	.LVL30:
 314              	.L25:
 172:Drivers/STM32H7xx_HAL_Driver/Src/stm32h7xx_ll_usb.c ****     }
 315              		.loc 1 172 0
 316 0092 0B21     		movs	r1, #11
 317              	.LVL31:
 318 0094 06E0     		b	.L19
 319              	.LVL32:
 320              	.L26:
 177:Drivers/STM32H7xx_HAL_Driver/Src/stm32h7xx_ll_usb.c ****     }
 321              		.loc 1 177 0
 322 0096 0A21     		movs	r1, #10
 323              	.LVL33:
 324 0098 04E0     		b	.L19
 325              	.LVL34:
 326              	.L27:
 182:Drivers/STM32H7xx_HAL_Driver/Src/stm32h7xx_ll_usb.c ****     }
 327              		.loc 1 182 0
 328 009a 0921     		movs	r1, #9
 329              	.LVL35:
 330 009c 02E0     		b	.L19
 331              	.LVL36:
 332              	.L28:
 187:Drivers/STM32H7xx_HAL_Driver/Src/stm32h7xx_ll_usb.c ****     }
 333              		.loc 1 187 0
 334 009e 0821     		movs	r1, #8
 335              	.LVL37:
 336 00a0 00E0     		b	.L19
 337              	.LVL38:
 338              	.L29:
 197:Drivers/STM32H7xx_HAL_Driver/Src/stm32h7xx_ll_usb.c ****     }
 339              		.loc 1 197 0
 340 00a2 0621     		movs	r1, #6
 341              	.LVL39:
 342              	.L19:
 209:Drivers/STM32H7xx_HAL_Driver/Src/stm32h7xx_ll_usb.c ****   USBx->GUSBCFG |= (uint32_t)((UsbTrd << 10) & USB_OTG_GUSBCFG_TRDT);
 343              		.loc 1 209 0
 344 00a4 C268     		ldr	r2, [r0, #12]
 345 00a6 22F47052 		bic	r2, r2, #15360
 346 00aa C260     		str	r2, [r0, #12]
 210:Drivers/STM32H7xx_HAL_Driver/Src/stm32h7xx_ll_usb.c **** 
 347              		.loc 1 210 0
ARM GAS  C:\Users\xiaofei\AppData\Local\Temp\ccBH0Ic6.s 			page 31


 348 00ac C368     		ldr	r3, [r0, #12]
 349 00ae 43EA8123 		orr	r3, r3, r1, lsl #10
 350 00b2 C360     		str	r3, [r0, #12]
 213:Drivers/STM32H7xx_HAL_Driver/Src/stm32h7xx_ll_usb.c **** 
 351              		.loc 1 213 0
 352 00b4 0020     		movs	r0, #0
 353              	.LVL40:
 354 00b6 7047     		bx	lr
 355              	.L31:
 356              		.align	2
 357              	.L30:
 358 00b8 405327FF 		.word	-14200000
 359 00bc FF340C00 		.word	799999
 360 00c0 401E1BFF 		.word	-15000000
 361 00c4 3F420F00 		.word	999999
 362 00c8 00DC0BFF 		.word	-16000000
 363 00cc 7F4F1200 		.word	1199999
 364 00d0 808CF9FE 		.word	-17200000
 365 00d4 60B6E5FE 		.word	-18500000
 366 00d8 5FE31600 		.word	1499999
 367 00dc 00D3CEFE 		.word	-20000000
 368 00e0 C05BB3FE 		.word	-21800000
 369 00e4 00CA91FE 		.word	-24000000
 370 00e8 E05459FE 		.word	-27700000
 371              		.cfi_endproc
 372              	.LFE142:
 374              		.section	.text.USB_EnableGlobalInt,"ax",%progbits
 375              		.align	2
 376              		.global	USB_EnableGlobalInt
 377              		.thumb
 378              		.thumb_func
 380              	USB_EnableGlobalInt:
 381              	.LFB143:
 222:Drivers/STM32H7xx_HAL_Driver/Src/stm32h7xx_ll_usb.c ****   USBx->GAHBCFG |= USB_OTG_GAHBCFG_GINT;
 382              		.loc 1 222 0
 383              		.cfi_startproc
 384              		@ args = 0, pretend = 0, frame = 0
 385              		@ frame_needed = 0, uses_anonymous_args = 0
 386              		@ link register save eliminated.
 387              	.LVL41:
 223:Drivers/STM32H7xx_HAL_Driver/Src/stm32h7xx_ll_usb.c ****   return HAL_OK;
 388              		.loc 1 223 0
 389 0000 8368     		ldr	r3, [r0, #8]
 390 0002 43F00103 		orr	r3, r3, #1
 391 0006 8360     		str	r3, [r0, #8]
 225:Drivers/STM32H7xx_HAL_Driver/Src/stm32h7xx_ll_usb.c **** 
 392              		.loc 1 225 0
 393 0008 0020     		movs	r0, #0
 394              	.LVL42:
 395 000a 7047     		bx	lr
 396              		.cfi_endproc
 397              	.LFE143:
 399              		.section	.text.USB_DisableGlobalInt,"ax",%progbits
 400              		.align	2
 401              		.global	USB_DisableGlobalInt
 402              		.thumb
 403              		.thumb_func
ARM GAS  C:\Users\xiaofei\AppData\Local\Temp\ccBH0Ic6.s 			page 32


 405              	USB_DisableGlobalInt:
 406              	.LFB144:
 234:Drivers/STM32H7xx_HAL_Driver/Src/stm32h7xx_ll_usb.c ****   USBx->GAHBCFG &= ~USB_OTG_GAHBCFG_GINT;
 407              		.loc 1 234 0
 408              		.cfi_startproc
 409              		@ args = 0, pretend = 0, frame = 0
 410              		@ frame_needed = 0, uses_anonymous_args = 0
 411              		@ link register save eliminated.
 412              	.LVL43:
 235:Drivers/STM32H7xx_HAL_Driver/Src/stm32h7xx_ll_usb.c ****   return HAL_OK;
 413              		.loc 1 235 0
 414 0000 8368     		ldr	r3, [r0, #8]
 415 0002 23F00103 		bic	r3, r3, #1
 416 0006 8360     		str	r3, [r0, #8]
 237:Drivers/STM32H7xx_HAL_Driver/Src/stm32h7xx_ll_usb.c **** 
 417              		.loc 1 237 0
 418 0008 0020     		movs	r0, #0
 419              	.LVL44:
 420 000a 7047     		bx	lr
 421              		.cfi_endproc
 422              	.LFE144:
 424              		.section	.text.USB_SetCurrentMode,"ax",%progbits
 425              		.align	2
 426              		.global	USB_SetCurrentMode
 427              		.thumb
 428              		.thumb_func
 430              	USB_SetCurrentMode:
 431              	.LFB145:
 250:Drivers/STM32H7xx_HAL_Driver/Src/stm32h7xx_ll_usb.c ****   USBx->GUSBCFG &= ~(USB_OTG_GUSBCFG_FHMOD | USB_OTG_GUSBCFG_FDMOD);
 432              		.loc 1 250 0
 433              		.cfi_startproc
 434              		@ args = 0, pretend = 0, frame = 0
 435              		@ frame_needed = 0, uses_anonymous_args = 0
 436              	.LVL45:
 437 0000 08B5     		push	{r3, lr}
 438              	.LCFI4:
 439              		.cfi_def_cfa_offset 8
 440              		.cfi_offset 3, -8
 441              		.cfi_offset 14, -4
 251:Drivers/STM32H7xx_HAL_Driver/Src/stm32h7xx_ll_usb.c **** 
 442              		.loc 1 251 0
 443 0002 C368     		ldr	r3, [r0, #12]
 444 0004 23F0C043 		bic	r3, r3, #1610612736
 445 0008 C360     		str	r3, [r0, #12]
 253:Drivers/STM32H7xx_HAL_Driver/Src/stm32h7xx_ll_usb.c ****   {
 446              		.loc 1 253 0
 447 000a 0129     		cmp	r1, #1
 448 000c 04D1     		bne	.L35
 255:Drivers/STM32H7xx_HAL_Driver/Src/stm32h7xx_ll_usb.c ****   }
 449              		.loc 1 255 0
 450 000e C368     		ldr	r3, [r0, #12]
 451 0010 43F00053 		orr	r3, r3, #536870912
 452 0014 C360     		str	r3, [r0, #12]
 453 0016 04E0     		b	.L36
 454              	.L35:
 257:Drivers/STM32H7xx_HAL_Driver/Src/stm32h7xx_ll_usb.c ****   {
 455              		.loc 1 257 0
ARM GAS  C:\Users\xiaofei\AppData\Local\Temp\ccBH0Ic6.s 			page 33


 456 0018 41B9     		cbnz	r1, .L38
 259:Drivers/STM32H7xx_HAL_Driver/Src/stm32h7xx_ll_usb.c ****   }
 457              		.loc 1 259 0
 458 001a C368     		ldr	r3, [r0, #12]
 459 001c 43F08043 		orr	r3, r3, #1073741824
 460 0020 C360     		str	r3, [r0, #12]
 461              	.L36:
 265:Drivers/STM32H7xx_HAL_Driver/Src/stm32h7xx_ll_usb.c **** 
 462              		.loc 1 265 0
 463 0022 3220     		movs	r0, #50
 464              	.LVL46:
 465 0024 FFF7FEFF 		bl	HAL_Delay
 466              	.LVL47:
 267:Drivers/STM32H7xx_HAL_Driver/Src/stm32h7xx_ll_usb.c **** }
 467              		.loc 1 267 0
 468 0028 0020     		movs	r0, #0
 469 002a 08BD     		pop	{r3, pc}
 470              	.LVL48:
 471              	.L38:
 263:Drivers/STM32H7xx_HAL_Driver/Src/stm32h7xx_ll_usb.c ****   }
 472              		.loc 1 263 0
 473 002c 0120     		movs	r0, #1
 474              	.LVL49:
 268:Drivers/STM32H7xx_HAL_Driver/Src/stm32h7xx_ll_usb.c **** 
 475              		.loc 1 268 0
 476 002e 08BD     		pop	{r3, pc}
 477              		.cfi_endproc
 478              	.LFE145:
 480              		.section	.text.USB_FlushTxFifo,"ax",%progbits
 481              		.align	2
 482              		.global	USB_FlushTxFifo
 483              		.thumb
 484              		.thumb_func
 486              	USB_FlushTxFifo:
 487              	.LFB147:
 434:Drivers/STM32H7xx_HAL_Driver/Src/stm32h7xx_ll_usb.c ****   uint32_t count = 0U;
 488              		.loc 1 434 0
 489              		.cfi_startproc
 490              		@ args = 0, pretend = 0, frame = 0
 491              		@ frame_needed = 0, uses_anonymous_args = 0
 492              		@ link register save eliminated.
 493              	.LVL50:
 437:Drivers/STM32H7xx_HAL_Driver/Src/stm32h7xx_ll_usb.c **** 
 494              		.loc 1 437 0
 495 0000 8901     		lsls	r1, r1, #6
 496              	.LVL51:
 497 0002 41F02001 		orr	r1, r1, #32
 498 0006 0161     		str	r1, [r0, #16]
 435:Drivers/STM32H7xx_HAL_Driver/Src/stm32h7xx_ll_usb.c **** 
 499              		.loc 1 435 0
 500 0008 0023     		movs	r3, #0
 501              	.LVL52:
 502              	.L42:
 441:Drivers/STM32H7xx_HAL_Driver/Src/stm32h7xx_ll_usb.c ****     {
 503              		.loc 1 441 0
 504 000a 0133     		adds	r3, r3, #1
 505              	.LVL53:
ARM GAS  C:\Users\xiaofei\AppData\Local\Temp\ccBH0Ic6.s 			page 34


 506 000c 054A     		ldr	r2, .L44
 507 000e 9342     		cmp	r3, r2
 508 0010 05D8     		bhi	.L43
 446:Drivers/STM32H7xx_HAL_Driver/Src/stm32h7xx_ll_usb.c **** 
 509              		.loc 1 446 0
 510 0012 0269     		ldr	r2, [r0, #16]
 511 0014 12F0200F 		tst	r2, #32
 512 0018 F7D1     		bne	.L42
 448:Drivers/STM32H7xx_HAL_Driver/Src/stm32h7xx_ll_usb.c **** }
 513              		.loc 1 448 0
 514 001a 0020     		movs	r0, #0
 515              	.LVL54:
 516 001c 7047     		bx	lr
 517              	.LVL55:
 518              	.L43:
 443:Drivers/STM32H7xx_HAL_Driver/Src/stm32h7xx_ll_usb.c ****     }
 519              		.loc 1 443 0
 520 001e 0320     		movs	r0, #3
 521              	.LVL56:
 449:Drivers/STM32H7xx_HAL_Driver/Src/stm32h7xx_ll_usb.c **** 
 522              		.loc 1 449 0
 523 0020 7047     		bx	lr
 524              	.L45:
 525 0022 00BF     		.align	2
 526              	.L44:
 527 0024 400D0300 		.word	200000
 528              		.cfi_endproc
 529              	.LFE147:
 531              		.section	.text.USB_FlushRxFifo,"ax",%progbits
 532              		.align	2
 533              		.global	USB_FlushRxFifo
 534              		.thumb
 535              		.thumb_func
 537              	USB_FlushRxFifo:
 538              	.LFB148:
 457:Drivers/STM32H7xx_HAL_Driver/Src/stm32h7xx_ll_usb.c ****   uint32_t count = 0;
 539              		.loc 1 457 0
 540              		.cfi_startproc
 541              		@ args = 0, pretend = 0, frame = 0
 542              		@ frame_needed = 0, uses_anonymous_args = 0
 543              		@ link register save eliminated.
 544              	.LVL57:
 460:Drivers/STM32H7xx_HAL_Driver/Src/stm32h7xx_ll_usb.c **** 
 545              		.loc 1 460 0
 546 0000 1023     		movs	r3, #16
 547 0002 0361     		str	r3, [r0, #16]
 458:Drivers/STM32H7xx_HAL_Driver/Src/stm32h7xx_ll_usb.c **** 
 548              		.loc 1 458 0
 549 0004 0023     		movs	r3, #0
 550              	.LVL58:
 551              	.L48:
 464:Drivers/STM32H7xx_HAL_Driver/Src/stm32h7xx_ll_usb.c ****     {
 552              		.loc 1 464 0
 553 0006 0133     		adds	r3, r3, #1
 554              	.LVL59:
 555 0008 054A     		ldr	r2, .L50
 556 000a 9342     		cmp	r3, r2
ARM GAS  C:\Users\xiaofei\AppData\Local\Temp\ccBH0Ic6.s 			page 35


 557 000c 05D8     		bhi	.L49
 469:Drivers/STM32H7xx_HAL_Driver/Src/stm32h7xx_ll_usb.c **** 
 558              		.loc 1 469 0
 559 000e 0269     		ldr	r2, [r0, #16]
 560 0010 12F0100F 		tst	r2, #16
 561 0014 F7D1     		bne	.L48
 471:Drivers/STM32H7xx_HAL_Driver/Src/stm32h7xx_ll_usb.c **** }
 562              		.loc 1 471 0
 563 0016 0020     		movs	r0, #0
 564              	.LVL60:
 565 0018 7047     		bx	lr
 566              	.LVL61:
 567              	.L49:
 466:Drivers/STM32H7xx_HAL_Driver/Src/stm32h7xx_ll_usb.c ****     }
 568              		.loc 1 466 0
 569 001a 0320     		movs	r0, #3
 570              	.LVL62:
 472:Drivers/STM32H7xx_HAL_Driver/Src/stm32h7xx_ll_usb.c **** 
 571              		.loc 1 472 0
 572 001c 7047     		bx	lr
 573              	.L51:
 574 001e 00BF     		.align	2
 575              	.L50:
 576 0020 400D0300 		.word	200000
 577              		.cfi_endproc
 578              	.LFE148:
 580              		.section	.text.USB_SetDevSpeed,"ax",%progbits
 581              		.align	2
 582              		.global	USB_SetDevSpeed
 583              		.thumb
 584              		.thumb_func
 586              	USB_SetDevSpeed:
 587              	.LFB149:
 486:Drivers/STM32H7xx_HAL_Driver/Src/stm32h7xx_ll_usb.c ****   uint32_t USBx_BASE = (uint32_t)USBx;
 588              		.loc 1 486 0
 589              		.cfi_startproc
 590              		@ args = 0, pretend = 0, frame = 0
 591              		@ frame_needed = 0, uses_anonymous_args = 0
 592              		@ link register save eliminated.
 593              	.LVL63:
 489:Drivers/STM32H7xx_HAL_Driver/Src/stm32h7xx_ll_usb.c ****   return HAL_OK;
 594              		.loc 1 489 0
 595 0000 D0F80038 		ldr	r3, [r0, #2048]
 596 0004 1943     		orrs	r1, r1, r3
 597              	.LVL64:
 598 0006 C0F80018 		str	r1, [r0, #2048]
 491:Drivers/STM32H7xx_HAL_Driver/Src/stm32h7xx_ll_usb.c **** 
 599              		.loc 1 491 0
 600 000a 0020     		movs	r0, #0
 601              	.LVL65:
 602 000c 7047     		bx	lr
 603              		.cfi_endproc
 604              	.LFE149:
 606 000e 00BF     		.section	.text.USB_DevInit,"ax",%progbits
 607              		.align	2
 608              		.global	USB_DevInit
 609              		.thumb
ARM GAS  C:\Users\xiaofei\AppData\Local\Temp\ccBH0Ic6.s 			page 36


 610              		.thumb_func
 612              	USB_DevInit:
 613              	.LFB146:
 279:Drivers/STM32H7xx_HAL_Driver/Src/stm32h7xx_ll_usb.c ****   HAL_StatusTypeDef ret = HAL_OK;
 614              		.loc 1 279 0
 615              		.cfi_startproc
 616              		@ args = 56, pretend = 16, frame = 0
 617              		@ frame_needed = 0, uses_anonymous_args = 0
 618              	.LVL66:
 619 0000 84B0     		sub	sp, sp, #16
 620              	.LCFI5:
 621              		.cfi_def_cfa_offset 16
 622 0002 2DE9F041 		push	{r4, r5, r6, r7, r8, lr}
 623              	.LCFI6:
 624              		.cfi_def_cfa_offset 40
 625              		.cfi_offset 4, -40
 626              		.cfi_offset 5, -36
 627              		.cfi_offset 6, -32
 628              		.cfi_offset 7, -28
 629              		.cfi_offset 8, -24
 630              		.cfi_offset 14, -20
 631 0006 0446     		mov	r4, r0
 632 0008 07A8     		add	r0, sp, #28
 633              	.LVL67:
 634 000a 80E80E00 		stmia	r0, {r1, r2, r3}
 635              	.LVL68:
 281:Drivers/STM32H7xx_HAL_Driver/Src/stm32h7xx_ll_usb.c ****   uint32_t i;
 636              		.loc 1 281 0
 637 000e 2546     		mov	r5, r4
 638              	.LVL69:
 284:Drivers/STM32H7xx_HAL_Driver/Src/stm32h7xx_ll_usb.c ****   {
 639              		.loc 1 284 0
 640 0010 0023     		movs	r3, #0
 641 0012 06E0     		b	.L54
 642              	.LVL70:
 643              	.L55:
 286:Drivers/STM32H7xx_HAL_Driver/Src/stm32h7xx_ll_usb.c ****   }
 644              		.loc 1 286 0 discriminator 3
 645 0014 03F14002 		add	r2, r3, #64
 646 0018 04EB8202 		add	r2, r4, r2, lsl #2
 647 001c 0021     		movs	r1, #0
 648 001e 5160     		str	r1, [r2, #4]
 284:Drivers/STM32H7xx_HAL_Driver/Src/stm32h7xx_ll_usb.c ****   {
 649              		.loc 1 284 0 discriminator 3
 650 0020 0133     		adds	r3, r3, #1
 651              	.LVL71:
 652              	.L54:
 284:Drivers/STM32H7xx_HAL_Driver/Src/stm32h7xx_ll_usb.c ****   {
 653              		.loc 1 284 0 is_stmt 0 discriminator 1
 654 0022 0E2B     		cmp	r3, #14
 655 0024 F6D9     		bls	.L55
 290:Drivers/STM32H7xx_HAL_Driver/Src/stm32h7xx_ll_usb.c ****   {
 656              		.loc 1 290 0 is_stmt 1
 657 0026 119B     		ldr	r3, [sp, #68]
 658              	.LVL72:
 659 0028 93B9     		cbnz	r3, .L56
 292:Drivers/STM32H7xx_HAL_Driver/Src/stm32h7xx_ll_usb.c **** 
ARM GAS  C:\Users\xiaofei\AppData\Local\Temp\ccBH0Ic6.s 			page 37


 660              		.loc 1 292 0
 661 002a D4F80438 		ldr	r3, [r4, #2052]
 662 002e 43F00203 		orr	r3, r3, #2
 663 0032 C4F80438 		str	r3, [r4, #2052]
 295:Drivers/STM32H7xx_HAL_Driver/Src/stm32h7xx_ll_usb.c **** 
 664              		.loc 1 295 0
 665 0036 A36B     		ldr	r3, [r4, #56]
 666 0038 23F40013 		bic	r3, r3, #2097152
 667 003c A363     		str	r3, [r4, #56]
 298:Drivers/STM32H7xx_HAL_Driver/Src/stm32h7xx_ll_usb.c ****     USBx->GOTGCTL |= USB_OTG_GOTGCTL_BVALOVAL;
 668              		.loc 1 298 0
 669 003e 2368     		ldr	r3, [r4]
 670 0040 43F04003 		orr	r3, r3, #64
 671 0044 2360     		str	r3, [r4]
 299:Drivers/STM32H7xx_HAL_Driver/Src/stm32h7xx_ll_usb.c ****   }
 672              		.loc 1 299 0
 673 0046 2368     		ldr	r3, [r4]
 674 0048 43F08003 		orr	r3, r3, #128
 675 004c 2360     		str	r3, [r4]
 676 004e 03E0     		b	.L57
 677              	.L56:
 304:Drivers/STM32H7xx_HAL_Driver/Src/stm32h7xx_ll_usb.c ****   }
 678              		.loc 1 304 0
 679 0050 A36B     		ldr	r3, [r4, #56]
 680 0052 43F40013 		orr	r3, r3, #2097152
 681 0056 A363     		str	r3, [r4, #56]
 682              	.L57:
 308:Drivers/STM32H7xx_HAL_Driver/Src/stm32h7xx_ll_usb.c **** 
 683              		.loc 1 308 0
 684 0058 0023     		movs	r3, #0
 685 005a C4F8003E 		str	r3, [r4, #3584]
 311:Drivers/STM32H7xx_HAL_Driver/Src/stm32h7xx_ll_usb.c **** 
 686              		.loc 1 311 0
 687 005e 04F50066 		add	r6, r4, #2048
 688 0062 D4F80038 		ldr	r3, [r4, #2048]
 689 0066 C4F80038 		str	r3, [r4, #2048]
 313:Drivers/STM32H7xx_HAL_Driver/Src/stm32h7xx_ll_usb.c ****   {
 690              		.loc 1 313 0
 691 006a 0C9B     		ldr	r3, [sp, #48]
 692 006c 012B     		cmp	r3, #1
 693 006e 0BD1     		bne	.L58
 315:Drivers/STM32H7xx_HAL_Driver/Src/stm32h7xx_ll_usb.c ****     {
 694              		.loc 1 315 0
 695 0070 099B     		ldr	r3, [sp, #36]
 696 0072 23B9     		cbnz	r3, .L59
 318:Drivers/STM32H7xx_HAL_Driver/Src/stm32h7xx_ll_usb.c ****     }
 697              		.loc 1 318 0
 698 0074 0021     		movs	r1, #0
 699 0076 2046     		mov	r0, r4
 700 0078 FFF7FEFF 		bl	USB_SetDevSpeed
 701              	.LVL73:
 702 007c 08E0     		b	.L60
 703              	.L59:
 323:Drivers/STM32H7xx_HAL_Driver/Src/stm32h7xx_ll_usb.c ****     }
 704              		.loc 1 323 0
 705 007e 0121     		movs	r1, #1
 706 0080 2046     		mov	r0, r4
ARM GAS  C:\Users\xiaofei\AppData\Local\Temp\ccBH0Ic6.s 			page 38


 707 0082 FFF7FEFF 		bl	USB_SetDevSpeed
 708              	.LVL74:
 709 0086 03E0     		b	.L60
 710              	.L58:
 329:Drivers/STM32H7xx_HAL_Driver/Src/stm32h7xx_ll_usb.c ****   }
 711              		.loc 1 329 0
 712 0088 0321     		movs	r1, #3
 713 008a 2046     		mov	r0, r4
 714 008c FFF7FEFF 		bl	USB_SetDevSpeed
 715              	.LVL75:
 716              	.L60:
 333:Drivers/STM32H7xx_HAL_Driver/Src/stm32h7xx_ll_usb.c ****   {
 717              		.loc 1 333 0
 718 0090 1021     		movs	r1, #16
 719 0092 2046     		mov	r0, r4
 720 0094 FFF7FEFF 		bl	USB_FlushTxFifo
 721              	.LVL76:
 722 0098 10B9     		cbnz	r0, .L76
 280:Drivers/STM32H7xx_HAL_Driver/Src/stm32h7xx_ll_usb.c ****   uint32_t USBx_BASE = (uint32_t)USBx;
 723              		.loc 1 280 0
 724 009a 4FF00008 		mov	r8, #0
 725 009e 01E0     		b	.L61
 726              	.L76:
 335:Drivers/STM32H7xx_HAL_Driver/Src/stm32h7xx_ll_usb.c ****   }
 727              		.loc 1 335 0
 728 00a0 4FF00108 		mov	r8, #1
 729              	.L61:
 730              	.LVL77:
 338:Drivers/STM32H7xx_HAL_Driver/Src/stm32h7xx_ll_usb.c ****   {
 731              		.loc 1 338 0
 732 00a4 2046     		mov	r0, r4
 733 00a6 FFF7FEFF 		bl	USB_FlushRxFifo
 734              	.LVL78:
 735 00aa 08B1     		cbz	r0, .L62
 340:Drivers/STM32H7xx_HAL_Driver/Src/stm32h7xx_ll_usb.c ****   }
 736              		.loc 1 340 0
 737 00ac 4FF00108 		mov	r8, #1
 738              	.LVL79:
 739              	.L62:
 344:Drivers/STM32H7xx_HAL_Driver/Src/stm32h7xx_ll_usb.c ****   USBx_DEVICE->DOEPMSK = 0U;
 740              		.loc 1 344 0
 741 00b0 0023     		movs	r3, #0
 742 00b2 3361     		str	r3, [r6, #16]
 345:Drivers/STM32H7xx_HAL_Driver/Src/stm32h7xx_ll_usb.c ****   USBx_DEVICE->DAINTMSK = 0U;
 743              		.loc 1 345 0
 744 00b4 7361     		str	r3, [r6, #20]
 346:Drivers/STM32H7xx_HAL_Driver/Src/stm32h7xx_ll_usb.c **** 
 745              		.loc 1 346 0
 746 00b6 F361     		str	r3, [r6, #28]
 747              	.LVL80:
 348:Drivers/STM32H7xx_HAL_Driver/Src/stm32h7xx_ll_usb.c ****   {
 748              		.loc 1 348 0
 749 00b8 1BE0     		b	.L63
 750              	.LVL81:
 751              	.L67:
 350:Drivers/STM32H7xx_HAL_Driver/Src/stm32h7xx_ll_usb.c ****     {
 752              		.loc 1 350 0
ARM GAS  C:\Users\xiaofei\AppData\Local\Temp\ccBH0Ic6.s 			page 39


 753 00ba 05EB4312 		add	r2, r5, r3, lsl #5
 754 00be 02F51061 		add	r1, r2, #2304
 755 00c2 D2F80009 		ldr	r0, [r2, #2304]
 756 00c6 0028     		cmp	r0, #0
 757 00c8 0ADA     		bge	.L64
 352:Drivers/STM32H7xx_HAL_Driver/Src/stm32h7xx_ll_usb.c ****       {
 758              		.loc 1 352 0
 759 00ca 23B9     		cbnz	r3, .L65
 354:Drivers/STM32H7xx_HAL_Driver/Src/stm32h7xx_ll_usb.c ****       }
 760              		.loc 1 354 0
 761 00cc 4FF00060 		mov	r0, #134217728
 762 00d0 C2F80009 		str	r0, [r2, #2304]
 763 00d4 07E0     		b	.L66
 764              	.L65:
 358:Drivers/STM32H7xx_HAL_Driver/Src/stm32h7xx_ll_usb.c ****       }
 765              		.loc 1 358 0
 766 00d6 4FF09040 		mov	r0, #1207959552
 767 00da C2F80009 		str	r0, [r2, #2304]
 768 00de 02E0     		b	.L66
 769              	.L64:
 363:Drivers/STM32H7xx_HAL_Driver/Src/stm32h7xx_ll_usb.c ****     }
 770              		.loc 1 363 0
 771 00e0 0020     		movs	r0, #0
 772 00e2 C2F80009 		str	r0, [r2, #2304]
 773              	.L66:
 366:Drivers/STM32H7xx_HAL_Driver/Src/stm32h7xx_ll_usb.c ****     USBx_INEP(i)->DIEPINT  = 0xFB7FU;
 774              		.loc 1 366 0 discriminator 2
 775 00e6 0022     		movs	r2, #0
 776 00e8 0A61     		str	r2, [r1, #16]
 367:Drivers/STM32H7xx_HAL_Driver/Src/stm32h7xx_ll_usb.c ****   }
 777              		.loc 1 367 0 discriminator 2
 778 00ea 4FF67F32 		movw	r2, #64383
 779 00ee 8A60     		str	r2, [r1, #8]
 348:Drivers/STM32H7xx_HAL_Driver/Src/stm32h7xx_ll_usb.c ****   {
 780              		.loc 1 348 0 discriminator 2
 781 00f0 0133     		adds	r3, r3, #1
 782              	.LVL82:
 783              	.L63:
 348:Drivers/STM32H7xx_HAL_Driver/Src/stm32h7xx_ll_usb.c ****   {
 784              		.loc 1 348 0 is_stmt 0 discriminator 1
 785 00f2 0799     		ldr	r1, [sp, #28]
 786 00f4 8B42     		cmp	r3, r1
 787 00f6 E0D3     		bcc	.L67
 788 00f8 0023     		movs	r3, #0
 789              	.LVL83:
 790 00fa 1BE0     		b	.L68
 791              	.LVL84:
 792              	.L72:
 372:Drivers/STM32H7xx_HAL_Driver/Src/stm32h7xx_ll_usb.c ****     {
 793              		.loc 1 372 0 is_stmt 1
 794 00fc 05EB4312 		add	r2, r5, r3, lsl #5
 795 0100 02F53060 		add	r0, r2, #2816
 796 0104 D2F8007B 		ldr	r7, [r2, #2816]
 797 0108 002F     		cmp	r7, #0
 798 010a 0ADA     		bge	.L69
 374:Drivers/STM32H7xx_HAL_Driver/Src/stm32h7xx_ll_usb.c ****       {
 799              		.loc 1 374 0
ARM GAS  C:\Users\xiaofei\AppData\Local\Temp\ccBH0Ic6.s 			page 40


 800 010c 23B9     		cbnz	r3, .L70
 376:Drivers/STM32H7xx_HAL_Driver/Src/stm32h7xx_ll_usb.c ****       }
 801              		.loc 1 376 0
 802 010e 4FF00067 		mov	r7, #134217728
 803 0112 C2F8007B 		str	r7, [r2, #2816]
 804 0116 07E0     		b	.L71
 805              	.L70:
 380:Drivers/STM32H7xx_HAL_Driver/Src/stm32h7xx_ll_usb.c ****       }
 806              		.loc 1 380 0
 807 0118 4FF09047 		mov	r7, #1207959552
 808 011c C2F8007B 		str	r7, [r2, #2816]
 809 0120 02E0     		b	.L71
 810              	.L69:
 385:Drivers/STM32H7xx_HAL_Driver/Src/stm32h7xx_ll_usb.c ****     }
 811              		.loc 1 385 0
 812 0122 0027     		movs	r7, #0
 813 0124 C2F8007B 		str	r7, [r2, #2816]
 814              	.L71:
 388:Drivers/STM32H7xx_HAL_Driver/Src/stm32h7xx_ll_usb.c ****     USBx_OUTEP(i)->DOEPINT  = 0xFB7FU;
 815              		.loc 1 388 0 discriminator 2
 816 0128 0022     		movs	r2, #0
 817 012a 0261     		str	r2, [r0, #16]
 389:Drivers/STM32H7xx_HAL_Driver/Src/stm32h7xx_ll_usb.c ****   }
 818              		.loc 1 389 0 discriminator 2
 819 012c 4FF67F32 		movw	r2, #64383
 820 0130 8260     		str	r2, [r0, #8]
 370:Drivers/STM32H7xx_HAL_Driver/Src/stm32h7xx_ll_usb.c ****   {
 821              		.loc 1 370 0 discriminator 2
 822 0132 0133     		adds	r3, r3, #1
 823              	.LVL85:
 824              	.L68:
 370:Drivers/STM32H7xx_HAL_Driver/Src/stm32h7xx_ll_usb.c ****   {
 825              		.loc 1 370 0 is_stmt 0 discriminator 1
 826 0134 8B42     		cmp	r3, r1
 827 0136 E1D3     		bcc	.L72
 392:Drivers/STM32H7xx_HAL_Driver/Src/stm32h7xx_ll_usb.c **** 
 828              		.loc 1 392 0 is_stmt 1
 829 0138 3369     		ldr	r3, [r6, #16]
 830              	.LVL86:
 831 013a 23F48073 		bic	r3, r3, #256
 832 013e 3361     		str	r3, [r6, #16]
 395:Drivers/STM32H7xx_HAL_Driver/Src/stm32h7xx_ll_usb.c **** 
 833              		.loc 1 395 0
 834 0140 0023     		movs	r3, #0
 835 0142 A361     		str	r3, [r4, #24]
 398:Drivers/STM32H7xx_HAL_Driver/Src/stm32h7xx_ll_usb.c **** 
 836              		.loc 1 398 0
 837 0144 6FF08043 		mvn	r3, #1073741824
 838 0148 6361     		str	r3, [r4, #20]
 401:Drivers/STM32H7xx_HAL_Driver/Src/stm32h7xx_ll_usb.c ****   {
 839              		.loc 1 401 0
 840 014a 0A9B     		ldr	r3, [sp, #40]
 841 014c 1BB9     		cbnz	r3, .L73
 403:Drivers/STM32H7xx_HAL_Driver/Src/stm32h7xx_ll_usb.c ****   }
 842              		.loc 1 403 0
 843 014e A369     		ldr	r3, [r4, #24]
 844 0150 43F01003 		orr	r3, r3, #16
ARM GAS  C:\Users\xiaofei\AppData\Local\Temp\ccBH0Ic6.s 			page 41


 845 0154 A361     		str	r3, [r4, #24]
 846              	.L73:
 407:Drivers/STM32H7xx_HAL_Driver/Src/stm32h7xx_ll_usb.c ****                    USB_OTG_GINTMSK_ENUMDNEM | USB_OTG_GINTMSK_IEPINT |
 847              		.loc 1 407 0
 848 0156 A269     		ldr	r2, [r4, #24]
 849 0158 0A4B     		ldr	r3, .L79
 850 015a 1343     		orrs	r3, r3, r2
 851 015c A361     		str	r3, [r4, #24]
 412:Drivers/STM32H7xx_HAL_Driver/Src/stm32h7xx_ll_usb.c ****   {
 852              		.loc 1 412 0
 853 015e 0D9B     		ldr	r3, [sp, #52]
 854 0160 1BB1     		cbz	r3, .L74
 414:Drivers/STM32H7xx_HAL_Driver/Src/stm32h7xx_ll_usb.c ****   }
 855              		.loc 1 414 0
 856 0162 A369     		ldr	r3, [r4, #24]
 857 0164 43F00803 		orr	r3, r3, #8
 858 0168 A361     		str	r3, [r4, #24]
 859              	.L74:
 417:Drivers/STM32H7xx_HAL_Driver/Src/stm32h7xx_ll_usb.c ****   {
 860              		.loc 1 417 0
 861 016a 119B     		ldr	r3, [sp, #68]
 862 016c 012B     		cmp	r3, #1
 863 016e 03D1     		bne	.L75
 419:Drivers/STM32H7xx_HAL_Driver/Src/stm32h7xx_ll_usb.c ****   }
 864              		.loc 1 419 0
 865 0170 A269     		ldr	r2, [r4, #24]
 866 0172 054B     		ldr	r3, .L79+4
 867 0174 1343     		orrs	r3, r3, r2
 868 0176 A361     		str	r3, [r4, #24]
 869              	.L75:
 423:Drivers/STM32H7xx_HAL_Driver/Src/stm32h7xx_ll_usb.c **** 
 870              		.loc 1 423 0
 871 0178 4046     		mov	r0, r8
 872 017a BDE8F041 		pop	{r4, r5, r6, r7, r8, lr}
 873              	.LCFI7:
 874              		.cfi_restore 14
 875              		.cfi_restore 8
 876              		.cfi_restore 7
 877              		.cfi_restore 6
 878              		.cfi_restore 5
 879              		.cfi_restore 4
 880              		.cfi_def_cfa_offset 16
 881              	.LVL87:
 882 017e 04B0     		add	sp, sp, #16
 883              	.LCFI8:
 884              		.cfi_def_cfa_offset 0
 885 0180 7047     		bx	lr
 886              	.L80:
 887 0182 00BF     		.align	2
 888              	.L79:
 889 0184 00383C80 		.word	-2143537152
 890 0188 04000040 		.word	1073741828
 891              		.cfi_endproc
 892              	.LFE146:
 894              		.section	.text.USB_GetDevSpeed,"ax",%progbits
 895              		.align	2
 896              		.global	USB_GetDevSpeed
ARM GAS  C:\Users\xiaofei\AppData\Local\Temp\ccBH0Ic6.s 			page 42


 897              		.thumb
 898              		.thumb_func
 900              	USB_GetDevSpeed:
 901              	.LFB150:
 502:Drivers/STM32H7xx_HAL_Driver/Src/stm32h7xx_ll_usb.c ****   uint32_t USBx_BASE = (uint32_t)USBx;
 902              		.loc 1 502 0
 903              		.cfi_startproc
 904              		@ args = 0, pretend = 0, frame = 0
 905              		@ frame_needed = 0, uses_anonymous_args = 0
 906              		@ link register save eliminated.
 907              	.LVL88:
 505:Drivers/STM32H7xx_HAL_Driver/Src/stm32h7xx_ll_usb.c **** 
 908              		.loc 1 505 0
 909 0000 D0F80838 		ldr	r3, [r0, #2056]
 910              	.LVL89:
 507:Drivers/STM32H7xx_HAL_Driver/Src/stm32h7xx_ll_usb.c ****   {
 911              		.loc 1 507 0
 912 0004 13F00603 		ands	r3, r3, #6
 913              	.LVL90:
 914 0008 05D0     		beq	.L83
 511:Drivers/STM32H7xx_HAL_Driver/Src/stm32h7xx_ll_usb.c ****            (DevEnumSpeed == DSTS_ENUMSPD_FS_PHY_48MHZ))
 915              		.loc 1 511 0
 916 000a 062B     		cmp	r3, #6
 917 000c 18BF     		it	ne
 918 000e 022B     		cmpne	r3, #2
 919 0010 03D1     		bne	.L84
 514:Drivers/STM32H7xx_HAL_Driver/Src/stm32h7xx_ll_usb.c ****   }
 920              		.loc 1 514 0
 921 0012 0220     		movs	r0, #2
 922              	.LVL91:
 923 0014 7047     		bx	lr
 924              	.LVL92:
 925              	.L83:
 509:Drivers/STM32H7xx_HAL_Driver/Src/stm32h7xx_ll_usb.c ****   }
 926              		.loc 1 509 0
 927 0016 0020     		movs	r0, #0
 928              	.LVL93:
 929 0018 7047     		bx	lr
 930              	.LVL94:
 931              	.L84:
 518:Drivers/STM32H7xx_HAL_Driver/Src/stm32h7xx_ll_usb.c ****   }
 932              		.loc 1 518 0
 933 001a 0F20     		movs	r0, #15
 934              	.LVL95:
 522:Drivers/STM32H7xx_HAL_Driver/Src/stm32h7xx_ll_usb.c **** 
 935              		.loc 1 522 0
 936 001c 7047     		bx	lr
 937              		.cfi_endproc
 938              	.LFE150:
 940 001e 00BF     		.section	.text.USB_ActivateEndpoint,"ax",%progbits
 941              		.align	2
 942              		.global	USB_ActivateEndpoint
 943              		.thumb
 944              		.thumb_func
 946              	USB_ActivateEndpoint:
 947              	.LFB151:
 531:Drivers/STM32H7xx_HAL_Driver/Src/stm32h7xx_ll_usb.c ****   uint32_t USBx_BASE = (uint32_t)USBx;
ARM GAS  C:\Users\xiaofei\AppData\Local\Temp\ccBH0Ic6.s 			page 43


 948              		.loc 1 531 0
 949              		.cfi_startproc
 950              		@ args = 0, pretend = 0, frame = 0
 951              		@ frame_needed = 0, uses_anonymous_args = 0
 952              		@ link register save eliminated.
 953              	.LVL96:
 954 0000 70B4     		push	{r4, r5, r6}
 955              	.LCFI9:
 956              		.cfi_def_cfa_offset 12
 957              		.cfi_offset 4, -12
 958              		.cfi_offset 5, -8
 959              		.cfi_offset 6, -4
 960              	.LVL97:
 533:Drivers/STM32H7xx_HAL_Driver/Src/stm32h7xx_ll_usb.c **** 
 961              		.loc 1 533 0
 962 0002 0B78     		ldrb	r3, [r1]	@ zero_extendqisi2
 963              	.LVL98:
 535:Drivers/STM32H7xx_HAL_Driver/Src/stm32h7xx_ll_usb.c ****   {
 964              		.loc 1 535 0
 965 0004 4A78     		ldrb	r2, [r1, #1]	@ zero_extendqisi2
 966 0006 012A     		cmp	r2, #1
 967 0008 21D1     		bne	.L86
 537:Drivers/STM32H7xx_HAL_Driver/Src/stm32h7xx_ll_usb.c **** 
 968              		.loc 1 537 0
 969 000a D0F81C68 		ldr	r6, [r0, #2076]
 970 000e 03F00F02 		and	r2, r3, #15
 971 0012 0124     		movs	r4, #1
 972 0014 04FA02F2 		lsl	r2, r4, r2
 973 0018 92B2     		uxth	r2, r2
 974 001a 3243     		orrs	r2, r2, r6
 975 001c C0F81C28 		str	r2, [r0, #2076]
 539:Drivers/STM32H7xx_HAL_Driver/Src/stm32h7xx_ll_usb.c ****     {
 976              		.loc 1 539 0
 977 0020 00EB4310 		add	r0, r0, r3, lsl #5
 978              	.LVL99:
 979 0024 D0F80029 		ldr	r2, [r0, #2304]
 980 0028 12F4004F 		tst	r2, #32768
 981 002c 2DD1     		bne	.L87
 541:Drivers/STM32H7xx_HAL_Driver/Src/stm32h7xx_ll_usb.c ****                                    ((uint32_t)ep->type << 18) | (epnum << 22) |
 982              		.loc 1 541 0
 983 002e D0F80049 		ldr	r4, [r0, #2304]
 984 0032 8A68     		ldr	r2, [r1, #8]
 985 0034 C2F30A02 		ubfx	r2, r2, #0, #11
 542:Drivers/STM32H7xx_HAL_Driver/Src/stm32h7xx_ll_usb.c ****                                    USB_OTG_DIEPCTL_SD0PID_SEVNFRM |
 986              		.loc 1 542 0
 987 0038 C978     		ldrb	r1, [r1, #3]	@ zero_extendqisi2
 988              	.LVL100:
 541:Drivers/STM32H7xx_HAL_Driver/Src/stm32h7xx_ll_usb.c ****                                    ((uint32_t)ep->type << 18) | (epnum << 22) |
 989              		.loc 1 541 0
 990 003a 42EA8142 		orr	r2, r2, r1, lsl #18
 542:Drivers/STM32H7xx_HAL_Driver/Src/stm32h7xx_ll_usb.c ****                                    USB_OTG_DIEPCTL_SD0PID_SEVNFRM |
 991              		.loc 1 542 0
 992 003e 42EA8353 		orr	r3, r2, r3, lsl #22
 993              	.LVL101:
 541:Drivers/STM32H7xx_HAL_Driver/Src/stm32h7xx_ll_usb.c ****                                    ((uint32_t)ep->type << 18) | (epnum << 22) |
 994              		.loc 1 541 0
 995 0042 2343     		orrs	r3, r3, r4
ARM GAS  C:\Users\xiaofei\AppData\Local\Temp\ccBH0Ic6.s 			page 44


 996 0044 124A     		ldr	r2, .L89
 997 0046 1A43     		orrs	r2, r2, r3
 998 0048 C0F80029 		str	r2, [r0, #2304]
 999 004c 1DE0     		b	.L87
 1000              	.LVL102:
 1001              	.L86:
 549:Drivers/STM32H7xx_HAL_Driver/Src/stm32h7xx_ll_usb.c **** 
 1002              		.loc 1 549 0
 1003 004e D0F81C48 		ldr	r4, [r0, #2076]
 1004 0052 03F00F06 		and	r6, r3, #15
 1005 0056 0122     		movs	r2, #1
 1006 0058 B240     		lsls	r2, r2, r6
 1007 005a 44EA0242 		orr	r2, r4, r2, lsl #16
 1008 005e C0F81C28 		str	r2, [r0, #2076]
 551:Drivers/STM32H7xx_HAL_Driver/Src/stm32h7xx_ll_usb.c ****     {
 1009              		.loc 1 551 0
 1010 0062 00EB4310 		add	r0, r0, r3, lsl #5
 1011              	.LVL103:
 1012 0066 D0F8003B 		ldr	r3, [r0, #2816]
 1013              	.LVL104:
 1014 006a 13F4004F 		tst	r3, #32768
 1015 006e 0CD1     		bne	.L87
 553:Drivers/STM32H7xx_HAL_Driver/Src/stm32h7xx_ll_usb.c ****                                     ((uint32_t)ep->type << 18) |
 1016              		.loc 1 553 0
 1017 0070 D0F8004B 		ldr	r4, [r0, #2816]
 1018 0074 8B68     		ldr	r3, [r1, #8]
 1019 0076 C3F30A02 		ubfx	r2, r3, #0, #11
 554:Drivers/STM32H7xx_HAL_Driver/Src/stm32h7xx_ll_usb.c ****                                     USB_OTG_DIEPCTL_SD0PID_SEVNFRM |
 1020              		.loc 1 554 0
 1021 007a CB78     		ldrb	r3, [r1, #3]	@ zero_extendqisi2
 553:Drivers/STM32H7xx_HAL_Driver/Src/stm32h7xx_ll_usb.c ****                                     ((uint32_t)ep->type << 18) |
 1022              		.loc 1 553 0
 1023 007c 42EA8343 		orr	r3, r2, r3, lsl #18
 1024 0080 2343     		orrs	r3, r3, r4
 1025 0082 034A     		ldr	r2, .L89
 1026 0084 1A43     		orrs	r2, r2, r3
 1027 0086 C0F8002B 		str	r2, [r0, #2816]
 1028              	.LVL105:
 1029              	.L87:
 560:Drivers/STM32H7xx_HAL_Driver/Src/stm32h7xx_ll_usb.c **** 
 1030              		.loc 1 560 0
 1031 008a 0020     		movs	r0, #0
 1032 008c 70BC     		pop	{r4, r5, r6}
 1033              	.LCFI10:
 1034              		.cfi_restore 6
 1035              		.cfi_restore 5
 1036              		.cfi_restore 4
 1037              		.cfi_def_cfa_offset 0
 1038 008e 7047     		bx	lr
 1039              	.L90:
 1040              		.align	2
 1041              	.L89:
 1042 0090 00800010 		.word	268468224
 1043              		.cfi_endproc
 1044              	.LFE151:
 1046              		.section	.text.USB_ActivateDedicatedEndpoint,"ax",%progbits
 1047              		.align	2
ARM GAS  C:\Users\xiaofei\AppData\Local\Temp\ccBH0Ic6.s 			page 45


 1048              		.global	USB_ActivateDedicatedEndpoint
 1049              		.thumb
 1050              		.thumb_func
 1052              	USB_ActivateDedicatedEndpoint:
 1053              	.LFB152:
 569:Drivers/STM32H7xx_HAL_Driver/Src/stm32h7xx_ll_usb.c ****   uint32_t USBx_BASE = (uint32_t)USBx;
 1054              		.loc 1 569 0
 1055              		.cfi_startproc
 1056              		@ args = 0, pretend = 0, frame = 0
 1057              		@ frame_needed = 0, uses_anonymous_args = 0
 1058              		@ link register save eliminated.
 1059              	.LVL106:
 1060 0000 70B4     		push	{r4, r5, r6}
 1061              	.LCFI11:
 1062              		.cfi_def_cfa_offset 12
 1063              		.cfi_offset 4, -12
 1064              		.cfi_offset 5, -8
 1065              		.cfi_offset 6, -4
 1066              	.LVL107:
 571:Drivers/STM32H7xx_HAL_Driver/Src/stm32h7xx_ll_usb.c **** 
 1067              		.loc 1 571 0
 1068 0002 0C78     		ldrb	r4, [r1]	@ zero_extendqisi2
 1069              	.LVL108:
 574:Drivers/STM32H7xx_HAL_Driver/Src/stm32h7xx_ll_usb.c ****   {
 1070              		.loc 1 574 0
 1071 0004 4B78     		ldrb	r3, [r1, #1]	@ zero_extendqisi2
 1072 0006 012B     		cmp	r3, #1
 1073 0008 22D1     		bne	.L92
 576:Drivers/STM32H7xx_HAL_Driver/Src/stm32h7xx_ll_usb.c ****     {
 1074              		.loc 1 576 0
 1075 000a 00EB4415 		add	r5, r0, r4, lsl #5
 1076 000e D5F80039 		ldr	r3, [r5, #2304]
 1077 0012 13F4004F 		tst	r3, #32768
 1078 0016 0ED1     		bne	.L93
 578:Drivers/STM32H7xx_HAL_Driver/Src/stm32h7xx_ll_usb.c ****                                    ((uint32_t)ep->type << 18) | (epnum << 22) |
 1079              		.loc 1 578 0
 1080 0018 D5F80069 		ldr	r6, [r5, #2304]
 1081 001c 8A68     		ldr	r2, [r1, #8]
 1082 001e C2F30A02 		ubfx	r2, r2, #0, #11
 579:Drivers/STM32H7xx_HAL_Driver/Src/stm32h7xx_ll_usb.c ****                                    USB_OTG_DIEPCTL_SD0PID_SEVNFRM |
 1083              		.loc 1 579 0
 1084 0022 CB78     		ldrb	r3, [r1, #3]	@ zero_extendqisi2
 578:Drivers/STM32H7xx_HAL_Driver/Src/stm32h7xx_ll_usb.c ****                                    ((uint32_t)ep->type << 18) | (epnum << 22) |
 1085              		.loc 1 578 0
 1086 0024 42EA8343 		orr	r3, r2, r3, lsl #18
 579:Drivers/STM32H7xx_HAL_Driver/Src/stm32h7xx_ll_usb.c ****                                    USB_OTG_DIEPCTL_SD0PID_SEVNFRM |
 1087              		.loc 1 579 0
 1088 0028 43EA8453 		orr	r3, r3, r4, lsl #22
 578:Drivers/STM32H7xx_HAL_Driver/Src/stm32h7xx_ll_usb.c ****                                    ((uint32_t)ep->type << 18) | (epnum << 22) |
 1089              		.loc 1 578 0
 1090 002c 3343     		orrs	r3, r3, r6
 1091 002e 1B4A     		ldr	r2, .L97
 1092 0030 1A43     		orrs	r2, r2, r3
 1093 0032 C5F80029 		str	r2, [r5, #2304]
 1094              	.L93:
 584:Drivers/STM32H7xx_HAL_Driver/Src/stm32h7xx_ll_usb.c ****   }
 1095              		.loc 1 584 0
ARM GAS  C:\Users\xiaofei\AppData\Local\Temp\ccBH0Ic6.s 			page 46


 1096 0036 D0F83C48 		ldr	r4, [r0, #2108]
 1097              	.LVL109:
 1098 003a 0B78     		ldrb	r3, [r1]	@ zero_extendqisi2
 1099 003c 03F00F03 		and	r3, r3, #15
 1100 0040 0122     		movs	r2, #1
 1101 0042 02FA03F3 		lsl	r3, r2, r3
 1102 0046 9BB2     		uxth	r3, r3
 1103 0048 2343     		orrs	r3, r3, r4
 1104 004a C0F83C38 		str	r3, [r0, #2108]
 1105 004e 21E0     		b	.L94
 1106              	.LVL110:
 1107              	.L92:
 588:Drivers/STM32H7xx_HAL_Driver/Src/stm32h7xx_ll_usb.c ****     {
 1108              		.loc 1 588 0
 1109 0050 00EB4415 		add	r5, r0, r4, lsl #5
 1110 0054 D5F8003B 		ldr	r3, [r5, #2816]
 1111 0058 13F4004F 		tst	r3, #32768
 1112 005c 0ED1     		bne	.L95
 590:Drivers/STM32H7xx_HAL_Driver/Src/stm32h7xx_ll_usb.c ****                                     ((uint32_t)ep->type << 18) | (epnum << 22) |
 1113              		.loc 1 590 0
 1114 005e D5F8006B 		ldr	r6, [r5, #2816]
 1115 0062 8B68     		ldr	r3, [r1, #8]
 1116 0064 C3F30A02 		ubfx	r2, r3, #0, #11
 591:Drivers/STM32H7xx_HAL_Driver/Src/stm32h7xx_ll_usb.c ****                                     USB_OTG_DOEPCTL_USBAEP;
 1117              		.loc 1 591 0
 1118 0068 CB78     		ldrb	r3, [r1, #3]	@ zero_extendqisi2
 590:Drivers/STM32H7xx_HAL_Driver/Src/stm32h7xx_ll_usb.c ****                                     ((uint32_t)ep->type << 18) | (epnum << 22) |
 1119              		.loc 1 590 0
 1120 006a 42EA8342 		orr	r2, r2, r3, lsl #18
 591:Drivers/STM32H7xx_HAL_Driver/Src/stm32h7xx_ll_usb.c ****                                     USB_OTG_DOEPCTL_USBAEP;
 1121              		.loc 1 591 0
 1122 006e 42EA8453 		orr	r3, r2, r4, lsl #22
 590:Drivers/STM32H7xx_HAL_Driver/Src/stm32h7xx_ll_usb.c ****                                     ((uint32_t)ep->type << 18) | (epnum << 22) |
 1123              		.loc 1 590 0
 1124 0072 3343     		orrs	r3, r3, r6
 1125 0074 43F40043 		orr	r3, r3, #32768
 1126 0078 C5F8003B 		str	r3, [r5, #2816]
 1127              	.L95:
 595:Drivers/STM32H7xx_HAL_Driver/Src/stm32h7xx_ll_usb.c ****   }
 1128              		.loc 1 595 0
 1129 007c D0F83C28 		ldr	r2, [r0, #2108]
 1130 0080 0B78     		ldrb	r3, [r1]	@ zero_extendqisi2
 1131 0082 03F00F03 		and	r3, r3, #15
 1132 0086 0121     		movs	r1, #1
 1133              	.LVL111:
 1134 0088 01FA03F3 		lsl	r3, r1, r3
 1135 008c 42EA0343 		orr	r3, r2, r3, lsl #16
 1136 0090 C0F83C38 		str	r3, [r0, #2108]
 1137              	.LVL112:
 1138              	.L94:
 599:Drivers/STM32H7xx_HAL_Driver/Src/stm32h7xx_ll_usb.c **** 
 1139              		.loc 1 599 0
 1140 0094 0020     		movs	r0, #0
 1141              	.LVL113:
 1142 0096 70BC     		pop	{r4, r5, r6}
 1143              	.LCFI12:
 1144              		.cfi_restore 6
ARM GAS  C:\Users\xiaofei\AppData\Local\Temp\ccBH0Ic6.s 			page 47


 1145              		.cfi_restore 5
 1146              		.cfi_restore 4
 1147              		.cfi_def_cfa_offset 0
 1148 0098 7047     		bx	lr
 1149              	.L98:
 1150 009a 00BF     		.align	2
 1151              	.L97:
 1152 009c 00800010 		.word	268468224
 1153              		.cfi_endproc
 1154              	.LFE152:
 1156              		.section	.text.USB_DeactivateEndpoint,"ax",%progbits
 1157              		.align	2
 1158              		.global	USB_DeactivateEndpoint
 1159              		.thumb
 1160              		.thumb_func
 1162              	USB_DeactivateEndpoint:
 1163              	.LFB153:
 608:Drivers/STM32H7xx_HAL_Driver/Src/stm32h7xx_ll_usb.c ****   uint32_t USBx_BASE = (uint32_t)USBx;
 1164              		.loc 1 608 0
 1165              		.cfi_startproc
 1166              		@ args = 0, pretend = 0, frame = 0
 1167              		@ frame_needed = 0, uses_anonymous_args = 0
 1168              		@ link register save eliminated.
 1169              	.LVL114:
 1170 0000 30B4     		push	{r4, r5}
 1171              	.LCFI13:
 1172              		.cfi_def_cfa_offset 8
 1173              		.cfi_offset 4, -8
 1174              		.cfi_offset 5, -4
 1175              	.LVL115:
 610:Drivers/STM32H7xx_HAL_Driver/Src/stm32h7xx_ll_usb.c **** 
 1176              		.loc 1 610 0
 1177 0002 0B78     		ldrb	r3, [r1]	@ zero_extendqisi2
 1178              	.LVL116:
 613:Drivers/STM32H7xx_HAL_Driver/Src/stm32h7xx_ll_usb.c ****   {
 1179              		.loc 1 613 0
 1180 0004 4A78     		ldrb	r2, [r1, #1]	@ zero_extendqisi2
 1181 0006 012A     		cmp	r2, #1
 1182 0008 30D1     		bne	.L100
 615:Drivers/STM32H7xx_HAL_Driver/Src/stm32h7xx_ll_usb.c ****     {
 1183              		.loc 1 615 0
 1184 000a 00EB4313 		add	r3, r0, r3, lsl #5
 1185              	.LVL117:
 1186 000e D3F80029 		ldr	r2, [r3, #2304]
 1187 0012 002A     		cmp	r2, #0
 1188 0014 0BDA     		bge	.L101
 617:Drivers/STM32H7xx_HAL_Driver/Src/stm32h7xx_ll_usb.c ****       USBx_INEP(epnum)->DIEPCTL |= USB_OTG_DIEPCTL_EPDIS;
 1189              		.loc 1 617 0
 1190 0016 D3F80029 		ldr	r2, [r3, #2304]
 1191 001a 42F00062 		orr	r2, r2, #134217728
 1192 001e C3F80029 		str	r2, [r3, #2304]
 1193              	.LVL118:
 618:Drivers/STM32H7xx_HAL_Driver/Src/stm32h7xx_ll_usb.c ****     }
 1194              		.loc 1 618 0
 1195 0022 D3F80029 		ldr	r2, [r3, #2304]
 1196 0026 42F08042 		orr	r2, r2, #1073741824
 1197 002a C3F80029 		str	r2, [r3, #2304]
ARM GAS  C:\Users\xiaofei\AppData\Local\Temp\ccBH0Ic6.s 			page 48


 1198              	.L101:
 621:Drivers/STM32H7xx_HAL_Driver/Src/stm32h7xx_ll_usb.c ****     USBx_DEVICE->DAINTMSK &= ~(USB_OTG_DAINTMSK_IEPM & (uint32_t)(1UL << (ep->num & EP_ADDR_MSK)));
 1199              		.loc 1 621 0
 1200 002e D0F83C58 		ldr	r5, [r0, #2108]
 1201 0032 0A78     		ldrb	r2, [r1]	@ zero_extendqisi2
 1202 0034 02F00F02 		and	r2, r2, #15
 1203 0038 0124     		movs	r4, #1
 1204 003a 04FA02F2 		lsl	r2, r4, r2
 1205 003e 92B2     		uxth	r2, r2
 1206 0040 25EA0202 		bic	r2, r5, r2
 1207 0044 C0F83C28 		str	r2, [r0, #2108]
 622:Drivers/STM32H7xx_HAL_Driver/Src/stm32h7xx_ll_usb.c ****     USBx_INEP(epnum)->DIEPCTL &= ~(USB_OTG_DIEPCTL_USBAEP |
 1208              		.loc 1 622 0
 1209 0048 D0F81C28 		ldr	r2, [r0, #2076]
 1210 004c 0978     		ldrb	r1, [r1]	@ zero_extendqisi2
 1211              	.LVL119:
 1212 004e 01F00F01 		and	r1, r1, #15
 1213 0052 8C40     		lsls	r4, r4, r1
 1214 0054 A4B2     		uxth	r4, r4
 1215 0056 22EA0404 		bic	r4, r2, r4
 1216 005a C0F81C48 		str	r4, [r0, #2076]
 623:Drivers/STM32H7xx_HAL_Driver/Src/stm32h7xx_ll_usb.c ****                                    USB_OTG_DIEPCTL_MPSIZ |
 1217              		.loc 1 623 0
 1218 005e D3F80019 		ldr	r1, [r3, #2304]
 1219 0062 1B4A     		ldr	r2, .L105
 1220 0064 0A40     		ands	r2, r2, r1
 1221 0066 C3F80029 		str	r2, [r3, #2304]
 1222 006a 2DE0     		b	.L102
 1223              	.LVL120:
 1224              	.L100:
 631:Drivers/STM32H7xx_HAL_Driver/Src/stm32h7xx_ll_usb.c ****     {
 1225              		.loc 1 631 0
 1226 006c 00EB4313 		add	r3, r0, r3, lsl #5
 1227              	.LVL121:
 1228 0070 D3F8002B 		ldr	r2, [r3, #2816]
 1229 0074 002A     		cmp	r2, #0
 1230 0076 0BDA     		bge	.L103
 633:Drivers/STM32H7xx_HAL_Driver/Src/stm32h7xx_ll_usb.c ****       USBx_OUTEP(epnum)->DOEPCTL |= USB_OTG_DOEPCTL_EPDIS;
 1231              		.loc 1 633 0
 1232 0078 D3F8002B 		ldr	r2, [r3, #2816]
 1233 007c 42F00062 		orr	r2, r2, #134217728
 1234 0080 C3F8002B 		str	r2, [r3, #2816]
 1235              	.LVL122:
 634:Drivers/STM32H7xx_HAL_Driver/Src/stm32h7xx_ll_usb.c ****     }
 1236              		.loc 1 634 0
 1237 0084 D3F8002B 		ldr	r2, [r3, #2816]
 1238 0088 42F08042 		orr	r2, r2, #1073741824
 1239 008c C3F8002B 		str	r2, [r3, #2816]
 1240              	.L103:
 637:Drivers/STM32H7xx_HAL_Driver/Src/stm32h7xx_ll_usb.c ****     USBx_DEVICE->DAINTMSK &= ~(USB_OTG_DAINTMSK_OEPM & ((uint32_t)(1UL << (ep->num & EP_ADDR_MSK)) 
 1241              		.loc 1 637 0
 1242 0090 D0F83C58 		ldr	r5, [r0, #2108]
 1243 0094 0A78     		ldrb	r2, [r1]	@ zero_extendqisi2
 1244 0096 02F00F02 		and	r2, r2, #15
 1245 009a 0124     		movs	r4, #1
 1246 009c 04FA02F2 		lsl	r2, r4, r2
 1247 00a0 25EA0242 		bic	r2, r5, r2, lsl #16
ARM GAS  C:\Users\xiaofei\AppData\Local\Temp\ccBH0Ic6.s 			page 49


 1248 00a4 C0F83C28 		str	r2, [r0, #2108]
 638:Drivers/STM32H7xx_HAL_Driver/Src/stm32h7xx_ll_usb.c ****     USBx_OUTEP(epnum)->DOEPCTL &= ~(USB_OTG_DOEPCTL_USBAEP |
 1249              		.loc 1 638 0
 1250 00a8 D0F81C28 		ldr	r2, [r0, #2076]
 1251 00ac 0978     		ldrb	r1, [r1]	@ zero_extendqisi2
 1252              	.LVL123:
 1253 00ae 01F00F01 		and	r1, r1, #15
 1254 00b2 8C40     		lsls	r4, r4, r1
 1255 00b4 22EA0444 		bic	r4, r2, r4, lsl #16
 1256 00b8 C0F81C48 		str	r4, [r0, #2076]
 639:Drivers/STM32H7xx_HAL_Driver/Src/stm32h7xx_ll_usb.c ****                                     USB_OTG_DOEPCTL_MPSIZ |
 1257              		.loc 1 639 0
 1258 00bc D3F8001B 		ldr	r1, [r3, #2816]
 1259 00c0 044A     		ldr	r2, .L105+4
 1260 00c2 0A40     		ands	r2, r2, r1
 1261 00c4 C3F8002B 		str	r2, [r3, #2816]
 1262              	.L102:
 646:Drivers/STM32H7xx_HAL_Driver/Src/stm32h7xx_ll_usb.c **** 
 1263              		.loc 1 646 0
 1264 00c8 0020     		movs	r0, #0
 1265              	.LVL124:
 1266 00ca 30BC     		pop	{r4, r5}
 1267              	.LCFI14:
 1268              		.cfi_restore 5
 1269              		.cfi_restore 4
 1270              		.cfi_def_cfa_offset 0
 1271 00cc 7047     		bx	lr
 1272              	.L106:
 1273 00ce 00BF     		.align	2
 1274              	.L105:
 1275 00d0 007833EC 		.word	-332171264
 1276 00d4 0078F3EF 		.word	-269256704
 1277              		.cfi_endproc
 1278              	.LFE153:
 1280              		.section	.text.USB_DeactivateDedicatedEndpoint,"ax",%progbits
 1281              		.align	2
 1282              		.global	USB_DeactivateDedicatedEndpoint
 1283              		.thumb
 1284              		.thumb_func
 1286              	USB_DeactivateDedicatedEndpoint:
 1287              	.LFB154:
 655:Drivers/STM32H7xx_HAL_Driver/Src/stm32h7xx_ll_usb.c ****   uint32_t USBx_BASE = (uint32_t)USBx;
 1288              		.loc 1 655 0
 1289              		.cfi_startproc
 1290              		@ args = 0, pretend = 0, frame = 0
 1291              		@ frame_needed = 0, uses_anonymous_args = 0
 1292              		@ link register save eliminated.
 1293              	.LVL125:
 657:Drivers/STM32H7xx_HAL_Driver/Src/stm32h7xx_ll_usb.c **** 
 1294              		.loc 1 657 0
 1295 0000 0B78     		ldrb	r3, [r1]	@ zero_extendqisi2
 1296              	.LVL126:
 660:Drivers/STM32H7xx_HAL_Driver/Src/stm32h7xx_ll_usb.c ****   {
 1297              		.loc 1 660 0
 1298 0002 4A78     		ldrb	r2, [r1, #1]	@ zero_extendqisi2
 1299 0004 012A     		cmp	r2, #1
 1300 0006 26D1     		bne	.L108
ARM GAS  C:\Users\xiaofei\AppData\Local\Temp\ccBH0Ic6.s 			page 50


 655:Drivers/STM32H7xx_HAL_Driver/Src/stm32h7xx_ll_usb.c ****   uint32_t USBx_BASE = (uint32_t)USBx;
 1301              		.loc 1 655 0
 1302 0008 10B4     		push	{r4}
 1303              	.LCFI15:
 1304              		.cfi_def_cfa_offset 4
 1305              		.cfi_offset 4, -4
 662:Drivers/STM32H7xx_HAL_Driver/Src/stm32h7xx_ll_usb.c ****     {
 1306              		.loc 1 662 0
 1307 000a 00EB4313 		add	r3, r0, r3, lsl #5
 1308              	.LVL127:
 1309 000e D3F80029 		ldr	r2, [r3, #2304]
 1310 0012 002A     		cmp	r2, #0
 1311 0014 0BDA     		bge	.L109
 664:Drivers/STM32H7xx_HAL_Driver/Src/stm32h7xx_ll_usb.c ****       USBx_INEP(epnum)->DIEPCTL  |= USB_OTG_DIEPCTL_EPDIS;
 1312              		.loc 1 664 0
 1313 0016 D3F80029 		ldr	r2, [r3, #2304]
 1314 001a 42F00062 		orr	r2, r2, #134217728
 1315 001e C3F80029 		str	r2, [r3, #2304]
 1316              	.LVL128:
 665:Drivers/STM32H7xx_HAL_Driver/Src/stm32h7xx_ll_usb.c ****     }
 1317              		.loc 1 665 0
 1318 0022 D3F80029 		ldr	r2, [r3, #2304]
 1319 0026 42F08042 		orr	r2, r2, #1073741824
 1320 002a C3F80029 		str	r2, [r3, #2304]
 1321              	.L109:
 668:Drivers/STM32H7xx_HAL_Driver/Src/stm32h7xx_ll_usb.c ****     USBx_DEVICE->DAINTMSK &= ~(USB_OTG_DAINTMSK_IEPM & (uint32_t)(1UL << (ep->num & EP_ADDR_MSK)));
 1322              		.loc 1 668 0
 1323 002e D3F80029 		ldr	r2, [r3, #2304]
 1324 0032 22F40042 		bic	r2, r2, #32768
 1325 0036 C3F80029 		str	r2, [r3, #2304]
 669:Drivers/STM32H7xx_HAL_Driver/Src/stm32h7xx_ll_usb.c ****   }
 1326              		.loc 1 669 0
 1327 003a D0F81C48 		ldr	r4, [r0, #2076]
 1328 003e 0B78     		ldrb	r3, [r1]	@ zero_extendqisi2
 1329 0040 03F00F03 		and	r3, r3, #15
 1330 0044 0122     		movs	r2, #1
 1331 0046 02FA03F3 		lsl	r3, r2, r3
 1332 004a 9BB2     		uxth	r3, r3
 1333 004c 24EA0303 		bic	r3, r4, r3
 1334 0050 C0F81C38 		str	r3, [r0, #2076]
 1335 0054 25E0     		b	.L110
 1336              	.LVL129:
 1337              	.L108:
 1338              	.LCFI16:
 1339              		.cfi_def_cfa_offset 0
 1340              		.cfi_restore 4
 673:Drivers/STM32H7xx_HAL_Driver/Src/stm32h7xx_ll_usb.c ****     {
 1341              		.loc 1 673 0
 1342 0056 00EB4313 		add	r3, r0, r3, lsl #5
 1343              	.LVL130:
 1344 005a D3F8002B 		ldr	r2, [r3, #2816]
 1345 005e 002A     		cmp	r2, #0
 1346 0060 0BDA     		bge	.L111
 675:Drivers/STM32H7xx_HAL_Driver/Src/stm32h7xx_ll_usb.c ****       USBx_OUTEP(epnum)->DOEPCTL  |= USB_OTG_DOEPCTL_EPDIS;
 1347              		.loc 1 675 0
 1348 0062 D3F8002B 		ldr	r2, [r3, #2816]
 1349 0066 42F00062 		orr	r2, r2, #134217728
ARM GAS  C:\Users\xiaofei\AppData\Local\Temp\ccBH0Ic6.s 			page 51


 1350 006a C3F8002B 		str	r2, [r3, #2816]
 1351              	.LVL131:
 676:Drivers/STM32H7xx_HAL_Driver/Src/stm32h7xx_ll_usb.c ****     }
 1352              		.loc 1 676 0
 1353 006e D3F8002B 		ldr	r2, [r3, #2816]
 1354 0072 42F08042 		orr	r2, r2, #1073741824
 1355 0076 C3F8002B 		str	r2, [r3, #2816]
 1356              	.L111:
 679:Drivers/STM32H7xx_HAL_Driver/Src/stm32h7xx_ll_usb.c ****     USBx_DEVICE->DAINTMSK &= ~(USB_OTG_DAINTMSK_OEPM & ((uint32_t)(1UL << (ep->num & EP_ADDR_MSK)) 
 1357              		.loc 1 679 0
 1358 007a D3F8002B 		ldr	r2, [r3, #2816]
 1359 007e 22F40042 		bic	r2, r2, #32768
 1360 0082 C3F8002B 		str	r2, [r3, #2816]
 680:Drivers/STM32H7xx_HAL_Driver/Src/stm32h7xx_ll_usb.c ****   }
 1361              		.loc 1 680 0
 1362 0086 D0F81C28 		ldr	r2, [r0, #2076]
 1363 008a 0B78     		ldrb	r3, [r1]	@ zero_extendqisi2
 1364 008c 03F00F03 		and	r3, r3, #15
 1365 0090 0121     		movs	r1, #1
 1366              	.LVL132:
 1367 0092 01FA03F3 		lsl	r3, r1, r3
 1368 0096 22EA0343 		bic	r3, r2, r3, lsl #16
 1369 009a C0F81C38 		str	r3, [r0, #2076]
 684:Drivers/STM32H7xx_HAL_Driver/Src/stm32h7xx_ll_usb.c **** 
 1370              		.loc 1 684 0
 1371 009e 0020     		movs	r0, #0
 1372              	.LVL133:
 1373 00a0 7047     		bx	lr
 1374              	.LVL134:
 1375              	.L110:
 1376              	.LCFI17:
 1377              		.cfi_def_cfa_offset 4
 1378              		.cfi_offset 4, -4
 1379 00a2 0020     		movs	r0, #0
 1380              	.LVL135:
 1381 00a4 5DF8044B 		ldr	r4, [sp], #4
 1382              	.LCFI18:
 1383              		.cfi_restore 4
 1384              		.cfi_def_cfa_offset 0
 1385 00a8 7047     		bx	lr
 1386              		.cfi_endproc
 1387              	.LFE154:
 1389 00aa 00BF     		.section	.text.USB_EP0StartXfer,"ax",%progbits
 1390              		.align	2
 1391              		.global	USB_EP0StartXfer
 1392              		.thumb
 1393              		.thumb_func
 1395              	USB_EP0StartXfer:
 1396              	.LFB156:
 839:Drivers/STM32H7xx_HAL_Driver/Src/stm32h7xx_ll_usb.c ****   uint32_t USBx_BASE = (uint32_t)USBx;
 1397              		.loc 1 839 0
 1398              		.cfi_startproc
 1399              		@ args = 0, pretend = 0, frame = 0
 1400              		@ frame_needed = 0, uses_anonymous_args = 0
 1401              		@ link register save eliminated.
 1402              	.LVL136:
 1403 0000 70B4     		push	{r4, r5, r6}
ARM GAS  C:\Users\xiaofei\AppData\Local\Temp\ccBH0Ic6.s 			page 52


 1404              	.LCFI19:
 1405              		.cfi_def_cfa_offset 12
 1406              		.cfi_offset 4, -12
 1407              		.cfi_offset 5, -8
 1408              		.cfi_offset 6, -4
 1409              	.LVL137:
 841:Drivers/STM32H7xx_HAL_Driver/Src/stm32h7xx_ll_usb.c **** 
 1410              		.loc 1 841 0
 1411 0002 0B78     		ldrb	r3, [r1]	@ zero_extendqisi2
 1412              	.LVL138:
 844:Drivers/STM32H7xx_HAL_Driver/Src/stm32h7xx_ll_usb.c ****   {
 1413              		.loc 1 844 0
 1414 0004 4C78     		ldrb	r4, [r1, #1]	@ zero_extendqisi2
 1415 0006 012C     		cmp	r4, #1
 1416 0008 59D1     		bne	.L115
 847:Drivers/STM32H7xx_HAL_Driver/Src/stm32h7xx_ll_usb.c ****     {
 1417              		.loc 1 847 0
 1418 000a 4C69     		ldr	r4, [r1, #20]
 1419 000c A4B9     		cbnz	r4, .L116
 849:Drivers/STM32H7xx_HAL_Driver/Src/stm32h7xx_ll_usb.c ****       USBx_INEP(epnum)->DIEPTSIZ |= (USB_OTG_DIEPTSIZ_PKTCNT & (1U << 19));
 1420              		.loc 1 849 0
 1421 000e 00EB4314 		add	r4, r0, r3, lsl #5
 1422 0012 D4F81069 		ldr	r6, [r4, #2320]
 1423 0016 3E4D     		ldr	r5, .L125
 1424 0018 3540     		ands	r5, r5, r6
 1425 001a C4F81059 		str	r5, [r4, #2320]
 850:Drivers/STM32H7xx_HAL_Driver/Src/stm32h7xx_ll_usb.c ****       USBx_INEP(epnum)->DIEPTSIZ &= ~(USB_OTG_DIEPTSIZ_XFRSIZ);
 1426              		.loc 1 850 0
 1427 001e D4F81059 		ldr	r5, [r4, #2320]
 1428 0022 45F40025 		orr	r5, r5, #524288
 1429 0026 C4F81059 		str	r5, [r4, #2320]
 851:Drivers/STM32H7xx_HAL_Driver/Src/stm32h7xx_ll_usb.c ****     }
 1430              		.loc 1 851 0
 1431 002a D4F81069 		ldr	r6, [r4, #2320]
 1432 002e 394D     		ldr	r5, .L125+4
 1433 0030 3540     		ands	r5, r5, r6
 1434 0032 C4F81059 		str	r5, [r4, #2320]
 1435 0036 1AE0     		b	.L117
 1436              	.L116:
 860:Drivers/STM32H7xx_HAL_Driver/Src/stm32h7xx_ll_usb.c ****       USBx_INEP(epnum)->DIEPTSIZ &= ~(USB_OTG_DIEPTSIZ_PKTCNT);
 1437              		.loc 1 860 0
 1438 0038 00EB4314 		add	r4, r0, r3, lsl #5
 1439 003c 04F51064 		add	r4, r4, #2304
 1440 0040 2669     		ldr	r6, [r4, #16]
 1441 0042 344D     		ldr	r5, .L125+4
 1442 0044 3540     		ands	r5, r5, r6
 1443 0046 2561     		str	r5, [r4, #16]
 861:Drivers/STM32H7xx_HAL_Driver/Src/stm32h7xx_ll_usb.c **** 
 1444              		.loc 1 861 0
 1445 0048 2669     		ldr	r6, [r4, #16]
 1446 004a 314D     		ldr	r5, .L125
 1447 004c 3540     		ands	r5, r5, r6
 1448 004e 2561     		str	r5, [r4, #16]
 863:Drivers/STM32H7xx_HAL_Driver/Src/stm32h7xx_ll_usb.c ****       {
 1449              		.loc 1 863 0
 1450 0050 4E69     		ldr	r6, [r1, #20]
 1451 0052 8D68     		ldr	r5, [r1, #8]
ARM GAS  C:\Users\xiaofei\AppData\Local\Temp\ccBH0Ic6.s 			page 53


 1452 0054 AE42     		cmp	r6, r5
 1453 0056 00D9     		bls	.L118
 865:Drivers/STM32H7xx_HAL_Driver/Src/stm32h7xx_ll_usb.c ****       }
 1454              		.loc 1 865 0
 1455 0058 4D61     		str	r5, [r1, #20]
 1456              	.L118:
 867:Drivers/STM32H7xx_HAL_Driver/Src/stm32h7xx_ll_usb.c ****       USBx_INEP(epnum)->DIEPTSIZ |= (USB_OTG_DIEPTSIZ_XFRSIZ & ep->xfer_len);
 1457              		.loc 1 867 0
 1458 005a 2569     		ldr	r5, [r4, #16]
 1459 005c 45F40025 		orr	r5, r5, #524288
 1460 0060 2561     		str	r5, [r4, #16]
 868:Drivers/STM32H7xx_HAL_Driver/Src/stm32h7xx_ll_usb.c ****     }
 1461              		.loc 1 868 0
 1462 0062 2669     		ldr	r6, [r4, #16]
 1463 0064 4D69     		ldr	r5, [r1, #20]
 1464 0066 C5F31205 		ubfx	r5, r5, #0, #19
 1465 006a 3543     		orrs	r5, r5, r6
 1466 006c 2561     		str	r5, [r4, #16]
 1467              	.L117:
 871:Drivers/STM32H7xx_HAL_Driver/Src/stm32h7xx_ll_usb.c ****     {
 1468              		.loc 1 871 0
 1469 006e 012A     		cmp	r2, #1
 1470 0070 0ED1     		bne	.L119
 873:Drivers/STM32H7xx_HAL_Driver/Src/stm32h7xx_ll_usb.c ****       {
 1471              		.loc 1 873 0
 1472 0072 0A69     		ldr	r2, [r1, #16]
 1473              	.LVL139:
 1474 0074 1AB1     		cbz	r2, .L120
 875:Drivers/STM32H7xx_HAL_Driver/Src/stm32h7xx_ll_usb.c ****       }
 1475              		.loc 1 875 0
 1476 0076 00EB4311 		add	r1, r0, r3, lsl #5
 1477              	.LVL140:
 1478 007a C1F81429 		str	r2, [r1, #2324]
 1479              	.L120:
 879:Drivers/STM32H7xx_HAL_Driver/Src/stm32h7xx_ll_usb.c ****     }
 1480              		.loc 1 879 0
 1481 007e 00EB4310 		add	r0, r0, r3, lsl #5
 1482              	.LVL141:
 1483 0082 D0F80029 		ldr	r2, [r0, #2304]
 1484 0086 42F00442 		orr	r2, r2, #-2080374784
 1485 008a C0F80029 		str	r2, [r0, #2304]
 1486 008e 3BE0     		b	.L121
 1487              	.LVL142:
 1488              	.L119:
 884:Drivers/STM32H7xx_HAL_Driver/Src/stm32h7xx_ll_usb.c **** 
 1489              		.loc 1 884 0
 1490 0090 00EB4313 		add	r3, r0, r3, lsl #5
 1491              	.LVL143:
 1492 0094 D3F80029 		ldr	r2, [r3, #2304]
 1493              	.LVL144:
 1494 0098 42F00442 		orr	r2, r2, #-2080374784
 1495 009c C3F80029 		str	r2, [r3, #2304]
 887:Drivers/STM32H7xx_HAL_Driver/Src/stm32h7xx_ll_usb.c ****       {
 1496              		.loc 1 887 0
 1497 00a0 4B69     		ldr	r3, [r1, #20]
 1498 00a2 002B     		cmp	r3, #0
 1499 00a4 30D0     		beq	.L121
ARM GAS  C:\Users\xiaofei\AppData\Local\Temp\ccBH0Ic6.s 			page 54


 889:Drivers/STM32H7xx_HAL_Driver/Src/stm32h7xx_ll_usb.c ****       }
 1500              		.loc 1 889 0
 1501 00a6 D0F83438 		ldr	r3, [r0, #2100]
 1502 00aa 0A78     		ldrb	r2, [r1]	@ zero_extendqisi2
 1503 00ac 02F00F02 		and	r2, r2, #15
 1504 00b0 0121     		movs	r1, #1
 1505              	.LVL145:
 1506 00b2 01FA02F2 		lsl	r2, r1, r2
 1507 00b6 1A43     		orrs	r2, r2, r3
 1508 00b8 C0F83428 		str	r2, [r0, #2100]
 1509 00bc 24E0     		b	.L121
 1510              	.LVL146:
 1511              	.L115:
 899:Drivers/STM32H7xx_HAL_Driver/Src/stm32h7xx_ll_usb.c ****     USBx_OUTEP(epnum)->DOEPTSIZ &= ~(USB_OTG_DOEPTSIZ_PKTCNT);
 1512              		.loc 1 899 0
 1513 00be 00EB4310 		add	r0, r0, r3, lsl #5
 1514              	.LVL147:
 1515 00c2 00F53063 		add	r3, r0, #2816
 1516              	.LVL148:
 1517 00c6 1D69     		ldr	r5, [r3, #16]
 1518 00c8 124C     		ldr	r4, .L125+4
 1519 00ca 2C40     		ands	r4, r4, r5
 1520 00cc 1C61     		str	r4, [r3, #16]
 1521              	.LVL149:
 900:Drivers/STM32H7xx_HAL_Driver/Src/stm32h7xx_ll_usb.c **** 
 1522              		.loc 1 900 0
 1523 00ce 1D69     		ldr	r5, [r3, #16]
 1524 00d0 0F4C     		ldr	r4, .L125
 1525 00d2 2C40     		ands	r4, r4, r5
 1526 00d4 1C61     		str	r4, [r3, #16]
 902:Drivers/STM32H7xx_HAL_Driver/Src/stm32h7xx_ll_usb.c ****     {
 1527              		.loc 1 902 0
 1528 00d6 4C69     		ldr	r4, [r1, #20]
 1529 00d8 0CB1     		cbz	r4, .L122
 904:Drivers/STM32H7xx_HAL_Driver/Src/stm32h7xx_ll_usb.c ****     }
 1530              		.loc 1 904 0
 1531 00da 8C68     		ldr	r4, [r1, #8]
 1532 00dc 4C61     		str	r4, [r1, #20]
 1533              	.L122:
 907:Drivers/STM32H7xx_HAL_Driver/Src/stm32h7xx_ll_usb.c ****     USBx_OUTEP(epnum)->DOEPTSIZ |= (USB_OTG_DOEPTSIZ_XFRSIZ & (ep->maxpacket));
 1534              		.loc 1 907 0
 1535 00de 1C69     		ldr	r4, [r3, #16]
 1536 00e0 44F40024 		orr	r4, r4, #524288
 1537 00e4 1C61     		str	r4, [r3, #16]
 908:Drivers/STM32H7xx_HAL_Driver/Src/stm32h7xx_ll_usb.c **** 
 1538              		.loc 1 908 0
 1539 00e6 1D69     		ldr	r5, [r3, #16]
 1540 00e8 8C68     		ldr	r4, [r1, #8]
 1541 00ea C4F31204 		ubfx	r4, r4, #0, #19
 1542 00ee 2C43     		orrs	r4, r4, r5
 1543 00f0 1C61     		str	r4, [r3, #16]
 910:Drivers/STM32H7xx_HAL_Driver/Src/stm32h7xx_ll_usb.c ****     {
 1544              		.loc 1 910 0
 1545 00f2 012A     		cmp	r2, #1
 1546 00f4 02D1     		bne	.L123
 912:Drivers/STM32H7xx_HAL_Driver/Src/stm32h7xx_ll_usb.c ****       {
 1547              		.loc 1 912 0
ARM GAS  C:\Users\xiaofei\AppData\Local\Temp\ccBH0Ic6.s 			page 55


 1548 00f6 CA68     		ldr	r2, [r1, #12]
 1549              	.LVL150:
 1550 00f8 02B1     		cbz	r2, .L123
 914:Drivers/STM32H7xx_HAL_Driver/Src/stm32h7xx_ll_usb.c ****       }
 1551              		.loc 1 914 0
 1552 00fa 5A61     		str	r2, [r3, #20]
 1553              	.L123:
 919:Drivers/STM32H7xx_HAL_Driver/Src/stm32h7xx_ll_usb.c ****   }
 1554              		.loc 1 919 0
 1555 00fc D0F8003B 		ldr	r3, [r0, #2816]
 1556 0100 43F00443 		orr	r3, r3, #-2080374784
 1557 0104 C0F8003B 		str	r3, [r0, #2816]
 1558              	.LVL151:
 1559              	.L121:
 923:Drivers/STM32H7xx_HAL_Driver/Src/stm32h7xx_ll_usb.c **** 
 1560              		.loc 1 923 0
 1561 0108 0020     		movs	r0, #0
 1562 010a 70BC     		pop	{r4, r5, r6}
 1563              	.LCFI20:
 1564              		.cfi_restore 6
 1565              		.cfi_restore 5
 1566              		.cfi_restore 4
 1567              		.cfi_def_cfa_offset 0
 1568 010c 7047     		bx	lr
 1569              	.L126:
 1570 010e 00BF     		.align	2
 1571              	.L125:
 1572 0110 FFFF07E0 		.word	-536346625
 1573 0114 0000F8FF 		.word	-524288
 1574              		.cfi_endproc
 1575              	.LFE156:
 1577              		.section	.text.USB_WritePacket,"ax",%progbits
 1578              		.align	2
 1579              		.global	USB_WritePacket
 1580              		.thumb
 1581              		.thumb_func
 1583              	USB_WritePacket:
 1584              	.LFB157:
 939:Drivers/STM32H7xx_HAL_Driver/Src/stm32h7xx_ll_usb.c ****   uint32_t USBx_BASE = (uint32_t)USBx;
 1585              		.loc 1 939 0
 1586              		.cfi_startproc
 1587              		@ args = 4, pretend = 0, frame = 0
 1588              		@ frame_needed = 0, uses_anonymous_args = 0
 1589              		@ link register save eliminated.
 1590              	.LVL152:
 1591 0000 70B4     		push	{r4, r5, r6}
 1592              	.LCFI21:
 1593              		.cfi_def_cfa_offset 12
 1594              		.cfi_offset 4, -12
 1595              		.cfi_offset 5, -8
 1596              		.cfi_offset 6, -4
 1597 0002 9DF80C40 		ldrb	r4, [sp, #12]	@ zero_extendqisi2
 1598              	.LVL153:
 944:Drivers/STM32H7xx_HAL_Driver/Src/stm32h7xx_ll_usb.c ****   {
 1599              		.loc 1 944 0
 1600 0006 6CB9     		cbnz	r4, .L128
 946:Drivers/STM32H7xx_HAL_Driver/Src/stm32h7xx_ll_usb.c ****     for (i = 0U; i < count32b; i++)
ARM GAS  C:\Users\xiaofei\AppData\Local\Temp\ccBH0Ic6.s 			page 56


 1601              		.loc 1 946 0
 1602 0008 0333     		adds	r3, r3, #3
 1603              	.LVL154:
 1604 000a 9B08     		lsrs	r3, r3, #2
 1605              	.LVL155:
 947:Drivers/STM32H7xx_HAL_Driver/Src/stm32h7xx_ll_usb.c ****     {
 1606              		.loc 1 947 0
 1607 000c 0025     		movs	r5, #0
 1608 000e 07E0     		b	.L129
 1609              	.LVL156:
 1610              	.L130:
 949:Drivers/STM32H7xx_HAL_Driver/Src/stm32h7xx_ll_usb.c ****       pSrc++;
 1611              		.loc 1 949 0 discriminator 3
 1612 0010 00EB0234 		add	r4, r0, r2, lsl #12
 1613 0014 04F58054 		add	r4, r4, #4096
 1614 0018 51F8046B 		ldr	r6, [r1], #4	@ unaligned
 1615              	.LVL157:
 1616 001c 2660     		str	r6, [r4]
 1617              	.LVL158:
 947:Drivers/STM32H7xx_HAL_Driver/Src/stm32h7xx_ll_usb.c ****     {
 1618              		.loc 1 947 0 discriminator 3
 1619 001e 0135     		adds	r5, r5, #1
 1620              	.LVL159:
 1621              	.L129:
 947:Drivers/STM32H7xx_HAL_Driver/Src/stm32h7xx_ll_usb.c ****     {
 1622              		.loc 1 947 0 is_stmt 0 discriminator 1
 1623 0020 9D42     		cmp	r5, r3
 1624 0022 F5D3     		bcc	.L130
 1625              	.LVL160:
 1626              	.L128:
 955:Drivers/STM32H7xx_HAL_Driver/Src/stm32h7xx_ll_usb.c **** 
 1627              		.loc 1 955 0 is_stmt 1
 1628 0024 0020     		movs	r0, #0
 1629              	.LVL161:
 1630 0026 70BC     		pop	{r4, r5, r6}
 1631              	.LCFI22:
 1632              		.cfi_restore 6
 1633              		.cfi_restore 5
 1634              		.cfi_restore 4
 1635              		.cfi_def_cfa_offset 0
 1636              	.LVL162:
 1637 0028 7047     		bx	lr
 1638              		.cfi_endproc
 1639              	.LFE157:
 1641 002a 00BF     		.section	.text.USB_EPStartXfer,"ax",%progbits
 1642              		.align	2
 1643              		.global	USB_EPStartXfer
 1644              		.thumb
 1645              		.thumb_func
 1647              	USB_EPStartXfer:
 1648              	.LFB155:
 697:Drivers/STM32H7xx_HAL_Driver/Src/stm32h7xx_ll_usb.c ****   uint32_t USBx_BASE = (uint32_t)USBx;
 1649              		.loc 1 697 0
 1650              		.cfi_startproc
 1651              		@ args = 0, pretend = 0, frame = 0
 1652              		@ frame_needed = 0, uses_anonymous_args = 0
 1653              	.LVL163:
ARM GAS  C:\Users\xiaofei\AppData\Local\Temp\ccBH0Ic6.s 			page 57


 1654 0000 F0B5     		push	{r4, r5, r6, r7, lr}
 1655              	.LCFI23:
 1656              		.cfi_def_cfa_offset 20
 1657              		.cfi_offset 4, -20
 1658              		.cfi_offset 5, -16
 1659              		.cfi_offset 6, -12
 1660              		.cfi_offset 7, -8
 1661              		.cfi_offset 14, -4
 1662 0002 83B0     		sub	sp, sp, #12
 1663              	.LCFI24:
 1664              		.cfi_def_cfa_offset 32
 1665              	.LVL164:
 699:Drivers/STM32H7xx_HAL_Driver/Src/stm32h7xx_ll_usb.c ****   uint16_t pktcnt;
 1666              		.loc 1 699 0
 1667 0004 0C78     		ldrb	r4, [r1]	@ zero_extendqisi2
 1668              	.LVL165:
 703:Drivers/STM32H7xx_HAL_Driver/Src/stm32h7xx_ll_usb.c ****   {
 1669              		.loc 1 703 0
 1670 0006 4B78     		ldrb	r3, [r1, #1]	@ zero_extendqisi2
 1671 0008 012B     		cmp	r3, #1
 1672 000a 40F0A780 		bne	.L133
 706:Drivers/STM32H7xx_HAL_Driver/Src/stm32h7xx_ll_usb.c ****     {
 1673              		.loc 1 706 0
 1674 000e 4B69     		ldr	r3, [r1, #20]
 1675 0010 A3B9     		cbnz	r3, .L134
 708:Drivers/STM32H7xx_HAL_Driver/Src/stm32h7xx_ll_usb.c ****       USBx_INEP(epnum)->DIEPTSIZ |= (USB_OTG_DIEPTSIZ_PKTCNT & (1U << 19));
 1676              		.loc 1 708 0
 1677 0012 00EB4413 		add	r3, r0, r4, lsl #5
 1678 0016 D3F81069 		ldr	r6, [r3, #2320]
 1679 001a 784D     		ldr	r5, .L150
 1680 001c 3540     		ands	r5, r5, r6
 1681 001e C3F81059 		str	r5, [r3, #2320]
 709:Drivers/STM32H7xx_HAL_Driver/Src/stm32h7xx_ll_usb.c ****       USBx_INEP(epnum)->DIEPTSIZ &= ~(USB_OTG_DIEPTSIZ_XFRSIZ);
 1682              		.loc 1 709 0
 1683 0022 D3F81059 		ldr	r5, [r3, #2320]
 1684 0026 45F40025 		orr	r5, r5, #524288
 1685 002a C3F81059 		str	r5, [r3, #2320]
 710:Drivers/STM32H7xx_HAL_Driver/Src/stm32h7xx_ll_usb.c ****     }
 1686              		.loc 1 710 0
 1687 002e D3F81069 		ldr	r6, [r3, #2320]
 1688 0032 734D     		ldr	r5, .L150+4
 1689 0034 3540     		ands	r5, r5, r6
 1690 0036 C3F81059 		str	r5, [r3, #2320]
 1691 003a 30E0     		b	.L135
 1692              	.L134:
 719:Drivers/STM32H7xx_HAL_Driver/Src/stm32h7xx_ll_usb.c ****       USBx_INEP(epnum)->DIEPTSIZ &= ~(USB_OTG_DIEPTSIZ_PKTCNT);
 1693              		.loc 1 719 0
 1694 003c 00EB4413 		add	r3, r0, r4, lsl #5
 1695 0040 D3F81069 		ldr	r6, [r3, #2320]
 1696 0044 6E4D     		ldr	r5, .L150+4
 1697 0046 3540     		ands	r5, r5, r6
 1698 0048 C3F81059 		str	r5, [r3, #2320]
 720:Drivers/STM32H7xx_HAL_Driver/Src/stm32h7xx_ll_usb.c ****       USBx_INEP(epnum)->DIEPTSIZ |= (USB_OTG_DIEPTSIZ_PKTCNT & (((ep->xfer_len + ep->maxpacket - 1U
 1699              		.loc 1 720 0
 1700 004c D3F81069 		ldr	r6, [r3, #2320]
 1701 0050 6A4D     		ldr	r5, .L150
 1702 0052 3540     		ands	r5, r5, r6
ARM GAS  C:\Users\xiaofei\AppData\Local\Temp\ccBH0Ic6.s 			page 58


 1703 0054 C3F81059 		str	r5, [r3, #2320]
 721:Drivers/STM32H7xx_HAL_Driver/Src/stm32h7xx_ll_usb.c ****       USBx_INEP(epnum)->DIEPTSIZ |= (USB_OTG_DIEPTSIZ_XFRSIZ & ep->xfer_len);
 1704              		.loc 1 721 0
 1705 0058 D3F81079 		ldr	r7, [r3, #2320]
 1706 005c 4D69     		ldr	r5, [r1, #20]
 1707 005e 8E68     		ldr	r6, [r1, #8]
 1708 0060 3544     		add	r5, r5, r6
 1709 0062 013D     		subs	r5, r5, #1
 1710 0064 B5FBF6F5 		udiv	r5, r5, r6
 1711 0068 664E     		ldr	r6, .L150+8
 1712 006a 06EAC545 		and	r5, r6, r5, lsl #19
 1713 006e 3D43     		orrs	r5, r5, r7
 1714 0070 C3F81059 		str	r5, [r3, #2320]
 722:Drivers/STM32H7xx_HAL_Driver/Src/stm32h7xx_ll_usb.c **** 
 1715              		.loc 1 722 0
 1716 0074 D3F81069 		ldr	r6, [r3, #2320]
 1717 0078 4D69     		ldr	r5, [r1, #20]
 1718 007a C5F31205 		ubfx	r5, r5, #0, #19
 1719 007e 3543     		orrs	r5, r5, r6
 1720 0080 C3F81059 		str	r5, [r3, #2320]
 719:Drivers/STM32H7xx_HAL_Driver/Src/stm32h7xx_ll_usb.c ****       USBx_INEP(epnum)->DIEPTSIZ &= ~(USB_OTG_DIEPTSIZ_PKTCNT);
 1721              		.loc 1 719 0
 1722 0084 03F51063 		add	r3, r3, #2304
 724:Drivers/STM32H7xx_HAL_Driver/Src/stm32h7xx_ll_usb.c ****       {
 1723              		.loc 1 724 0
 1724 0088 CD78     		ldrb	r5, [r1, #3]	@ zero_extendqisi2
 1725 008a 012D     		cmp	r5, #1
 1726 008c 07D1     		bne	.L135
 726:Drivers/STM32H7xx_HAL_Driver/Src/stm32h7xx_ll_usb.c ****         USBx_INEP(epnum)->DIEPTSIZ |= (USB_OTG_DIEPTSIZ_MULCNT & (1U << 29));
 1727              		.loc 1 726 0
 1728 008e 1D69     		ldr	r5, [r3, #16]
 1729 0090 25F0C045 		bic	r5, r5, #1610612736
 1730 0094 1D61     		str	r5, [r3, #16]
 727:Drivers/STM32H7xx_HAL_Driver/Src/stm32h7xx_ll_usb.c ****       }
 1731              		.loc 1 727 0
 1732 0096 1D69     		ldr	r5, [r3, #16]
 1733 0098 45F00055 		orr	r5, r5, #536870912
 1734 009c 1D61     		str	r5, [r3, #16]
 1735              	.L135:
 731:Drivers/STM32H7xx_HAL_Driver/Src/stm32h7xx_ll_usb.c ****     {
 1736              		.loc 1 731 0
 1737 009e 012A     		cmp	r2, #1
 1738 00a0 27D1     		bne	.L136
 733:Drivers/STM32H7xx_HAL_Driver/Src/stm32h7xx_ll_usb.c ****       {
 1739              		.loc 1 733 0
 1740 00a2 0B69     		ldr	r3, [r1, #16]
 1741 00a4 1BB1     		cbz	r3, .L137
 735:Drivers/STM32H7xx_HAL_Driver/Src/stm32h7xx_ll_usb.c ****       }
 1742              		.loc 1 735 0
 1743 00a6 00EB4412 		add	r2, r0, r4, lsl #5
 1744              	.LVL166:
 1745 00aa C2F81439 		str	r3, [r2, #2324]
 1746              	.L137:
 738:Drivers/STM32H7xx_HAL_Driver/Src/stm32h7xx_ll_usb.c ****       {
 1747              		.loc 1 738 0
 1748 00ae CB78     		ldrb	r3, [r1, #3]	@ zero_extendqisi2
 1749 00b0 012B     		cmp	r3, #1
ARM GAS  C:\Users\xiaofei\AppData\Local\Temp\ccBH0Ic6.s 			page 59


 1750 00b2 15D1     		bne	.L138
 740:Drivers/STM32H7xx_HAL_Driver/Src/stm32h7xx_ll_usb.c ****         {
 1751              		.loc 1 740 0
 1752 00b4 D0F80838 		ldr	r3, [r0, #2056]
 1753 00b8 13F4807F 		tst	r3, #256
 1754 00bc 08D1     		bne	.L139
 742:Drivers/STM32H7xx_HAL_Driver/Src/stm32h7xx_ll_usb.c ****         }
 1755              		.loc 1 742 0
 1756 00be 00EB4412 		add	r2, r0, r4, lsl #5
 1757 00c2 D2F80039 		ldr	r3, [r2, #2304]
 1758 00c6 43F00053 		orr	r3, r3, #536870912
 1759 00ca C2F80039 		str	r3, [r2, #2304]
 1760 00ce 07E0     		b	.L138
 1761              	.L139:
 746:Drivers/STM32H7xx_HAL_Driver/Src/stm32h7xx_ll_usb.c ****         }
 1762              		.loc 1 746 0
 1763 00d0 00EB4412 		add	r2, r0, r4, lsl #5
 1764 00d4 D2F80039 		ldr	r3, [r2, #2304]
 1765 00d8 43F08053 		orr	r3, r3, #268435456
 1766 00dc C2F80039 		str	r3, [r2, #2304]
 1767              	.L138:
 751:Drivers/STM32H7xx_HAL_Driver/Src/stm32h7xx_ll_usb.c ****     }
 1768              		.loc 1 751 0
 1769 00e0 00EB4414 		add	r4, r0, r4, lsl #5
 1770              	.LVL167:
 1771 00e4 D4F80039 		ldr	r3, [r4, #2304]
 1772 00e8 43F00443 		orr	r3, r3, #-2080374784
 1773 00ec C4F80039 		str	r3, [r4, #2304]
 1774 00f0 81E0     		b	.L140
 1775              	.LVL168:
 1776              	.L136:
 756:Drivers/STM32H7xx_HAL_Driver/Src/stm32h7xx_ll_usb.c **** 
 1777              		.loc 1 756 0
 1778 00f2 00EB4414 		add	r4, r0, r4, lsl #5
 1779              	.LVL169:
 1780 00f6 D4F80039 		ldr	r3, [r4, #2304]
 1781 00fa 43F00443 		orr	r3, r3, #-2080374784
 1782 00fe C4F80039 		str	r3, [r4, #2304]
 758:Drivers/STM32H7xx_HAL_Driver/Src/stm32h7xx_ll_usb.c ****       {
 1783              		.loc 1 758 0
 1784 0102 CB78     		ldrb	r3, [r1, #3]	@ zero_extendqisi2
 1785 0104 012B     		cmp	r3, #1
 1786 0106 0ED0     		beq	.L141
 761:Drivers/STM32H7xx_HAL_Driver/Src/stm32h7xx_ll_usb.c ****         {
 1787              		.loc 1 761 0
 1788 0108 4B69     		ldr	r3, [r1, #20]
 1789 010a 002B     		cmp	r3, #0
 1790 010c 73D0     		beq	.L140
 763:Drivers/STM32H7xx_HAL_Driver/Src/stm32h7xx_ll_usb.c ****         }
 1791              		.loc 1 763 0
 1792 010e D0F83448 		ldr	r4, [r0, #2100]
 1793 0112 0B78     		ldrb	r3, [r1]	@ zero_extendqisi2
 1794 0114 03F00F03 		and	r3, r3, #15
 1795 0118 0122     		movs	r2, #1
 1796              	.LVL170:
 1797 011a 02FA03F3 		lsl	r3, r2, r3
 1798 011e 2343     		orrs	r3, r3, r4
ARM GAS  C:\Users\xiaofei\AppData\Local\Temp\ccBH0Ic6.s 			page 60


 1799 0120 C0F83438 		str	r3, [r0, #2100]
 1800 0124 67E0     		b	.L140
 1801              	.LVL171:
 1802              	.L141:
 768:Drivers/STM32H7xx_HAL_Driver/Src/stm32h7xx_ll_usb.c ****         {
 1803              		.loc 1 768 0
 1804 0126 D0F80838 		ldr	r3, [r0, #2056]
 1805 012a 13F4807F 		tst	r3, #256
 1806 012e 06D1     		bne	.L142
 770:Drivers/STM32H7xx_HAL_Driver/Src/stm32h7xx_ll_usb.c ****         }
 1807              		.loc 1 770 0
 1808 0130 D4F80039 		ldr	r3, [r4, #2304]
 1809 0134 43F00053 		orr	r3, r3, #536870912
 1810 0138 C4F80039 		str	r3, [r4, #2304]
 1811 013c 05E0     		b	.L143
 1812              	.L142:
 774:Drivers/STM32H7xx_HAL_Driver/Src/stm32h7xx_ll_usb.c ****         }
 1813              		.loc 1 774 0
 1814 013e D4F80039 		ldr	r3, [r4, #2304]
 1815 0142 43F08053 		orr	r3, r3, #268435456
 1816 0146 C4F80039 		str	r3, [r4, #2304]
 1817              	.L143:
 1818 014a 1446     		mov	r4, r2
 1819 014c 0B46     		mov	r3, r1
 777:Drivers/STM32H7xx_HAL_Driver/Src/stm32h7xx_ll_usb.c ****       }
 1820              		.loc 1 777 0
 1821 014e C968     		ldr	r1, [r1, #12]
 1822              	.LVL172:
 1823 0150 1A78     		ldrb	r2, [r3]	@ zero_extendqisi2
 1824              	.LVL173:
 1825 0152 9B8A     		ldrh	r3, [r3, #20]
 1826              	.LVL174:
 1827 0154 0094     		str	r4, [sp]
 1828 0156 FFF7FEFF 		bl	USB_WritePacket
 1829              	.LVL175:
 1830 015a 4CE0     		b	.L140
 1831              	.LVL176:
 1832              	.L133:
 787:Drivers/STM32H7xx_HAL_Driver/Src/stm32h7xx_ll_usb.c ****     USBx_OUTEP(epnum)->DOEPTSIZ &= ~(USB_OTG_DOEPTSIZ_PKTCNT);
 1833              		.loc 1 787 0
 1834 015c 00EB4414 		add	r4, r0, r4, lsl #5
 1835              	.LVL177:
 1836 0160 04F53063 		add	r3, r4, #2816
 1837 0164 1E69     		ldr	r6, [r3, #16]
 1838 0166 264D     		ldr	r5, .L150+4
 1839 0168 3540     		ands	r5, r5, r6
 1840 016a 1D61     		str	r5, [r3, #16]
 1841              	.LVL178:
 788:Drivers/STM32H7xx_HAL_Driver/Src/stm32h7xx_ll_usb.c **** 
 1842              		.loc 1 788 0
 1843 016c 1E69     		ldr	r6, [r3, #16]
 1844 016e 234D     		ldr	r5, .L150
 1845 0170 3540     		ands	r5, r5, r6
 1846 0172 1D61     		str	r5, [r3, #16]
 790:Drivers/STM32H7xx_HAL_Driver/Src/stm32h7xx_ll_usb.c ****     {
 1847              		.loc 1 790 0
 1848 0174 4D69     		ldr	r5, [r1, #20]
ARM GAS  C:\Users\xiaofei\AppData\Local\Temp\ccBH0Ic6.s 			page 61


 1849 0176 55B9     		cbnz	r5, .L144
 792:Drivers/STM32H7xx_HAL_Driver/Src/stm32h7xx_ll_usb.c ****       USBx_OUTEP(epnum)->DOEPTSIZ |= (USB_OTG_DOEPTSIZ_PKTCNT & (1U << 19));
 1850              		.loc 1 792 0
 1851 0178 1E69     		ldr	r6, [r3, #16]
 1852 017a 8D68     		ldr	r5, [r1, #8]
 1853 017c C5F31205 		ubfx	r5, r5, #0, #19
 1854 0180 3543     		orrs	r5, r5, r6
 1855 0182 1D61     		str	r5, [r3, #16]
 793:Drivers/STM32H7xx_HAL_Driver/Src/stm32h7xx_ll_usb.c ****     }
 1856              		.loc 1 793 0
 1857 0184 1D69     		ldr	r5, [r3, #16]
 1858 0186 45F40025 		orr	r5, r5, #524288
 1859 018a 1D61     		str	r5, [r3, #16]
 1860 018c 13E0     		b	.L145
 1861              	.L144:
 797:Drivers/STM32H7xx_HAL_Driver/Src/stm32h7xx_ll_usb.c ****       USBx_OUTEP(epnum)->DOEPTSIZ |= USB_OTG_DOEPTSIZ_PKTCNT & ((uint32_t)pktcnt << 19);
 1862              		.loc 1 797 0
 1863 018e 8E68     		ldr	r6, [r1, #8]
 1864 0190 3544     		add	r5, r5, r6
 1865 0192 013D     		subs	r5, r5, #1
 1866 0194 B5FBF6F5 		udiv	r5, r5, r6
 1867              	.LVL179:
 798:Drivers/STM32H7xx_HAL_Driver/Src/stm32h7xx_ll_usb.c ****       USBx_OUTEP(epnum)->DOEPTSIZ |= USB_OTG_DOEPTSIZ_XFRSIZ & (ep->maxpacket * pktcnt);
 1868              		.loc 1 798 0
 1869 0198 1F69     		ldr	r7, [r3, #16]
 1870 019a 1A4E     		ldr	r6, .L150+8
 1871 019c 06EAC546 		and	r6, r6, r5, lsl #19
 1872 01a0 3E43     		orrs	r6, r6, r7
 1873 01a2 1E61     		str	r6, [r3, #16]
 799:Drivers/STM32H7xx_HAL_Driver/Src/stm32h7xx_ll_usb.c ****     }
 1874              		.loc 1 799 0
 1875 01a4 1F69     		ldr	r7, [r3, #16]
 1876 01a6 8E68     		ldr	r6, [r1, #8]
 1877 01a8 ADB2     		uxth	r5, r5
 1878 01aa 06FB05F5 		mul	r5, r6, r5
 1879              	.LVL180:
 1880 01ae C5F31205 		ubfx	r5, r5, #0, #19
 1881 01b2 3D43     		orrs	r5, r5, r7
 1882 01b4 1D61     		str	r5, [r3, #16]
 1883              	.L145:
 802:Drivers/STM32H7xx_HAL_Driver/Src/stm32h7xx_ll_usb.c ****     {
 1884              		.loc 1 802 0
 1885 01b6 012A     		cmp	r2, #1
 1886 01b8 02D1     		bne	.L146
 804:Drivers/STM32H7xx_HAL_Driver/Src/stm32h7xx_ll_usb.c ****       {
 1887              		.loc 1 804 0
 1888 01ba CA68     		ldr	r2, [r1, #12]
 1889              	.LVL181:
 1890 01bc 02B1     		cbz	r2, .L146
 806:Drivers/STM32H7xx_HAL_Driver/Src/stm32h7xx_ll_usb.c ****       }
 1891              		.loc 1 806 0
 1892 01be 5A61     		str	r2, [r3, #20]
 1893              	.L146:
 810:Drivers/STM32H7xx_HAL_Driver/Src/stm32h7xx_ll_usb.c ****     {
 1894              		.loc 1 810 0
 1895 01c0 CB78     		ldrb	r3, [r1, #3]	@ zero_extendqisi2
 1896 01c2 012B     		cmp	r3, #1
ARM GAS  C:\Users\xiaofei\AppData\Local\Temp\ccBH0Ic6.s 			page 62


 1897 01c4 11D1     		bne	.L147
 812:Drivers/STM32H7xx_HAL_Driver/Src/stm32h7xx_ll_usb.c ****       {
 1898              		.loc 1 812 0
 1899 01c6 D0F80838 		ldr	r3, [r0, #2056]
 1900 01ca 13F4807F 		tst	r3, #256
 1901 01ce 06D1     		bne	.L148
 814:Drivers/STM32H7xx_HAL_Driver/Src/stm32h7xx_ll_usb.c ****       }
 1902              		.loc 1 814 0
 1903 01d0 D4F8003B 		ldr	r3, [r4, #2816]
 1904 01d4 43F00053 		orr	r3, r3, #536870912
 1905 01d8 C4F8003B 		str	r3, [r4, #2816]
 1906 01dc 05E0     		b	.L147
 1907              	.L148:
 818:Drivers/STM32H7xx_HAL_Driver/Src/stm32h7xx_ll_usb.c ****       }
 1908              		.loc 1 818 0
 1909 01de D4F8003B 		ldr	r3, [r4, #2816]
 1910 01e2 43F08053 		orr	r3, r3, #268435456
 1911 01e6 C4F8003B 		str	r3, [r4, #2816]
 1912              	.L147:
 822:Drivers/STM32H7xx_HAL_Driver/Src/stm32h7xx_ll_usb.c ****   }
 1913              		.loc 1 822 0
 1914 01ea D4F8003B 		ldr	r3, [r4, #2816]
 1915 01ee 43F00443 		orr	r3, r3, #-2080374784
 1916 01f2 C4F8003B 		str	r3, [r4, #2816]
 1917              	.LVL182:
 1918              	.L140:
 826:Drivers/STM32H7xx_HAL_Driver/Src/stm32h7xx_ll_usb.c **** 
 1919              		.loc 1 826 0
 1920 01f6 0020     		movs	r0, #0
 1921 01f8 03B0     		add	sp, sp, #12
 1922              	.LCFI25:
 1923              		.cfi_def_cfa_offset 20
 1924              		@ sp needed
 1925 01fa F0BD     		pop	{r4, r5, r6, r7, pc}
 1926              	.L151:
 1927              		.align	2
 1928              	.L150:
 1929 01fc FFFF07E0 		.word	-536346625
 1930 0200 0000F8FF 		.word	-524288
 1931 0204 0000F81F 		.word	536346624
 1932              		.cfi_endproc
 1933              	.LFE155:
 1935              		.section	.text.USB_ReadPacket,"ax",%progbits
 1936              		.align	2
 1937              		.global	USB_ReadPacket
 1938              		.thumb
 1939              		.thumb_func
 1941              	USB_ReadPacket:
 1942              	.LFB158:
 965:Drivers/STM32H7xx_HAL_Driver/Src/stm32h7xx_ll_usb.c ****   uint32_t USBx_BASE = (uint32_t)USBx;
 1943              		.loc 1 965 0
 1944              		.cfi_startproc
 1945              		@ args = 0, pretend = 0, frame = 0
 1946              		@ frame_needed = 0, uses_anonymous_args = 0
 1947              		@ link register save eliminated.
 1948              	.LVL183:
 1949 0000 10B4     		push	{r4}
ARM GAS  C:\Users\xiaofei\AppData\Local\Temp\ccBH0Ic6.s 			page 63


 1950              	.LCFI26:
 1951              		.cfi_def_cfa_offset 4
 1952              		.cfi_offset 4, -4
 1953              	.LVL184:
 969:Drivers/STM32H7xx_HAL_Driver/Src/stm32h7xx_ll_usb.c **** 
 1954              		.loc 1 969 0
 1955 0002 0332     		adds	r2, r2, #3
 1956              	.LVL185:
 1957 0004 9208     		lsrs	r2, r2, #2
 1958              	.LVL186:
 971:Drivers/STM32H7xx_HAL_Driver/Src/stm32h7xx_ll_usb.c ****   {
 1959              		.loc 1 971 0
 1960 0006 0023     		movs	r3, #0
 1961 0008 05E0     		b	.L153
 1962              	.LVL187:
 1963              	.L154:
 973:Drivers/STM32H7xx_HAL_Driver/Src/stm32h7xx_ll_usb.c ****     pDest++;
 1964              		.loc 1 973 0 discriminator 3
 1965 000a 00F58054 		add	r4, r0, #4096
 1966 000e 2468     		ldr	r4, [r4]
 1967 0010 41F8044B 		str	r4, [r1], #4	@ unaligned
 1968              	.LVL188:
 971:Drivers/STM32H7xx_HAL_Driver/Src/stm32h7xx_ll_usb.c ****   {
 1969              		.loc 1 971 0 discriminator 3
 1970 0014 0133     		adds	r3, r3, #1
 1971              	.LVL189:
 1972              	.L153:
 971:Drivers/STM32H7xx_HAL_Driver/Src/stm32h7xx_ll_usb.c ****   {
 1973              		.loc 1 971 0 is_stmt 0 discriminator 1
 1974 0016 9342     		cmp	r3, r2
 1975 0018 F7D3     		bcc	.L154
 978:Drivers/STM32H7xx_HAL_Driver/Src/stm32h7xx_ll_usb.c **** 
 1976              		.loc 1 978 0 is_stmt 1
 1977 001a 0846     		mov	r0, r1
 1978              	.LVL190:
 1979 001c 5DF8044B 		ldr	r4, [sp], #4
 1980              	.LCFI27:
 1981              		.cfi_restore 4
 1982              		.cfi_def_cfa_offset 0
 1983 0020 7047     		bx	lr
 1984              		.cfi_endproc
 1985              	.LFE158:
 1987 0022 00BF     		.section	.text.USB_EPSetStall,"ax",%progbits
 1988              		.align	2
 1989              		.global	USB_EPSetStall
 1990              		.thumb
 1991              		.thumb_func
 1993              	USB_EPSetStall:
 1994              	.LFB159:
 987:Drivers/STM32H7xx_HAL_Driver/Src/stm32h7xx_ll_usb.c ****   uint32_t USBx_BASE = (uint32_t)USBx;
 1995              		.loc 1 987 0
 1996              		.cfi_startproc
 1997              		@ args = 0, pretend = 0, frame = 0
 1998              		@ frame_needed = 0, uses_anonymous_args = 0
 1999              		@ link register save eliminated.
 2000              	.LVL191:
 989:Drivers/STM32H7xx_HAL_Driver/Src/stm32h7xx_ll_usb.c **** 
ARM GAS  C:\Users\xiaofei\AppData\Local\Temp\ccBH0Ic6.s 			page 64


 2001              		.loc 1 989 0
 2002 0000 0B78     		ldrb	r3, [r1]	@ zero_extendqisi2
 2003              	.LVL192:
 991:Drivers/STM32H7xx_HAL_Driver/Src/stm32h7xx_ll_usb.c ****   {
 2004              		.loc 1 991 0
 2005 0002 4A78     		ldrb	r2, [r1, #1]	@ zero_extendqisi2
 2006 0004 012A     		cmp	r2, #1
 2007 0006 13D1     		bne	.L157
 993:Drivers/STM32H7xx_HAL_Driver/Src/stm32h7xx_ll_usb.c ****     {
 2008              		.loc 1 993 0
 2009 0008 00EB4310 		add	r0, r0, r3, lsl #5
 2010              	.LVL193:
 2011 000c D0F80029 		ldr	r2, [r0, #2304]
 2012 0010 002A     		cmp	r2, #0
 2013 0012 06DB     		blt	.L158
 993:Drivers/STM32H7xx_HAL_Driver/Src/stm32h7xx_ll_usb.c ****     {
 2014              		.loc 1 993 0 is_stmt 0 discriminator 1
 2015 0014 2BB1     		cbz	r3, .L158
 995:Drivers/STM32H7xx_HAL_Driver/Src/stm32h7xx_ll_usb.c ****     }
 2016              		.loc 1 995 0 is_stmt 1
 2017 0016 D0F80039 		ldr	r3, [r0, #2304]
 2018              	.LVL194:
 2019 001a 23F08043 		bic	r3, r3, #1073741824
 2020 001e C0F80039 		str	r3, [r0, #2304]
 2021              	.LVL195:
 2022              	.L158:
 997:Drivers/STM32H7xx_HAL_Driver/Src/stm32h7xx_ll_usb.c ****   }
 2023              		.loc 1 997 0
 2024 0022 D0F80039 		ldr	r3, [r0, #2304]
 2025 0026 43F40013 		orr	r3, r3, #2097152
 2026 002a C0F80039 		str	r3, [r0, #2304]
 2027 002e 12E0     		b	.L159
 2028              	.LVL196:
 2029              	.L157:
1001:Drivers/STM32H7xx_HAL_Driver/Src/stm32h7xx_ll_usb.c ****     {
 2030              		.loc 1 1001 0
 2031 0030 00EB4310 		add	r0, r0, r3, lsl #5
 2032              	.LVL197:
 2033 0034 D0F8002B 		ldr	r2, [r0, #2816]
 2034 0038 002A     		cmp	r2, #0
 2035 003a 06DB     		blt	.L160
1001:Drivers/STM32H7xx_HAL_Driver/Src/stm32h7xx_ll_usb.c ****     {
 2036              		.loc 1 1001 0 is_stmt 0 discriminator 1
 2037 003c 2BB1     		cbz	r3, .L160
1003:Drivers/STM32H7xx_HAL_Driver/Src/stm32h7xx_ll_usb.c ****     }
 2038              		.loc 1 1003 0 is_stmt 1
 2039 003e D0F8003B 		ldr	r3, [r0, #2816]
 2040              	.LVL198:
 2041 0042 23F08043 		bic	r3, r3, #1073741824
 2042 0046 C0F8003B 		str	r3, [r0, #2816]
 2043              	.LVL199:
 2044              	.L160:
1005:Drivers/STM32H7xx_HAL_Driver/Src/stm32h7xx_ll_usb.c ****   }
 2045              		.loc 1 1005 0
 2046 004a D0F8003B 		ldr	r3, [r0, #2816]
 2047 004e 43F40013 		orr	r3, r3, #2097152
 2048 0052 C0F8003B 		str	r3, [r0, #2816]
ARM GAS  C:\Users\xiaofei\AppData\Local\Temp\ccBH0Ic6.s 			page 65


 2049              	.L159:
1009:Drivers/STM32H7xx_HAL_Driver/Src/stm32h7xx_ll_usb.c **** 
 2050              		.loc 1 1009 0
 2051 0056 0020     		movs	r0, #0
 2052 0058 7047     		bx	lr
 2053              		.cfi_endproc
 2054              	.LFE159:
 2056 005a 00BF     		.section	.text.USB_EPClearStall,"ax",%progbits
 2057              		.align	2
 2058              		.global	USB_EPClearStall
 2059              		.thumb
 2060              		.thumb_func
 2062              	USB_EPClearStall:
 2063              	.LFB160:
1018:Drivers/STM32H7xx_HAL_Driver/Src/stm32h7xx_ll_usb.c ****   uint32_t USBx_BASE = (uint32_t)USBx;
 2064              		.loc 1 1018 0
 2065              		.cfi_startproc
 2066              		@ args = 0, pretend = 0, frame = 0
 2067              		@ frame_needed = 0, uses_anonymous_args = 0
 2068              		@ link register save eliminated.
 2069              	.LVL200:
1020:Drivers/STM32H7xx_HAL_Driver/Src/stm32h7xx_ll_usb.c **** 
 2070              		.loc 1 1020 0
 2071 0000 0B78     		ldrb	r3, [r1]	@ zero_extendqisi2
 2072              	.LVL201:
1022:Drivers/STM32H7xx_HAL_Driver/Src/stm32h7xx_ll_usb.c ****   {
 2073              		.loc 1 1022 0
 2074 0002 4A78     		ldrb	r2, [r1, #1]	@ zero_extendqisi2
 2075 0004 012A     		cmp	r2, #1
 2076 0006 13D1     		bne	.L162
1024:Drivers/STM32H7xx_HAL_Driver/Src/stm32h7xx_ll_usb.c ****     if ((ep->type == EP_TYPE_INTR) || (ep->type == EP_TYPE_BULK))
 2077              		.loc 1 1024 0
 2078 0008 00EB4310 		add	r0, r0, r3, lsl #5
 2079              	.LVL202:
 2080 000c D0F80039 		ldr	r3, [r0, #2304]
 2081              	.LVL203:
 2082 0010 23F40013 		bic	r3, r3, #2097152
 2083 0014 C0F80039 		str	r3, [r0, #2304]
 2084              	.LVL204:
1025:Drivers/STM32H7xx_HAL_Driver/Src/stm32h7xx_ll_usb.c ****     {
 2085              		.loc 1 1025 0
 2086 0018 CB78     		ldrb	r3, [r1, #3]	@ zero_extendqisi2
 2087 001a 023B     		subs	r3, r3, #2
 2088 001c DBB2     		uxtb	r3, r3
 2089 001e 012B     		cmp	r3, #1
 2090 0020 19D8     		bhi	.L163
1027:Drivers/STM32H7xx_HAL_Driver/Src/stm32h7xx_ll_usb.c ****     }
 2091              		.loc 1 1027 0
 2092 0022 D0F80039 		ldr	r3, [r0, #2304]
 2093 0026 43F08053 		orr	r3, r3, #268435456
 2094 002a C0F80039 		str	r3, [r0, #2304]
 2095 002e 12E0     		b	.L163
 2096              	.LVL205:
 2097              	.L162:
1032:Drivers/STM32H7xx_HAL_Driver/Src/stm32h7xx_ll_usb.c ****     if ((ep->type == EP_TYPE_INTR) || (ep->type == EP_TYPE_BULK))
 2098              		.loc 1 1032 0
 2099 0030 00EB4310 		add	r0, r0, r3, lsl #5
ARM GAS  C:\Users\xiaofei\AppData\Local\Temp\ccBH0Ic6.s 			page 66


 2100              	.LVL206:
 2101 0034 D0F8003B 		ldr	r3, [r0, #2816]
 2102              	.LVL207:
 2103 0038 23F40013 		bic	r3, r3, #2097152
 2104 003c C0F8003B 		str	r3, [r0, #2816]
 2105              	.LVL208:
1033:Drivers/STM32H7xx_HAL_Driver/Src/stm32h7xx_ll_usb.c ****     {
 2106              		.loc 1 1033 0
 2107 0040 CB78     		ldrb	r3, [r1, #3]	@ zero_extendqisi2
 2108 0042 023B     		subs	r3, r3, #2
 2109 0044 DBB2     		uxtb	r3, r3
 2110 0046 012B     		cmp	r3, #1
 2111 0048 05D8     		bhi	.L163
1035:Drivers/STM32H7xx_HAL_Driver/Src/stm32h7xx_ll_usb.c ****     }
 2112              		.loc 1 1035 0
 2113 004a D0F8003B 		ldr	r3, [r0, #2816]
 2114 004e 43F08053 		orr	r3, r3, #268435456
 2115 0052 C0F8003B 		str	r3, [r0, #2816]
 2116              	.L163:
1039:Drivers/STM32H7xx_HAL_Driver/Src/stm32h7xx_ll_usb.c **** 
 2117              		.loc 1 1039 0
 2118 0056 0020     		movs	r0, #0
 2119 0058 7047     		bx	lr
 2120              		.cfi_endproc
 2121              	.LFE160:
 2123 005a 00BF     		.section	.text.USB_StopDevice,"ax",%progbits
 2124              		.align	2
 2125              		.global	USB_StopDevice
 2126              		.thumb
 2127              		.thumb_func
 2129              	USB_StopDevice:
 2130              	.LFB161:
1047:Drivers/STM32H7xx_HAL_Driver/Src/stm32h7xx_ll_usb.c ****   HAL_StatusTypeDef ret;
 2131              		.loc 1 1047 0
 2132              		.cfi_startproc
 2133              		@ args = 0, pretend = 0, frame = 0
 2134              		@ frame_needed = 0, uses_anonymous_args = 0
 2135              	.LVL209:
 2136 0000 38B5     		push	{r3, r4, r5, lr}
 2137              	.LCFI28:
 2138              		.cfi_def_cfa_offset 16
 2139              		.cfi_offset 3, -16
 2140              		.cfi_offset 4, -12
 2141              		.cfi_offset 5, -8
 2142              		.cfi_offset 14, -4
 2143 0002 0546     		mov	r5, r0
1049:Drivers/STM32H7xx_HAL_Driver/Src/stm32h7xx_ll_usb.c ****   uint32_t i;
 2144              		.loc 1 1049 0
 2145 0004 0446     		mov	r4, r0
 2146              	.LVL210:
1053:Drivers/STM32H7xx_HAL_Driver/Src/stm32h7xx_ll_usb.c ****   {
 2147              		.loc 1 1053 0
 2148 0006 0022     		movs	r2, #0
 2149 0008 08E0     		b	.L165
 2150              	.LVL211:
 2151              	.L166:
1055:Drivers/STM32H7xx_HAL_Driver/Src/stm32h7xx_ll_usb.c ****     USBx_OUTEP(i)->DOEPINT = 0xFB7FU;
ARM GAS  C:\Users\xiaofei\AppData\Local\Temp\ccBH0Ic6.s 			page 67


 2152              		.loc 1 1055 0 discriminator 3
 2153 000a 04EB4213 		add	r3, r4, r2, lsl #5
 2154 000e 4FF67F31 		movw	r1, #64383
 2155 0012 C3F80819 		str	r1, [r3, #2312]
1056:Drivers/STM32H7xx_HAL_Driver/Src/stm32h7xx_ll_usb.c ****   }
 2156              		.loc 1 1056 0 discriminator 3
 2157 0016 C3F8081B 		str	r1, [r3, #2824]
1053:Drivers/STM32H7xx_HAL_Driver/Src/stm32h7xx_ll_usb.c ****   {
 2158              		.loc 1 1053 0 discriminator 3
 2159 001a 0132     		adds	r2, r2, #1
 2160              	.LVL212:
 2161              	.L165:
1053:Drivers/STM32H7xx_HAL_Driver/Src/stm32h7xx_ll_usb.c ****   {
 2162              		.loc 1 1053 0 is_stmt 0 discriminator 1
 2163 001c 0E2A     		cmp	r2, #14
 2164 001e F4D9     		bls	.L166
1060:Drivers/STM32H7xx_HAL_Driver/Src/stm32h7xx_ll_usb.c ****   USBx_DEVICE->DOEPMSK  = 0U;
 2165              		.loc 1 1060 0 is_stmt 1
 2166 0020 0022     		movs	r2, #0
 2167              	.LVL213:
 2168 0022 C5F81028 		str	r2, [r5, #2064]
1061:Drivers/STM32H7xx_HAL_Driver/Src/stm32h7xx_ll_usb.c ****   USBx_DEVICE->DAINTMSK = 0U;
 2169              		.loc 1 1061 0
 2170 0026 C5F81428 		str	r2, [r5, #2068]
1062:Drivers/STM32H7xx_HAL_Driver/Src/stm32h7xx_ll_usb.c **** 
 2171              		.loc 1 1062 0
 2172 002a C5F81C28 		str	r2, [r5, #2076]
1065:Drivers/STM32H7xx_HAL_Driver/Src/stm32h7xx_ll_usb.c ****   if (ret != HAL_OK)
 2173              		.loc 1 1065 0
 2174 002e 2846     		mov	r0, r5
 2175              	.LVL214:
 2176 0030 FFF7FEFF 		bl	USB_FlushRxFifo
 2177              	.LVL215:
1066:Drivers/STM32H7xx_HAL_Driver/Src/stm32h7xx_ll_usb.c ****   {
 2178              		.loc 1 1066 0
 2179 0034 20B9     		cbnz	r0, .L168
1071:Drivers/STM32H7xx_HAL_Driver/Src/stm32h7xx_ll_usb.c ****   if (ret != HAL_OK)
 2180              		.loc 1 1071 0
 2181 0036 1021     		movs	r1, #16
 2182 0038 2846     		mov	r0, r5
 2183              	.LVL216:
 2184 003a FFF7FEFF 		bl	USB_FlushTxFifo
 2185              	.LVL217:
 2186 003e 38BD     		pop	{r3, r4, r5, pc}
 2187              	.LVL218:
 2188              	.L168:
1078:Drivers/STM32H7xx_HAL_Driver/Src/stm32h7xx_ll_usb.c **** 
 2189              		.loc 1 1078 0
 2190 0040 38BD     		pop	{r3, r4, r5, pc}
 2191              		.cfi_endproc
 2192              	.LFE161:
 2194 0042 00BF     		.section	.text.USB_SetDevAddress,"ax",%progbits
 2195              		.align	2
 2196              		.global	USB_SetDevAddress
 2197              		.thumb
 2198              		.thumb_func
 2200              	USB_SetDevAddress:
ARM GAS  C:\Users\xiaofei\AppData\Local\Temp\ccBH0Ic6.s 			page 68


 2201              	.LFB162:
1088:Drivers/STM32H7xx_HAL_Driver/Src/stm32h7xx_ll_usb.c ****   uint32_t USBx_BASE = (uint32_t)USBx;
 2202              		.loc 1 1088 0
 2203              		.cfi_startproc
 2204              		@ args = 0, pretend = 0, frame = 0
 2205              		@ frame_needed = 0, uses_anonymous_args = 0
 2206              		@ link register save eliminated.
 2207              	.LVL219:
1091:Drivers/STM32H7xx_HAL_Driver/Src/stm32h7xx_ll_usb.c ****   USBx_DEVICE->DCFG |= ((uint32_t)address << 4) & USB_OTG_DCFG_DAD;
 2208              		.loc 1 1091 0
 2209 0000 D0F80038 		ldr	r3, [r0, #2048]
 2210 0004 23F4FE63 		bic	r3, r3, #2032
 2211 0008 C0F80038 		str	r3, [r0, #2048]
1092:Drivers/STM32H7xx_HAL_Driver/Src/stm32h7xx_ll_usb.c **** 
 2212              		.loc 1 1092 0
 2213 000c D0F80038 		ldr	r3, [r0, #2048]
 2214 0010 0901     		lsls	r1, r1, #4
 2215              	.LVL220:
 2216 0012 01F4FE61 		and	r1, r1, #2032
 2217 0016 1943     		orrs	r1, r1, r3
 2218 0018 C0F80018 		str	r1, [r0, #2048]
1095:Drivers/STM32H7xx_HAL_Driver/Src/stm32h7xx_ll_usb.c **** 
 2219              		.loc 1 1095 0
 2220 001c 0020     		movs	r0, #0
 2221              	.LVL221:
 2222 001e 7047     		bx	lr
 2223              		.cfi_endproc
 2224              	.LFE162:
 2226              		.section	.text.USB_DevConnect,"ax",%progbits
 2227              		.align	2
 2228              		.global	USB_DevConnect
 2229              		.thumb
 2230              		.thumb_func
 2232              	USB_DevConnect:
 2233              	.LFB163:
1103:Drivers/STM32H7xx_HAL_Driver/Src/stm32h7xx_ll_usb.c ****   uint32_t USBx_BASE = (uint32_t)USBx;
 2234              		.loc 1 1103 0
 2235              		.cfi_startproc
 2236              		@ args = 0, pretend = 0, frame = 0
 2237              		@ frame_needed = 0, uses_anonymous_args = 0
 2238              	.LVL222:
 2239 0000 08B5     		push	{r3, lr}
 2240              	.LCFI29:
 2241              		.cfi_def_cfa_offset 8
 2242              		.cfi_offset 3, -8
 2243              		.cfi_offset 14, -4
 2244              	.LVL223:
1106:Drivers/STM32H7xx_HAL_Driver/Src/stm32h7xx_ll_usb.c ****   HAL_Delay(3U);
 2245              		.loc 1 1106 0
 2246 0002 D0F80438 		ldr	r3, [r0, #2052]
 2247 0006 23F00203 		bic	r3, r3, #2
 2248 000a C0F80438 		str	r3, [r0, #2052]
1107:Drivers/STM32H7xx_HAL_Driver/Src/stm32h7xx_ll_usb.c **** 
 2249              		.loc 1 1107 0
 2250 000e 0320     		movs	r0, #3
 2251              	.LVL224:
 2252 0010 FFF7FEFF 		bl	HAL_Delay
ARM GAS  C:\Users\xiaofei\AppData\Local\Temp\ccBH0Ic6.s 			page 69


 2253              	.LVL225:
1110:Drivers/STM32H7xx_HAL_Driver/Src/stm32h7xx_ll_usb.c **** 
 2254              		.loc 1 1110 0
 2255 0014 0020     		movs	r0, #0
 2256 0016 08BD     		pop	{r3, pc}
 2257              		.cfi_endproc
 2258              	.LFE163:
 2260              		.section	.text.USB_DevDisconnect,"ax",%progbits
 2261              		.align	2
 2262              		.global	USB_DevDisconnect
 2263              		.thumb
 2264              		.thumb_func
 2266              	USB_DevDisconnect:
 2267              	.LFB164:
1118:Drivers/STM32H7xx_HAL_Driver/Src/stm32h7xx_ll_usb.c ****   uint32_t USBx_BASE = (uint32_t)USBx;
 2268              		.loc 1 1118 0
 2269              		.cfi_startproc
 2270              		@ args = 0, pretend = 0, frame = 0
 2271              		@ frame_needed = 0, uses_anonymous_args = 0
 2272              	.LVL226:
 2273 0000 08B5     		push	{r3, lr}
 2274              	.LCFI30:
 2275              		.cfi_def_cfa_offset 8
 2276              		.cfi_offset 3, -8
 2277              		.cfi_offset 14, -4
 2278              	.LVL227:
1121:Drivers/STM32H7xx_HAL_Driver/Src/stm32h7xx_ll_usb.c ****   HAL_Delay(3U);
 2279              		.loc 1 1121 0
 2280 0002 D0F80438 		ldr	r3, [r0, #2052]
 2281 0006 43F00203 		orr	r3, r3, #2
 2282 000a C0F80438 		str	r3, [r0, #2052]
1122:Drivers/STM32H7xx_HAL_Driver/Src/stm32h7xx_ll_usb.c **** 
 2283              		.loc 1 1122 0
 2284 000e 0320     		movs	r0, #3
 2285              	.LVL228:
 2286 0010 FFF7FEFF 		bl	HAL_Delay
 2287              	.LVL229:
1125:Drivers/STM32H7xx_HAL_Driver/Src/stm32h7xx_ll_usb.c **** 
 2288              		.loc 1 1125 0
 2289 0014 0020     		movs	r0, #0
 2290 0016 08BD     		pop	{r3, pc}
 2291              		.cfi_endproc
 2292              	.LFE164:
 2294              		.section	.text.USB_ReadInterrupts,"ax",%progbits
 2295              		.align	2
 2296              		.global	USB_ReadInterrupts
 2297              		.thumb
 2298              		.thumb_func
 2300              	USB_ReadInterrupts:
 2301              	.LFB165:
1133:Drivers/STM32H7xx_HAL_Driver/Src/stm32h7xx_ll_usb.c ****   uint32_t tmpreg;
 2302              		.loc 1 1133 0
 2303              		.cfi_startproc
 2304              		@ args = 0, pretend = 0, frame = 0
 2305              		@ frame_needed = 0, uses_anonymous_args = 0
 2306              		@ link register save eliminated.
 2307              	.LVL230:
ARM GAS  C:\Users\xiaofei\AppData\Local\Temp\ccBH0Ic6.s 			page 70


1136:Drivers/STM32H7xx_HAL_Driver/Src/stm32h7xx_ll_usb.c ****   tmpreg &= USBx->GINTMSK;
 2308              		.loc 1 1136 0
 2309 0000 4269     		ldr	r2, [r0, #20]
 2310              	.LVL231:
1137:Drivers/STM32H7xx_HAL_Driver/Src/stm32h7xx_ll_usb.c **** 
 2311              		.loc 1 1137 0
 2312 0002 8069     		ldr	r0, [r0, #24]
 2313              	.LVL232:
1140:Drivers/STM32H7xx_HAL_Driver/Src/stm32h7xx_ll_usb.c **** 
 2314              		.loc 1 1140 0
 2315 0004 1040     		ands	r0, r0, r2
 2316              	.LVL233:
 2317 0006 7047     		bx	lr
 2318              		.cfi_endproc
 2319              	.LFE165:
 2321              		.section	.text.USB_ReadDevAllOutEpInterrupt,"ax",%progbits
 2322              		.align	2
 2323              		.global	USB_ReadDevAllOutEpInterrupt
 2324              		.thumb
 2325              		.thumb_func
 2327              	USB_ReadDevAllOutEpInterrupt:
 2328              	.LFB166:
1148:Drivers/STM32H7xx_HAL_Driver/Src/stm32h7xx_ll_usb.c ****   uint32_t USBx_BASE = (uint32_t)USBx;
 2329              		.loc 1 1148 0
 2330              		.cfi_startproc
 2331              		@ args = 0, pretend = 0, frame = 0
 2332              		@ frame_needed = 0, uses_anonymous_args = 0
 2333              		@ link register save eliminated.
 2334              	.LVL234:
1152:Drivers/STM32H7xx_HAL_Driver/Src/stm32h7xx_ll_usb.c ****   tmpreg &= USBx_DEVICE->DAINTMSK;
 2335              		.loc 1 1152 0
 2336 0000 00F50063 		add	r3, r0, #2048
 2337 0004 D0F81808 		ldr	r0, [r0, #2072]
 2338              	.LVL235:
1153:Drivers/STM32H7xx_HAL_Driver/Src/stm32h7xx_ll_usb.c **** 
 2339              		.loc 1 1153 0
 2340 0008 DB69     		ldr	r3, [r3, #28]
 2341              	.LVL236:
 2342 000a 1840     		ands	r0, r0, r3
 2343              	.LVL237:
1156:Drivers/STM32H7xx_HAL_Driver/Src/stm32h7xx_ll_usb.c **** 
 2344              		.loc 1 1156 0
 2345 000c 000C     		lsrs	r0, r0, #16
 2346              	.LVL238:
 2347 000e 7047     		bx	lr
 2348              		.cfi_endproc
 2349              	.LFE166:
 2351              		.section	.text.USB_ReadDevAllInEpInterrupt,"ax",%progbits
 2352              		.align	2
 2353              		.global	USB_ReadDevAllInEpInterrupt
 2354              		.thumb
 2355              		.thumb_func
 2357              	USB_ReadDevAllInEpInterrupt:
 2358              	.LFB167:
1164:Drivers/STM32H7xx_HAL_Driver/Src/stm32h7xx_ll_usb.c ****   uint32_t USBx_BASE = (uint32_t)USBx;
 2359              		.loc 1 1164 0
 2360              		.cfi_startproc
ARM GAS  C:\Users\xiaofei\AppData\Local\Temp\ccBH0Ic6.s 			page 71


 2361              		@ args = 0, pretend = 0, frame = 0
 2362              		@ frame_needed = 0, uses_anonymous_args = 0
 2363              		@ link register save eliminated.
 2364              	.LVL239:
1168:Drivers/STM32H7xx_HAL_Driver/Src/stm32h7xx_ll_usb.c ****   tmpreg &= USBx_DEVICE->DAINTMSK;
 2365              		.loc 1 1168 0
 2366 0000 00F50063 		add	r3, r0, #2048
 2367 0004 D0F81808 		ldr	r0, [r0, #2072]
 2368              	.LVL240:
1169:Drivers/STM32H7xx_HAL_Driver/Src/stm32h7xx_ll_usb.c **** 
 2369              		.loc 1 1169 0
 2370 0008 DB69     		ldr	r3, [r3, #28]
 2371              	.LVL241:
 2372 000a 1840     		ands	r0, r0, r3
 2373              	.LVL242:
1172:Drivers/STM32H7xx_HAL_Driver/Src/stm32h7xx_ll_usb.c **** 
 2374              		.loc 1 1172 0
 2375 000c 80B2     		uxth	r0, r0
 2376              	.LVL243:
 2377 000e 7047     		bx	lr
 2378              		.cfi_endproc
 2379              	.LFE167:
 2381              		.section	.text.USB_ReadDevOutEPInterrupt,"ax",%progbits
 2382              		.align	2
 2383              		.global	USB_ReadDevOutEPInterrupt
 2384              		.thumb
 2385              		.thumb_func
 2387              	USB_ReadDevOutEPInterrupt:
 2388              	.LFB168:
1182:Drivers/STM32H7xx_HAL_Driver/Src/stm32h7xx_ll_usb.c ****   uint32_t USBx_BASE = (uint32_t)USBx;
 2389              		.loc 1 1182 0
 2390              		.cfi_startproc
 2391              		@ args = 0, pretend = 0, frame = 0
 2392              		@ frame_needed = 0, uses_anonymous_args = 0
 2393              		@ link register save eliminated.
 2394              	.LVL244:
1186:Drivers/STM32H7xx_HAL_Driver/Src/stm32h7xx_ll_usb.c ****   tmpreg &= USBx_DEVICE->DOEPMSK;
 2395              		.loc 1 1186 0
 2396 0000 00EB4111 		add	r1, r0, r1, lsl #5
 2397              	.LVL245:
 2398 0004 D1F8082B 		ldr	r2, [r1, #2824]
 2399              	.LVL246:
1187:Drivers/STM32H7xx_HAL_Driver/Src/stm32h7xx_ll_usb.c **** 
 2400              		.loc 1 1187 0
 2401 0008 00F50060 		add	r0, r0, #2048
 2402              	.LVL247:
 2403 000c 4069     		ldr	r0, [r0, #20]
 2404              	.LVL248:
1190:Drivers/STM32H7xx_HAL_Driver/Src/stm32h7xx_ll_usb.c **** 
 2405              		.loc 1 1190 0
 2406 000e 1040     		ands	r0, r0, r2
 2407              	.LVL249:
 2408 0010 7047     		bx	lr
 2409              		.cfi_endproc
 2410              	.LFE168:
 2412 0012 00BF     		.section	.text.USB_ReadDevInEPInterrupt,"ax",%progbits
 2413              		.align	2
ARM GAS  C:\Users\xiaofei\AppData\Local\Temp\ccBH0Ic6.s 			page 72


 2414              		.global	USB_ReadDevInEPInterrupt
 2415              		.thumb
 2416              		.thumb_func
 2418              	USB_ReadDevInEPInterrupt:
 2419              	.LFB169:
1200:Drivers/STM32H7xx_HAL_Driver/Src/stm32h7xx_ll_usb.c ****   uint32_t USBx_BASE = (uint32_t)USBx;
 2420              		.loc 1 1200 0
 2421              		.cfi_startproc
 2422              		@ args = 0, pretend = 0, frame = 0
 2423              		@ frame_needed = 0, uses_anonymous_args = 0
 2424              		@ link register save eliminated.
 2425              	.LVL250:
 2426 0000 10B4     		push	{r4}
 2427              	.LCFI31:
 2428              		.cfi_def_cfa_offset 4
 2429              		.cfi_offset 4, -4
 2430              	.LVL251:
1204:Drivers/STM32H7xx_HAL_Driver/Src/stm32h7xx_ll_usb.c ****   emp = USBx_DEVICE->DIEPEMPMSK;
 2431              		.loc 1 1204 0
 2432 0002 D0F81048 		ldr	r4, [r0, #2064]
 2433              	.LVL252:
1205:Drivers/STM32H7xx_HAL_Driver/Src/stm32h7xx_ll_usb.c ****   msk |= ((emp >> (epnum & EP_ADDR_MSK)) & 0x1U) << 7;
 2434              		.loc 1 1205 0
 2435 0006 D0F83428 		ldr	r2, [r0, #2100]
 2436              	.LVL253:
1206:Drivers/STM32H7xx_HAL_Driver/Src/stm32h7xx_ll_usb.c ****   tmpreg = USBx_INEP((uint32_t)epnum)->DIEPINT & msk;
 2437              		.loc 1 1206 0
 2438 000a 01F00F03 		and	r3, r1, #15
 2439 000e 22FA03F3 		lsr	r3, r2, r3
 2440 0012 DB01     		lsls	r3, r3, #7
 2441 0014 DBB2     		uxtb	r3, r3
 2442 0016 2343     		orrs	r3, r3, r4
 2443              	.LVL254:
1207:Drivers/STM32H7xx_HAL_Driver/Src/stm32h7xx_ll_usb.c **** 
 2444              		.loc 1 1207 0
 2445 0018 00EB4110 		add	r0, r0, r1, lsl #5
 2446              	.LVL255:
 2447 001c 00F51060 		add	r0, r0, #2304
 2448 0020 8068     		ldr	r0, [r0, #8]
 2449              	.LVL256:
1210:Drivers/STM32H7xx_HAL_Driver/Src/stm32h7xx_ll_usb.c **** 
 2450              		.loc 1 1210 0
 2451 0022 1840     		ands	r0, r0, r3
 2452              	.LVL257:
 2453 0024 5DF8044B 		ldr	r4, [sp], #4
 2454              	.LCFI32:
 2455              		.cfi_restore 4
 2456              		.cfi_def_cfa_offset 0
 2457 0028 7047     		bx	lr
 2458              		.cfi_endproc
 2459              	.LFE169:
 2461 002a 00BF     		.section	.text.USB_ClearInterrupts,"ax",%progbits
 2462              		.align	2
 2463              		.global	USB_ClearInterrupts
 2464              		.thumb
 2465              		.thumb_func
 2467              	USB_ClearInterrupts:
ARM GAS  C:\Users\xiaofei\AppData\Local\Temp\ccBH0Ic6.s 			page 73


 2468              	.LFB170:
1219:Drivers/STM32H7xx_HAL_Driver/Src/stm32h7xx_ll_usb.c ****   USBx->GINTSTS |= interrupt;
 2469              		.loc 1 1219 0
 2470              		.cfi_startproc
 2471              		@ args = 0, pretend = 0, frame = 0
 2472              		@ frame_needed = 0, uses_anonymous_args = 0
 2473              		@ link register save eliminated.
 2474              	.LVL258:
1220:Drivers/STM32H7xx_HAL_Driver/Src/stm32h7xx_ll_usb.c **** }
 2475              		.loc 1 1220 0
 2476 0000 4369     		ldr	r3, [r0, #20]
 2477 0002 1943     		orrs	r1, r1, r3
 2478              	.LVL259:
 2479 0004 4161     		str	r1, [r0, #20]
 2480 0006 7047     		bx	lr
 2481              		.cfi_endproc
 2482              	.LFE170:
 2484              		.section	.text.USB_GetMode,"ax",%progbits
 2485              		.align	2
 2486              		.global	USB_GetMode
 2487              		.thumb
 2488              		.thumb_func
 2490              	USB_GetMode:
 2491              	.LFB171:
1232:Drivers/STM32H7xx_HAL_Driver/Src/stm32h7xx_ll_usb.c ****   return ((USBx->GINTSTS) & 0x1U);
 2492              		.loc 1 1232 0
 2493              		.cfi_startproc
 2494              		@ args = 0, pretend = 0, frame = 0
 2495              		@ frame_needed = 0, uses_anonymous_args = 0
 2496              		@ link register save eliminated.
 2497              	.LVL260:
1233:Drivers/STM32H7xx_HAL_Driver/Src/stm32h7xx_ll_usb.c **** }
 2498              		.loc 1 1233 0
 2499 0000 4069     		ldr	r0, [r0, #20]
 2500              	.LVL261:
1234:Drivers/STM32H7xx_HAL_Driver/Src/stm32h7xx_ll_usb.c **** 
 2501              		.loc 1 1234 0
 2502 0002 00F00100 		and	r0, r0, #1
 2503 0006 7047     		bx	lr
 2504              		.cfi_endproc
 2505              	.LFE171:
 2507              		.section	.text.USB_ActivateSetup,"ax",%progbits
 2508              		.align	2
 2509              		.global	USB_ActivateSetup
 2510              		.thumb
 2511              		.thumb_func
 2513              	USB_ActivateSetup:
 2514              	.LFB172:
1242:Drivers/STM32H7xx_HAL_Driver/Src/stm32h7xx_ll_usb.c ****   uint32_t USBx_BASE = (uint32_t)USBx;
 2515              		.loc 1 1242 0
 2516              		.cfi_startproc
 2517              		@ args = 0, pretend = 0, frame = 0
 2518              		@ frame_needed = 0, uses_anonymous_args = 0
 2519              		@ link register save eliminated.
 2520              	.LVL262:
1246:Drivers/STM32H7xx_HAL_Driver/Src/stm32h7xx_ll_usb.c **** 
 2521              		.loc 1 1246 0
ARM GAS  C:\Users\xiaofei\AppData\Local\Temp\ccBH0Ic6.s 			page 74


 2522 0000 D0F80029 		ldr	r2, [r0, #2304]
 2523 0004 054B     		ldr	r3, .L184
 2524 0006 1340     		ands	r3, r3, r2
 2525 0008 C0F80039 		str	r3, [r0, #2304]
1248:Drivers/STM32H7xx_HAL_Driver/Src/stm32h7xx_ll_usb.c **** 
 2526              		.loc 1 1248 0
 2527 000c D0F80438 		ldr	r3, [r0, #2052]
 2528 0010 43F48073 		orr	r3, r3, #256
 2529 0014 C0F80438 		str	r3, [r0, #2052]
1251:Drivers/STM32H7xx_HAL_Driver/Src/stm32h7xx_ll_usb.c **** 
 2530              		.loc 1 1251 0
 2531 0018 0020     		movs	r0, #0
 2532              	.LVL263:
 2533 001a 7047     		bx	lr
 2534              	.L185:
 2535              		.align	2
 2536              	.L184:
 2537 001c 00F8FFFF 		.word	-2048
 2538              		.cfi_endproc
 2539              	.LFE172:
 2541              		.section	.text.USB_EP0_OutStart,"ax",%progbits
 2542              		.align	2
 2543              		.global	USB_EP0_OutStart
 2544              		.thumb
 2545              		.thumb_func
 2547              	USB_EP0_OutStart:
 2548              	.LFB173:
1264:Drivers/STM32H7xx_HAL_Driver/Src/stm32h7xx_ll_usb.c ****   uint32_t USBx_BASE = (uint32_t)USBx;
 2549              		.loc 1 1264 0
 2550              		.cfi_startproc
 2551              		@ args = 0, pretend = 0, frame = 0
 2552              		@ frame_needed = 0, uses_anonymous_args = 0
 2553              		@ link register save eliminated.
 2554              	.LVL264:
 2555 0000 10B4     		push	{r4}
 2556              	.LCFI33:
 2557              		.cfi_def_cfa_offset 4
 2558              		.cfi_offset 4, -4
 2559              	.LVL265:
1266:Drivers/STM32H7xx_HAL_Driver/Src/stm32h7xx_ll_usb.c **** 
 2560              		.loc 1 1266 0
 2561 0002 046C     		ldr	r4, [r0, #64]
 2562              	.LVL266:
1268:Drivers/STM32H7xx_HAL_Driver/Src/stm32h7xx_ll_usb.c ****   {
 2563              		.loc 1 1268 0
 2564 0004 144B     		ldr	r3, .L190
 2565 0006 9C42     		cmp	r4, r3
 2566 0008 03D9     		bls	.L187
1270:Drivers/STM32H7xx_HAL_Driver/Src/stm32h7xx_ll_usb.c ****     {
 2567              		.loc 1 1270 0
 2568 000a D0F8003B 		ldr	r3, [r0, #2816]
 2569 000e 002B     		cmp	r3, #0
 2570 0010 1EDB     		blt	.L188
 2571              	.L187:
1276:Drivers/STM32H7xx_HAL_Driver/Src/stm32h7xx_ll_usb.c ****   USBx_OUTEP(0U)->DOEPTSIZ |= (USB_OTG_DOEPTSIZ_PKTCNT & (1U << 19));
 2572              		.loc 1 1276 0
 2573 0012 0024     		movs	r4, #0
ARM GAS  C:\Users\xiaofei\AppData\Local\Temp\ccBH0Ic6.s 			page 75


 2574              	.LVL267:
 2575 0014 C0F8104B 		str	r4, [r0, #2832]
1277:Drivers/STM32H7xx_HAL_Driver/Src/stm32h7xx_ll_usb.c ****   USBx_OUTEP(0U)->DOEPTSIZ |= (3U * 8U);
 2576              		.loc 1 1277 0
 2577 0018 D0F8104B 		ldr	r4, [r0, #2832]
 2578 001c 44F40024 		orr	r4, r4, #524288
 2579 0020 C0F8104B 		str	r4, [r0, #2832]
1278:Drivers/STM32H7xx_HAL_Driver/Src/stm32h7xx_ll_usb.c ****   USBx_OUTEP(0U)->DOEPTSIZ |=  USB_OTG_DOEPTSIZ_STUPCNT;
 2580              		.loc 1 1278 0
 2581 0024 D0F8104B 		ldr	r4, [r0, #2832]
 2582 0028 44F01804 		orr	r4, r4, #24
 2583 002c C0F8104B 		str	r4, [r0, #2832]
1279:Drivers/STM32H7xx_HAL_Driver/Src/stm32h7xx_ll_usb.c **** 
 2584              		.loc 1 1279 0
 2585 0030 D0F8104B 		ldr	r4, [r0, #2832]
 2586 0034 44F0C044 		orr	r4, r4, #1610612736
 2587 0038 C0F8104B 		str	r4, [r0, #2832]
1281:Drivers/STM32H7xx_HAL_Driver/Src/stm32h7xx_ll_usb.c ****   {
 2588              		.loc 1 1281 0
 2589 003c 0129     		cmp	r1, #1
 2590 003e 07D1     		bne	.L188
1283:Drivers/STM32H7xx_HAL_Driver/Src/stm32h7xx_ll_usb.c ****     /* EP enable */
 2591              		.loc 1 1283 0
 2592 0040 C0F8142B 		str	r2, [r0, #2836]
1285:Drivers/STM32H7xx_HAL_Driver/Src/stm32h7xx_ll_usb.c ****   }
 2593              		.loc 1 1285 0
 2594 0044 D0F8003B 		ldr	r3, [r0, #2816]
 2595 0048 43F08023 		orr	r3, r3, #-2147450880
 2596 004c C0F8003B 		str	r3, [r0, #2816]
 2597              	.L188:
1289:Drivers/STM32H7xx_HAL_Driver/Src/stm32h7xx_ll_usb.c **** 
 2598              		.loc 1 1289 0
 2599 0050 0020     		movs	r0, #0
 2600              	.LVL268:
 2601 0052 5DF8044B 		ldr	r4, [sp], #4
 2602              	.LCFI34:
 2603              		.cfi_restore 4
 2604              		.cfi_def_cfa_offset 0
 2605 0056 7047     		bx	lr
 2606              	.L191:
 2607              		.align	2
 2608              	.L190:
 2609 0058 0A30544F 		.word	1330917386
 2610              		.cfi_endproc
 2611              	.LFE173:
 2613              		.section	.text.USB_InitFSLSPClkSel,"ax",%progbits
 2614              		.align	2
 2615              		.global	USB_InitFSLSPClkSel
 2616              		.thumb
 2617              		.thumb_func
 2619              	USB_InitFSLSPClkSel:
 2620              	.LFB176:
1325:Drivers/STM32H7xx_HAL_Driver/Src/stm32h7xx_ll_usb.c **** 
1326:Drivers/STM32H7xx_HAL_Driver/Src/stm32h7xx_ll_usb.c **** /**
1327:Drivers/STM32H7xx_HAL_Driver/Src/stm32h7xx_ll_usb.c ****   * @brief  USB_HostInit : Initializes the USB OTG controller registers
1328:Drivers/STM32H7xx_HAL_Driver/Src/stm32h7xx_ll_usb.c ****   *         for Host mode
1329:Drivers/STM32H7xx_HAL_Driver/Src/stm32h7xx_ll_usb.c ****   * @param  USBx  Selected device
ARM GAS  C:\Users\xiaofei\AppData\Local\Temp\ccBH0Ic6.s 			page 76


1330:Drivers/STM32H7xx_HAL_Driver/Src/stm32h7xx_ll_usb.c ****   * @param  cfg   pointer to a USB_OTG_CfgTypeDef structure that contains
1331:Drivers/STM32H7xx_HAL_Driver/Src/stm32h7xx_ll_usb.c ****   *         the configuration information for the specified USBx peripheral.
1332:Drivers/STM32H7xx_HAL_Driver/Src/stm32h7xx_ll_usb.c ****   * @retval HAL status
1333:Drivers/STM32H7xx_HAL_Driver/Src/stm32h7xx_ll_usb.c ****   */
1334:Drivers/STM32H7xx_HAL_Driver/Src/stm32h7xx_ll_usb.c **** HAL_StatusTypeDef USB_HostInit(USB_OTG_GlobalTypeDef *USBx, USB_OTG_CfgTypeDef cfg)
1335:Drivers/STM32H7xx_HAL_Driver/Src/stm32h7xx_ll_usb.c **** {
1336:Drivers/STM32H7xx_HAL_Driver/Src/stm32h7xx_ll_usb.c ****   uint32_t USBx_BASE = (uint32_t)USBx;
1337:Drivers/STM32H7xx_HAL_Driver/Src/stm32h7xx_ll_usb.c ****   uint32_t i;
1338:Drivers/STM32H7xx_HAL_Driver/Src/stm32h7xx_ll_usb.c **** 
1339:Drivers/STM32H7xx_HAL_Driver/Src/stm32h7xx_ll_usb.c ****   /* Restart the Phy Clock */
1340:Drivers/STM32H7xx_HAL_Driver/Src/stm32h7xx_ll_usb.c ****   USBx_PCGCCTL = 0U;
1341:Drivers/STM32H7xx_HAL_Driver/Src/stm32h7xx_ll_usb.c **** 
1342:Drivers/STM32H7xx_HAL_Driver/Src/stm32h7xx_ll_usb.c ****   /* Disable VBUS sensing */
1343:Drivers/STM32H7xx_HAL_Driver/Src/stm32h7xx_ll_usb.c ****   USBx->GCCFG &= ~(USB_OTG_GCCFG_VBDEN);
1344:Drivers/STM32H7xx_HAL_Driver/Src/stm32h7xx_ll_usb.c **** 
1345:Drivers/STM32H7xx_HAL_Driver/Src/stm32h7xx_ll_usb.c ****   /* Disable Battery chargin detector */
1346:Drivers/STM32H7xx_HAL_Driver/Src/stm32h7xx_ll_usb.c ****   USBx->GCCFG &= ~(USB_OTG_GCCFG_BCDEN);
1347:Drivers/STM32H7xx_HAL_Driver/Src/stm32h7xx_ll_usb.c **** 
1348:Drivers/STM32H7xx_HAL_Driver/Src/stm32h7xx_ll_usb.c **** 
1349:Drivers/STM32H7xx_HAL_Driver/Src/stm32h7xx_ll_usb.c ****   if ((USBx->CID & (0x1U << 8)) != 0U)
1350:Drivers/STM32H7xx_HAL_Driver/Src/stm32h7xx_ll_usb.c ****   {
1351:Drivers/STM32H7xx_HAL_Driver/Src/stm32h7xx_ll_usb.c ****     if (cfg.speed == USBH_FSLS_SPEED)
1352:Drivers/STM32H7xx_HAL_Driver/Src/stm32h7xx_ll_usb.c ****     {
1353:Drivers/STM32H7xx_HAL_Driver/Src/stm32h7xx_ll_usb.c ****       /* Force Device Enumeration to FS/LS mode only */
1354:Drivers/STM32H7xx_HAL_Driver/Src/stm32h7xx_ll_usb.c ****       USBx_HOST->HCFG |= USB_OTG_HCFG_FSLSS;
1355:Drivers/STM32H7xx_HAL_Driver/Src/stm32h7xx_ll_usb.c ****     }
1356:Drivers/STM32H7xx_HAL_Driver/Src/stm32h7xx_ll_usb.c ****     else
1357:Drivers/STM32H7xx_HAL_Driver/Src/stm32h7xx_ll_usb.c ****     {
1358:Drivers/STM32H7xx_HAL_Driver/Src/stm32h7xx_ll_usb.c ****       /* Set default Max speed support */
1359:Drivers/STM32H7xx_HAL_Driver/Src/stm32h7xx_ll_usb.c ****       USBx_HOST->HCFG &= ~(USB_OTG_HCFG_FSLSS);
1360:Drivers/STM32H7xx_HAL_Driver/Src/stm32h7xx_ll_usb.c ****     }
1361:Drivers/STM32H7xx_HAL_Driver/Src/stm32h7xx_ll_usb.c ****   }
1362:Drivers/STM32H7xx_HAL_Driver/Src/stm32h7xx_ll_usb.c ****   else
1363:Drivers/STM32H7xx_HAL_Driver/Src/stm32h7xx_ll_usb.c ****   {
1364:Drivers/STM32H7xx_HAL_Driver/Src/stm32h7xx_ll_usb.c ****     /* Set default Max speed support */
1365:Drivers/STM32H7xx_HAL_Driver/Src/stm32h7xx_ll_usb.c ****     USBx_HOST->HCFG &= ~(USB_OTG_HCFG_FSLSS);
1366:Drivers/STM32H7xx_HAL_Driver/Src/stm32h7xx_ll_usb.c ****   }
1367:Drivers/STM32H7xx_HAL_Driver/Src/stm32h7xx_ll_usb.c **** 
1368:Drivers/STM32H7xx_HAL_Driver/Src/stm32h7xx_ll_usb.c ****   /* Make sure the FIFOs are flushed. */
1369:Drivers/STM32H7xx_HAL_Driver/Src/stm32h7xx_ll_usb.c ****   (void)USB_FlushTxFifo(USBx, 0x10U); /* all Tx FIFOs */
1370:Drivers/STM32H7xx_HAL_Driver/Src/stm32h7xx_ll_usb.c ****   (void)USB_FlushRxFifo(USBx);
1371:Drivers/STM32H7xx_HAL_Driver/Src/stm32h7xx_ll_usb.c **** 
1372:Drivers/STM32H7xx_HAL_Driver/Src/stm32h7xx_ll_usb.c ****   /* Clear all pending HC Interrupts */
1373:Drivers/STM32H7xx_HAL_Driver/Src/stm32h7xx_ll_usb.c ****   for (i = 0U; i < cfg.Host_channels; i++)
1374:Drivers/STM32H7xx_HAL_Driver/Src/stm32h7xx_ll_usb.c ****   {
1375:Drivers/STM32H7xx_HAL_Driver/Src/stm32h7xx_ll_usb.c ****     USBx_HC(i)->HCINT = 0xFFFFFFFFU;
1376:Drivers/STM32H7xx_HAL_Driver/Src/stm32h7xx_ll_usb.c ****     USBx_HC(i)->HCINTMSK = 0U;
1377:Drivers/STM32H7xx_HAL_Driver/Src/stm32h7xx_ll_usb.c ****   }
1378:Drivers/STM32H7xx_HAL_Driver/Src/stm32h7xx_ll_usb.c **** 
1379:Drivers/STM32H7xx_HAL_Driver/Src/stm32h7xx_ll_usb.c ****   /* Enable VBUS driving */
1380:Drivers/STM32H7xx_HAL_Driver/Src/stm32h7xx_ll_usb.c ****   (void)USB_DriveVbus(USBx, 1U);
1381:Drivers/STM32H7xx_HAL_Driver/Src/stm32h7xx_ll_usb.c **** 
1382:Drivers/STM32H7xx_HAL_Driver/Src/stm32h7xx_ll_usb.c ****   HAL_Delay(200U);
1383:Drivers/STM32H7xx_HAL_Driver/Src/stm32h7xx_ll_usb.c **** 
1384:Drivers/STM32H7xx_HAL_Driver/Src/stm32h7xx_ll_usb.c ****   /* Disable all interrupts. */
1385:Drivers/STM32H7xx_HAL_Driver/Src/stm32h7xx_ll_usb.c ****   USBx->GINTMSK = 0U;
1386:Drivers/STM32H7xx_HAL_Driver/Src/stm32h7xx_ll_usb.c **** 
ARM GAS  C:\Users\xiaofei\AppData\Local\Temp\ccBH0Ic6.s 			page 77


1387:Drivers/STM32H7xx_HAL_Driver/Src/stm32h7xx_ll_usb.c ****   /* Clear any pending interrupts */
1388:Drivers/STM32H7xx_HAL_Driver/Src/stm32h7xx_ll_usb.c ****   USBx->GINTSTS = 0xFFFFFFFFU;
1389:Drivers/STM32H7xx_HAL_Driver/Src/stm32h7xx_ll_usb.c **** 
1390:Drivers/STM32H7xx_HAL_Driver/Src/stm32h7xx_ll_usb.c ****   if ((USBx->CID & (0x1U << 8)) != 0U)
1391:Drivers/STM32H7xx_HAL_Driver/Src/stm32h7xx_ll_usb.c ****   {
1392:Drivers/STM32H7xx_HAL_Driver/Src/stm32h7xx_ll_usb.c ****     /* set Rx FIFO size */
1393:Drivers/STM32H7xx_HAL_Driver/Src/stm32h7xx_ll_usb.c ****     USBx->GRXFSIZ  = 0x200U;
1394:Drivers/STM32H7xx_HAL_Driver/Src/stm32h7xx_ll_usb.c ****     USBx->DIEPTXF0_HNPTXFSIZ = (uint32_t)(((0x100U << 16) & USB_OTG_NPTXFD) | 0x200U);
1395:Drivers/STM32H7xx_HAL_Driver/Src/stm32h7xx_ll_usb.c ****     USBx->HPTXFSIZ = (uint32_t)(((0xE0U << 16) & USB_OTG_HPTXFSIZ_PTXFD) | 0x300U);
1396:Drivers/STM32H7xx_HAL_Driver/Src/stm32h7xx_ll_usb.c ****   }
1397:Drivers/STM32H7xx_HAL_Driver/Src/stm32h7xx_ll_usb.c ****   else
1398:Drivers/STM32H7xx_HAL_Driver/Src/stm32h7xx_ll_usb.c ****   {
1399:Drivers/STM32H7xx_HAL_Driver/Src/stm32h7xx_ll_usb.c ****     /* set Rx FIFO size */
1400:Drivers/STM32H7xx_HAL_Driver/Src/stm32h7xx_ll_usb.c ****     USBx->GRXFSIZ  = 0x80U;
1401:Drivers/STM32H7xx_HAL_Driver/Src/stm32h7xx_ll_usb.c ****     USBx->DIEPTXF0_HNPTXFSIZ = (uint32_t)(((0x60U << 16) & USB_OTG_NPTXFD) | 0x80U);
1402:Drivers/STM32H7xx_HAL_Driver/Src/stm32h7xx_ll_usb.c ****     USBx->HPTXFSIZ = (uint32_t)(((0x40U << 16)& USB_OTG_HPTXFSIZ_PTXFD) | 0xE0U);
1403:Drivers/STM32H7xx_HAL_Driver/Src/stm32h7xx_ll_usb.c ****   }
1404:Drivers/STM32H7xx_HAL_Driver/Src/stm32h7xx_ll_usb.c **** 
1405:Drivers/STM32H7xx_HAL_Driver/Src/stm32h7xx_ll_usb.c ****   /* Enable the common interrupts */
1406:Drivers/STM32H7xx_HAL_Driver/Src/stm32h7xx_ll_usb.c ****   if (cfg.dma_enable == 0U)
1407:Drivers/STM32H7xx_HAL_Driver/Src/stm32h7xx_ll_usb.c ****   {
1408:Drivers/STM32H7xx_HAL_Driver/Src/stm32h7xx_ll_usb.c ****     USBx->GINTMSK |= USB_OTG_GINTMSK_RXFLVLM;
1409:Drivers/STM32H7xx_HAL_Driver/Src/stm32h7xx_ll_usb.c ****   }
1410:Drivers/STM32H7xx_HAL_Driver/Src/stm32h7xx_ll_usb.c **** 
1411:Drivers/STM32H7xx_HAL_Driver/Src/stm32h7xx_ll_usb.c ****   /* Enable interrupts matching to the Host mode ONLY */
1412:Drivers/STM32H7xx_HAL_Driver/Src/stm32h7xx_ll_usb.c ****   USBx->GINTMSK |= (USB_OTG_GINTMSK_PRTIM            | USB_OTG_GINTMSK_HCIM | \
1413:Drivers/STM32H7xx_HAL_Driver/Src/stm32h7xx_ll_usb.c ****                     USB_OTG_GINTMSK_SOFM             | USB_OTG_GINTSTS_DISCINT | \
1414:Drivers/STM32H7xx_HAL_Driver/Src/stm32h7xx_ll_usb.c ****                     USB_OTG_GINTMSK_PXFRM_IISOOXFRM  | USB_OTG_GINTMSK_WUIM);
1415:Drivers/STM32H7xx_HAL_Driver/Src/stm32h7xx_ll_usb.c **** 
1416:Drivers/STM32H7xx_HAL_Driver/Src/stm32h7xx_ll_usb.c ****   return HAL_OK;
1417:Drivers/STM32H7xx_HAL_Driver/Src/stm32h7xx_ll_usb.c **** }
1418:Drivers/STM32H7xx_HAL_Driver/Src/stm32h7xx_ll_usb.c **** 
1419:Drivers/STM32H7xx_HAL_Driver/Src/stm32h7xx_ll_usb.c **** /**
1420:Drivers/STM32H7xx_HAL_Driver/Src/stm32h7xx_ll_usb.c ****   * @brief  USB_InitFSLSPClkSel : Initializes the FSLSPClkSel field of the
1421:Drivers/STM32H7xx_HAL_Driver/Src/stm32h7xx_ll_usb.c ****   *         HCFG register on the PHY type and set the right frame interval
1422:Drivers/STM32H7xx_HAL_Driver/Src/stm32h7xx_ll_usb.c ****   * @param  USBx  Selected device
1423:Drivers/STM32H7xx_HAL_Driver/Src/stm32h7xx_ll_usb.c ****   * @param  freq  clock frequency
1424:Drivers/STM32H7xx_HAL_Driver/Src/stm32h7xx_ll_usb.c ****   *          This parameter can be one of these values:
1425:Drivers/STM32H7xx_HAL_Driver/Src/stm32h7xx_ll_usb.c ****   *           HCFG_48_MHZ : Full Speed 48 MHz Clock
1426:Drivers/STM32H7xx_HAL_Driver/Src/stm32h7xx_ll_usb.c ****   *           HCFG_6_MHZ : Low Speed 6 MHz Clock
1427:Drivers/STM32H7xx_HAL_Driver/Src/stm32h7xx_ll_usb.c ****   * @retval HAL status
1428:Drivers/STM32H7xx_HAL_Driver/Src/stm32h7xx_ll_usb.c ****   */
1429:Drivers/STM32H7xx_HAL_Driver/Src/stm32h7xx_ll_usb.c **** HAL_StatusTypeDef USB_InitFSLSPClkSel(USB_OTG_GlobalTypeDef *USBx, uint8_t freq)
1430:Drivers/STM32H7xx_HAL_Driver/Src/stm32h7xx_ll_usb.c **** {
 2621              		.loc 1 1430 0
 2622              		.cfi_startproc
 2623              		@ args = 0, pretend = 0, frame = 0
 2624              		@ frame_needed = 0, uses_anonymous_args = 0
 2625              		@ link register save eliminated.
 2626              	.LVL269:
 2627 0000 10B4     		push	{r4}
 2628              	.LCFI35:
 2629              		.cfi_def_cfa_offset 4
 2630              		.cfi_offset 4, -4
 2631              	.LVL270:
1431:Drivers/STM32H7xx_HAL_Driver/Src/stm32h7xx_ll_usb.c ****   uint32_t USBx_BASE = (uint32_t)USBx;
1432:Drivers/STM32H7xx_HAL_Driver/Src/stm32h7xx_ll_usb.c **** 
ARM GAS  C:\Users\xiaofei\AppData\Local\Temp\ccBH0Ic6.s 			page 78


1433:Drivers/STM32H7xx_HAL_Driver/Src/stm32h7xx_ll_usb.c ****   USBx_HOST->HCFG &= ~(USB_OTG_HCFG_FSLSPCS);
 2632              		.loc 1 1433 0
 2633 0002 00F58064 		add	r4, r0, #1024
 2634 0006 D0F80034 		ldr	r3, [r0, #1024]
 2635 000a 23F00303 		bic	r3, r3, #3
 2636 000e C0F80034 		str	r3, [r0, #1024]
1434:Drivers/STM32H7xx_HAL_Driver/Src/stm32h7xx_ll_usb.c ****   USBx_HOST->HCFG |= (uint32_t)freq & USB_OTG_HCFG_FSLSPCS;
 2637              		.loc 1 1434 0
 2638 0012 D0F80024 		ldr	r2, [r0, #1024]
 2639 0016 01F00303 		and	r3, r1, #3
 2640 001a 1343     		orrs	r3, r3, r2
 2641 001c C0F80034 		str	r3, [r0, #1024]
1435:Drivers/STM32H7xx_HAL_Driver/Src/stm32h7xx_ll_usb.c **** 
1436:Drivers/STM32H7xx_HAL_Driver/Src/stm32h7xx_ll_usb.c ****   if (freq == HCFG_48_MHZ)
 2642              		.loc 1 1436 0
 2643 0020 0129     		cmp	r1, #1
 2644 0022 03D1     		bne	.L193
1437:Drivers/STM32H7xx_HAL_Driver/Src/stm32h7xx_ll_usb.c ****   {
1438:Drivers/STM32H7xx_HAL_Driver/Src/stm32h7xx_ll_usb.c ****     USBx_HOST->HFIR = 48000U;
 2645              		.loc 1 1438 0
 2646 0024 4BF68033 		movw	r3, #48000
 2647 0028 6360     		str	r3, [r4, #4]
 2648 002a 04E0     		b	.L194
 2649              	.L193:
1439:Drivers/STM32H7xx_HAL_Driver/Src/stm32h7xx_ll_usb.c ****   }
1440:Drivers/STM32H7xx_HAL_Driver/Src/stm32h7xx_ll_usb.c ****   else if (freq == HCFG_6_MHZ)
 2650              		.loc 1 1440 0
 2651 002c 0229     		cmp	r1, #2
 2652 002e 02D1     		bne	.L194
1441:Drivers/STM32H7xx_HAL_Driver/Src/stm32h7xx_ll_usb.c ****   {
1442:Drivers/STM32H7xx_HAL_Driver/Src/stm32h7xx_ll_usb.c ****     USBx_HOST->HFIR = 6000U;
 2653              		.loc 1 1442 0
 2654 0030 41F27073 		movw	r3, #6000
 2655 0034 6360     		str	r3, [r4, #4]
 2656              	.L194:
1443:Drivers/STM32H7xx_HAL_Driver/Src/stm32h7xx_ll_usb.c ****   }
1444:Drivers/STM32H7xx_HAL_Driver/Src/stm32h7xx_ll_usb.c ****   else
1445:Drivers/STM32H7xx_HAL_Driver/Src/stm32h7xx_ll_usb.c ****   {
1446:Drivers/STM32H7xx_HAL_Driver/Src/stm32h7xx_ll_usb.c ****     /* ... */
1447:Drivers/STM32H7xx_HAL_Driver/Src/stm32h7xx_ll_usb.c ****   }
1448:Drivers/STM32H7xx_HAL_Driver/Src/stm32h7xx_ll_usb.c **** 
1449:Drivers/STM32H7xx_HAL_Driver/Src/stm32h7xx_ll_usb.c ****   return HAL_OK;
1450:Drivers/STM32H7xx_HAL_Driver/Src/stm32h7xx_ll_usb.c **** }
 2657              		.loc 1 1450 0
 2658 0036 0020     		movs	r0, #0
 2659              	.LVL271:
 2660 0038 5DF8044B 		ldr	r4, [sp], #4
 2661              	.LCFI36:
 2662              		.cfi_restore 4
 2663              		.cfi_def_cfa_offset 0
 2664              	.LVL272:
 2665 003c 7047     		bx	lr
 2666              		.cfi_endproc
 2667              	.LFE176:
 2669 003e 00BF     		.section	.text.USB_ResetPort,"ax",%progbits
 2670              		.align	2
 2671              		.global	USB_ResetPort
ARM GAS  C:\Users\xiaofei\AppData\Local\Temp\ccBH0Ic6.s 			page 79


 2672              		.thumb
 2673              		.thumb_func
 2675              	USB_ResetPort:
 2676              	.LFB177:
1451:Drivers/STM32H7xx_HAL_Driver/Src/stm32h7xx_ll_usb.c **** 
1452:Drivers/STM32H7xx_HAL_Driver/Src/stm32h7xx_ll_usb.c **** /**
1453:Drivers/STM32H7xx_HAL_Driver/Src/stm32h7xx_ll_usb.c **** * @brief  USB_OTG_ResetPort : Reset Host Port
1454:Drivers/STM32H7xx_HAL_Driver/Src/stm32h7xx_ll_usb.c ****   * @param  USBx  Selected device
1455:Drivers/STM32H7xx_HAL_Driver/Src/stm32h7xx_ll_usb.c ****   * @retval HAL status
1456:Drivers/STM32H7xx_HAL_Driver/Src/stm32h7xx_ll_usb.c ****   * @note (1)The application must wait at least 10 ms
1457:Drivers/STM32H7xx_HAL_Driver/Src/stm32h7xx_ll_usb.c ****   *   before clearing the reset bit.
1458:Drivers/STM32H7xx_HAL_Driver/Src/stm32h7xx_ll_usb.c ****   */
1459:Drivers/STM32H7xx_HAL_Driver/Src/stm32h7xx_ll_usb.c **** HAL_StatusTypeDef USB_ResetPort(USB_OTG_GlobalTypeDef *USBx)
1460:Drivers/STM32H7xx_HAL_Driver/Src/stm32h7xx_ll_usb.c **** {
 2677              		.loc 1 1460 0
 2678              		.cfi_startproc
 2679              		@ args = 0, pretend = 0, frame = 8
 2680              		@ frame_needed = 0, uses_anonymous_args = 0
 2681              	.LVL273:
 2682 0000 30B5     		push	{r4, r5, lr}
 2683              	.LCFI37:
 2684              		.cfi_def_cfa_offset 12
 2685              		.cfi_offset 4, -12
 2686              		.cfi_offset 5, -8
 2687              		.cfi_offset 14, -4
 2688 0002 83B0     		sub	sp, sp, #12
 2689              	.LCFI38:
 2690              		.cfi_def_cfa_offset 24
 2691 0004 0446     		mov	r4, r0
 2692              	.LVL274:
1461:Drivers/STM32H7xx_HAL_Driver/Src/stm32h7xx_ll_usb.c ****   uint32_t USBx_BASE = (uint32_t)USBx;
1462:Drivers/STM32H7xx_HAL_Driver/Src/stm32h7xx_ll_usb.c **** 
1463:Drivers/STM32H7xx_HAL_Driver/Src/stm32h7xx_ll_usb.c ****   __IO uint32_t hprt0 = 0U;
 2693              		.loc 1 1463 0
 2694 0006 0025     		movs	r5, #0
 2695 0008 0195     		str	r5, [sp, #4]
1464:Drivers/STM32H7xx_HAL_Driver/Src/stm32h7xx_ll_usb.c **** 
1465:Drivers/STM32H7xx_HAL_Driver/Src/stm32h7xx_ll_usb.c ****   hprt0 = USBx_HPRT0;
 2696              		.loc 1 1465 0
 2697 000a D0F84034 		ldr	r3, [r0, #1088]
 2698 000e 0193     		str	r3, [sp, #4]
1466:Drivers/STM32H7xx_HAL_Driver/Src/stm32h7xx_ll_usb.c **** 
1467:Drivers/STM32H7xx_HAL_Driver/Src/stm32h7xx_ll_usb.c ****   hprt0 &= ~(USB_OTG_HPRT_PENA | USB_OTG_HPRT_PCDET |
 2699              		.loc 1 1467 0
 2700 0010 019B     		ldr	r3, [sp, #4]
 2701 0012 23F02E03 		bic	r3, r3, #46
 2702 0016 0193     		str	r3, [sp, #4]
1468:Drivers/STM32H7xx_HAL_Driver/Src/stm32h7xx_ll_usb.c ****              USB_OTG_HPRT_PENCHNG | USB_OTG_HPRT_POCCHNG);
1469:Drivers/STM32H7xx_HAL_Driver/Src/stm32h7xx_ll_usb.c **** 
1470:Drivers/STM32H7xx_HAL_Driver/Src/stm32h7xx_ll_usb.c ****   USBx_HPRT0 = (USB_OTG_HPRT_PRST | hprt0);
 2703              		.loc 1 1470 0
 2704 0018 019B     		ldr	r3, [sp, #4]
 2705 001a 43F48073 		orr	r3, r3, #256
 2706 001e C0F84034 		str	r3, [r0, #1088]
1471:Drivers/STM32H7xx_HAL_Driver/Src/stm32h7xx_ll_usb.c ****   HAL_Delay(100U);                                 /* See Note #1 */
 2707              		.loc 1 1471 0
 2708 0022 6420     		movs	r0, #100
ARM GAS  C:\Users\xiaofei\AppData\Local\Temp\ccBH0Ic6.s 			page 80


 2709              	.LVL275:
 2710 0024 FFF7FEFF 		bl	HAL_Delay
 2711              	.LVL276:
1472:Drivers/STM32H7xx_HAL_Driver/Src/stm32h7xx_ll_usb.c ****   USBx_HPRT0 = ((~USB_OTG_HPRT_PRST) & hprt0);
 2712              		.loc 1 1472 0
 2713 0028 019B     		ldr	r3, [sp, #4]
 2714 002a 23F48073 		bic	r3, r3, #256
 2715 002e C4F84034 		str	r3, [r4, #1088]
1473:Drivers/STM32H7xx_HAL_Driver/Src/stm32h7xx_ll_usb.c ****   HAL_Delay(10U);
 2716              		.loc 1 1473 0
 2717 0032 0A20     		movs	r0, #10
 2718 0034 FFF7FEFF 		bl	HAL_Delay
 2719              	.LVL277:
1474:Drivers/STM32H7xx_HAL_Driver/Src/stm32h7xx_ll_usb.c **** 
1475:Drivers/STM32H7xx_HAL_Driver/Src/stm32h7xx_ll_usb.c ****   return HAL_OK;
1476:Drivers/STM32H7xx_HAL_Driver/Src/stm32h7xx_ll_usb.c **** }
 2720              		.loc 1 1476 0
 2721 0038 2846     		mov	r0, r5
 2722 003a 03B0     		add	sp, sp, #12
 2723              	.LCFI39:
 2724              		.cfi_def_cfa_offset 12
 2725              		@ sp needed
 2726 003c 30BD     		pop	{r4, r5, pc}
 2727              		.cfi_endproc
 2728              	.LFE177:
 2730 003e 00BF     		.section	.text.USB_DriveVbus,"ax",%progbits
 2731              		.align	2
 2732              		.global	USB_DriveVbus
 2733              		.thumb
 2734              		.thumb_func
 2736              	USB_DriveVbus:
 2737              	.LFB178:
1477:Drivers/STM32H7xx_HAL_Driver/Src/stm32h7xx_ll_usb.c **** 
1478:Drivers/STM32H7xx_HAL_Driver/Src/stm32h7xx_ll_usb.c **** /**
1479:Drivers/STM32H7xx_HAL_Driver/Src/stm32h7xx_ll_usb.c ****   * @brief  USB_DriveVbus : activate or de-activate vbus
1480:Drivers/STM32H7xx_HAL_Driver/Src/stm32h7xx_ll_usb.c ****   * @param  state  VBUS state
1481:Drivers/STM32H7xx_HAL_Driver/Src/stm32h7xx_ll_usb.c ****   *          This parameter can be one of these values:
1482:Drivers/STM32H7xx_HAL_Driver/Src/stm32h7xx_ll_usb.c ****   *           0 : VBUS Active
1483:Drivers/STM32H7xx_HAL_Driver/Src/stm32h7xx_ll_usb.c ****   *           1 : VBUS Inactive
1484:Drivers/STM32H7xx_HAL_Driver/Src/stm32h7xx_ll_usb.c ****   * @retval HAL status
1485:Drivers/STM32H7xx_HAL_Driver/Src/stm32h7xx_ll_usb.c **** */
1486:Drivers/STM32H7xx_HAL_Driver/Src/stm32h7xx_ll_usb.c **** HAL_StatusTypeDef USB_DriveVbus(USB_OTG_GlobalTypeDef *USBx, uint8_t state)
1487:Drivers/STM32H7xx_HAL_Driver/Src/stm32h7xx_ll_usb.c **** {
 2738              		.loc 1 1487 0
 2739              		.cfi_startproc
 2740              		@ args = 0, pretend = 0, frame = 8
 2741              		@ frame_needed = 0, uses_anonymous_args = 0
 2742              		@ link register save eliminated.
 2743              	.LVL278:
 2744 0000 82B0     		sub	sp, sp, #8
 2745              	.LCFI40:
 2746              		.cfi_def_cfa_offset 8
 2747              	.LVL279:
1488:Drivers/STM32H7xx_HAL_Driver/Src/stm32h7xx_ll_usb.c ****   uint32_t USBx_BASE = (uint32_t)USBx;
1489:Drivers/STM32H7xx_HAL_Driver/Src/stm32h7xx_ll_usb.c ****   __IO uint32_t hprt0 = 0U;
 2748              		.loc 1 1489 0
 2749 0002 0023     		movs	r3, #0
ARM GAS  C:\Users\xiaofei\AppData\Local\Temp\ccBH0Ic6.s 			page 81


 2750 0004 0193     		str	r3, [sp, #4]
1490:Drivers/STM32H7xx_HAL_Driver/Src/stm32h7xx_ll_usb.c **** 
1491:Drivers/STM32H7xx_HAL_Driver/Src/stm32h7xx_ll_usb.c ****   hprt0 = USBx_HPRT0;
 2751              		.loc 1 1491 0
 2752 0006 D0F84034 		ldr	r3, [r0, #1088]
 2753 000a 0193     		str	r3, [sp, #4]
1492:Drivers/STM32H7xx_HAL_Driver/Src/stm32h7xx_ll_usb.c **** 
1493:Drivers/STM32H7xx_HAL_Driver/Src/stm32h7xx_ll_usb.c ****   hprt0 &= ~(USB_OTG_HPRT_PENA | USB_OTG_HPRT_PCDET |
 2754              		.loc 1 1493 0
 2755 000c 019B     		ldr	r3, [sp, #4]
 2756 000e 23F02E03 		bic	r3, r3, #46
 2757 0012 0193     		str	r3, [sp, #4]
1494:Drivers/STM32H7xx_HAL_Driver/Src/stm32h7xx_ll_usb.c ****              USB_OTG_HPRT_PENCHNG | USB_OTG_HPRT_POCCHNG);
1495:Drivers/STM32H7xx_HAL_Driver/Src/stm32h7xx_ll_usb.c **** 
1496:Drivers/STM32H7xx_HAL_Driver/Src/stm32h7xx_ll_usb.c ****   if (((hprt0 & USB_OTG_HPRT_PPWR) == 0U) && (state == 1U))
 2758              		.loc 1 1496 0
 2759 0014 019B     		ldr	r3, [sp, #4]
 2760 0016 13F4805F 		tst	r3, #4096
 2761 001a 06D1     		bne	.L199
 2762              		.loc 1 1496 0 is_stmt 0 discriminator 1
 2763 001c 0129     		cmp	r1, #1
 2764 001e 04D1     		bne	.L199
1497:Drivers/STM32H7xx_HAL_Driver/Src/stm32h7xx_ll_usb.c ****   {
1498:Drivers/STM32H7xx_HAL_Driver/Src/stm32h7xx_ll_usb.c ****     USBx_HPRT0 = (USB_OTG_HPRT_PPWR | hprt0);
 2765              		.loc 1 1498 0 is_stmt 1
 2766 0020 019B     		ldr	r3, [sp, #4]
 2767 0022 43F48053 		orr	r3, r3, #4096
 2768 0026 C0F84034 		str	r3, [r0, #1088]
 2769              	.L199:
1499:Drivers/STM32H7xx_HAL_Driver/Src/stm32h7xx_ll_usb.c ****   }
1500:Drivers/STM32H7xx_HAL_Driver/Src/stm32h7xx_ll_usb.c ****   if (((hprt0 & USB_OTG_HPRT_PPWR) == USB_OTG_HPRT_PPWR) && (state == 0U))
 2770              		.loc 1 1500 0
 2771 002a 019B     		ldr	r3, [sp, #4]
 2772 002c 13F4805F 		tst	r3, #4096
 2773 0030 05D0     		beq	.L200
 2774              		.loc 1 1500 0 is_stmt 0 discriminator 1
 2775 0032 21B9     		cbnz	r1, .L200
1501:Drivers/STM32H7xx_HAL_Driver/Src/stm32h7xx_ll_usb.c ****   {
1502:Drivers/STM32H7xx_HAL_Driver/Src/stm32h7xx_ll_usb.c ****     USBx_HPRT0 = ((~USB_OTG_HPRT_PPWR) & hprt0);
 2776              		.loc 1 1502 0 is_stmt 1
 2777 0034 019B     		ldr	r3, [sp, #4]
 2778 0036 23F48053 		bic	r3, r3, #4096
 2779 003a C0F84034 		str	r3, [r0, #1088]
 2780              	.L200:
1503:Drivers/STM32H7xx_HAL_Driver/Src/stm32h7xx_ll_usb.c ****   }
1504:Drivers/STM32H7xx_HAL_Driver/Src/stm32h7xx_ll_usb.c ****   return HAL_OK;
1505:Drivers/STM32H7xx_HAL_Driver/Src/stm32h7xx_ll_usb.c **** }
 2781              		.loc 1 1505 0
 2782 003e 0020     		movs	r0, #0
 2783              	.LVL280:
 2784 0040 02B0     		add	sp, sp, #8
 2785              	.LCFI41:
 2786              		.cfi_def_cfa_offset 0
 2787              		@ sp needed
 2788 0042 7047     		bx	lr
 2789              		.cfi_endproc
 2790              	.LFE178:
ARM GAS  C:\Users\xiaofei\AppData\Local\Temp\ccBH0Ic6.s 			page 82


 2792              		.section	.text.USB_HostInit,"ax",%progbits
 2793              		.align	2
 2794              		.global	USB_HostInit
 2795              		.thumb
 2796              		.thumb_func
 2798              	USB_HostInit:
 2799              	.LFB175:
1335:Drivers/STM32H7xx_HAL_Driver/Src/stm32h7xx_ll_usb.c ****   uint32_t USBx_BASE = (uint32_t)USBx;
 2800              		.loc 1 1335 0
 2801              		.cfi_startproc
 2802              		@ args = 56, pretend = 16, frame = 0
 2803              		@ frame_needed = 0, uses_anonymous_args = 0
 2804              	.LVL281:
 2805 0000 84B0     		sub	sp, sp, #16
 2806              	.LCFI42:
 2807              		.cfi_def_cfa_offset 16
 2808 0002 38B5     		push	{r3, r4, r5, lr}
 2809              	.LCFI43:
 2810              		.cfi_def_cfa_offset 32
 2811              		.cfi_offset 3, -32
 2812              		.cfi_offset 4, -28
 2813              		.cfi_offset 5, -24
 2814              		.cfi_offset 14, -20
 2815 0004 0446     		mov	r4, r0
 2816 0006 05A8     		add	r0, sp, #20
 2817              	.LVL282:
 2818 0008 80E80E00 		stmia	r0, {r1, r2, r3}
1336:Drivers/STM32H7xx_HAL_Driver/Src/stm32h7xx_ll_usb.c ****   uint32_t i;
 2819              		.loc 1 1336 0
 2820 000c 2546     		mov	r5, r4
 2821              	.LVL283:
1340:Drivers/STM32H7xx_HAL_Driver/Src/stm32h7xx_ll_usb.c **** 
 2822              		.loc 1 1340 0
 2823 000e 0023     		movs	r3, #0
 2824 0010 C4F8003E 		str	r3, [r4, #3584]
1343:Drivers/STM32H7xx_HAL_Driver/Src/stm32h7xx_ll_usb.c **** 
 2825              		.loc 1 1343 0
 2826 0014 A36B     		ldr	r3, [r4, #56]
 2827 0016 23F40013 		bic	r3, r3, #2097152
 2828 001a A363     		str	r3, [r4, #56]
1346:Drivers/STM32H7xx_HAL_Driver/Src/stm32h7xx_ll_usb.c **** 
 2829              		.loc 1 1346 0
 2830 001c A36B     		ldr	r3, [r4, #56]
 2831 001e 23F40033 		bic	r3, r3, #131072
 2832 0022 A363     		str	r3, [r4, #56]
1349:Drivers/STM32H7xx_HAL_Driver/Src/stm32h7xx_ll_usb.c ****   {
 2833              		.loc 1 1349 0
 2834 0024 E36B     		ldr	r3, [r4, #60]
 2835 0026 13F4807F 		tst	r3, #256
 2836 002a 10D0     		beq	.L203
1351:Drivers/STM32H7xx_HAL_Driver/Src/stm32h7xx_ll_usb.c ****     {
 2837              		.loc 1 1351 0
 2838 002c 079B     		ldr	r3, [sp, #28]
 2839 002e 012B     		cmp	r3, #1
 2840 0030 06D1     		bne	.L204
1354:Drivers/STM32H7xx_HAL_Driver/Src/stm32h7xx_ll_usb.c ****     }
 2841              		.loc 1 1354 0
ARM GAS  C:\Users\xiaofei\AppData\Local\Temp\ccBH0Ic6.s 			page 83


 2842 0032 D4F80034 		ldr	r3, [r4, #1024]
 2843 0036 43F00403 		orr	r3, r3, #4
 2844 003a C4F80034 		str	r3, [r4, #1024]
 2845 003e 0CE0     		b	.L205
 2846              	.L204:
1359:Drivers/STM32H7xx_HAL_Driver/Src/stm32h7xx_ll_usb.c ****     }
 2847              		.loc 1 1359 0
 2848 0040 D4F80034 		ldr	r3, [r4, #1024]
 2849 0044 23F00403 		bic	r3, r3, #4
 2850 0048 C4F80034 		str	r3, [r4, #1024]
 2851 004c 05E0     		b	.L205
 2852              	.L203:
1365:Drivers/STM32H7xx_HAL_Driver/Src/stm32h7xx_ll_usb.c ****   }
 2853              		.loc 1 1365 0
 2854 004e D4F80034 		ldr	r3, [r4, #1024]
 2855 0052 23F00403 		bic	r3, r3, #4
 2856 0056 C4F80034 		str	r3, [r4, #1024]
 2857              	.L205:
1369:Drivers/STM32H7xx_HAL_Driver/Src/stm32h7xx_ll_usb.c ****   (void)USB_FlushRxFifo(USBx);
 2858              		.loc 1 1369 0
 2859 005a 1021     		movs	r1, #16
 2860 005c 2046     		mov	r0, r4
 2861 005e FFF7FEFF 		bl	USB_FlushTxFifo
 2862              	.LVL284:
1370:Drivers/STM32H7xx_HAL_Driver/Src/stm32h7xx_ll_usb.c **** 
 2863              		.loc 1 1370 0
 2864 0062 2046     		mov	r0, r4
 2865 0064 FFF7FEFF 		bl	USB_FlushRxFifo
 2866              	.LVL285:
1373:Drivers/STM32H7xx_HAL_Driver/Src/stm32h7xx_ll_usb.c ****   {
 2867              		.loc 1 1373 0
 2868 0068 0022     		movs	r2, #0
 2869 006a 09E0     		b	.L206
 2870              	.LVL286:
 2871              	.L207:
1375:Drivers/STM32H7xx_HAL_Driver/Src/stm32h7xx_ll_usb.c ****     USBx_HC(i)->HCINTMSK = 0U;
 2872              		.loc 1 1375 0 discriminator 3
 2873 006c 05EB4213 		add	r3, r5, r2, lsl #5
 2874 0070 4FF0FF31 		mov	r1, #-1
 2875 0074 C3F80815 		str	r1, [r3, #1288]
1376:Drivers/STM32H7xx_HAL_Driver/Src/stm32h7xx_ll_usb.c ****   }
 2876              		.loc 1 1376 0 discriminator 3
 2877 0078 0021     		movs	r1, #0
 2878 007a C3F80C15 		str	r1, [r3, #1292]
1373:Drivers/STM32H7xx_HAL_Driver/Src/stm32h7xx_ll_usb.c ****   {
 2879              		.loc 1 1373 0 discriminator 3
 2880 007e 0132     		adds	r2, r2, #1
 2881              	.LVL287:
 2882              	.L206:
1373:Drivers/STM32H7xx_HAL_Driver/Src/stm32h7xx_ll_usb.c ****   {
 2883              		.loc 1 1373 0 is_stmt 0 discriminator 1
 2884 0080 069B     		ldr	r3, [sp, #24]
 2885 0082 9A42     		cmp	r2, r3
 2886 0084 F2D3     		bcc	.L207
1380:Drivers/STM32H7xx_HAL_Driver/Src/stm32h7xx_ll_usb.c **** 
 2887              		.loc 1 1380 0 is_stmt 1
 2888 0086 0121     		movs	r1, #1
ARM GAS  C:\Users\xiaofei\AppData\Local\Temp\ccBH0Ic6.s 			page 84


 2889 0088 2046     		mov	r0, r4
 2890 008a FFF7FEFF 		bl	USB_DriveVbus
 2891              	.LVL288:
1382:Drivers/STM32H7xx_HAL_Driver/Src/stm32h7xx_ll_usb.c **** 
 2892              		.loc 1 1382 0
 2893 008e C820     		movs	r0, #200
 2894 0090 FFF7FEFF 		bl	HAL_Delay
 2895              	.LVL289:
1385:Drivers/STM32H7xx_HAL_Driver/Src/stm32h7xx_ll_usb.c **** 
 2896              		.loc 1 1385 0
 2897 0094 0023     		movs	r3, #0
 2898 0096 A361     		str	r3, [r4, #24]
1388:Drivers/STM32H7xx_HAL_Driver/Src/stm32h7xx_ll_usb.c **** 
 2899              		.loc 1 1388 0
 2900 0098 4FF0FF33 		mov	r3, #-1
 2901 009c 6361     		str	r3, [r4, #20]
1390:Drivers/STM32H7xx_HAL_Driver/Src/stm32h7xx_ll_usb.c ****   {
 2902              		.loc 1 1390 0
 2903 009e E36B     		ldr	r3, [r4, #60]
 2904 00a0 13F4807F 		tst	r3, #256
 2905 00a4 09D0     		beq	.L208
1393:Drivers/STM32H7xx_HAL_Driver/Src/stm32h7xx_ll_usb.c ****     USBx->DIEPTXF0_HNPTXFSIZ = (uint32_t)(((0x100U << 16) & USB_OTG_NPTXFD) | 0x200U);
 2906              		.loc 1 1393 0
 2907 00a6 4FF40073 		mov	r3, #512
 2908 00aa 6362     		str	r3, [r4, #36]
1394:Drivers/STM32H7xx_HAL_Driver/Src/stm32h7xx_ll_usb.c ****     USBx->HPTXFSIZ = (uint32_t)(((0xE0U << 16) & USB_OTG_HPTXFSIZ_PTXFD) | 0x300U);
 2909              		.loc 1 1394 0
 2910 00ac 03F18073 		add	r3, r3, #16777216
 2911 00b0 A362     		str	r3, [r4, #40]
1395:Drivers/STM32H7xx_HAL_Driver/Src/stm32h7xx_ll_usb.c ****   }
 2912              		.loc 1 1395 0
 2913 00b2 0D4B     		ldr	r3, .L212
 2914 00b4 C4F80031 		str	r3, [r4, #256]
 2915 00b8 07E0     		b	.L209
 2916              	.L208:
1400:Drivers/STM32H7xx_HAL_Driver/Src/stm32h7xx_ll_usb.c ****     USBx->DIEPTXF0_HNPTXFSIZ = (uint32_t)(((0x60U << 16) & USB_OTG_NPTXFD) | 0x80U);
 2917              		.loc 1 1400 0
 2918 00ba 8023     		movs	r3, #128
 2919 00bc 6362     		str	r3, [r4, #36]
1401:Drivers/STM32H7xx_HAL_Driver/Src/stm32h7xx_ll_usb.c ****     USBx->HPTXFSIZ = (uint32_t)(((0x40U << 16)& USB_OTG_HPTXFSIZ_PTXFD) | 0xE0U);
 2920              		.loc 1 1401 0
 2921 00be 03F5C003 		add	r3, r3, #6291456
 2922 00c2 A362     		str	r3, [r4, #40]
1402:Drivers/STM32H7xx_HAL_Driver/Src/stm32h7xx_ll_usb.c ****   }
 2923              		.loc 1 1402 0
 2924 00c4 094B     		ldr	r3, .L212+4
 2925 00c6 C4F80031 		str	r3, [r4, #256]
 2926              	.L209:
1406:Drivers/STM32H7xx_HAL_Driver/Src/stm32h7xx_ll_usb.c ****   {
 2927              		.loc 1 1406 0
 2928 00ca 089B     		ldr	r3, [sp, #32]
 2929 00cc 1BB9     		cbnz	r3, .L210
1408:Drivers/STM32H7xx_HAL_Driver/Src/stm32h7xx_ll_usb.c ****   }
 2930              		.loc 1 1408 0
 2931 00ce A369     		ldr	r3, [r4, #24]
 2932 00d0 43F01003 		orr	r3, r3, #16
 2933 00d4 A361     		str	r3, [r4, #24]
ARM GAS  C:\Users\xiaofei\AppData\Local\Temp\ccBH0Ic6.s 			page 85


 2934              	.L210:
1412:Drivers/STM32H7xx_HAL_Driver/Src/stm32h7xx_ll_usb.c ****                     USB_OTG_GINTMSK_SOFM             | USB_OTG_GINTSTS_DISCINT | \
 2935              		.loc 1 1412 0
 2936 00d6 A269     		ldr	r2, [r4, #24]
 2937 00d8 054B     		ldr	r3, .L212+8
 2938 00da 1343     		orrs	r3, r3, r2
 2939 00dc A361     		str	r3, [r4, #24]
1417:Drivers/STM32H7xx_HAL_Driver/Src/stm32h7xx_ll_usb.c **** 
 2940              		.loc 1 1417 0
 2941 00de 0020     		movs	r0, #0
 2942 00e0 BDE83840 		pop	{r3, r4, r5, lr}
 2943              	.LCFI44:
 2944              		.cfi_restore 14
 2945              		.cfi_restore 5
 2946              		.cfi_restore 4
 2947              		.cfi_restore 3
 2948              		.cfi_def_cfa_offset 16
 2949              	.LVL290:
 2950 00e4 04B0     		add	sp, sp, #16
 2951              	.LCFI45:
 2952              		.cfi_def_cfa_offset 0
 2953 00e6 7047     		bx	lr
 2954              	.L213:
 2955              		.align	2
 2956              	.L212:
 2957 00e8 0003E000 		.word	14680832
 2958 00ec E0004000 		.word	4194528
 2959 00f0 080020A3 		.word	-1558183928
 2960              		.cfi_endproc
 2961              	.LFE175:
 2963              		.section	.text.USB_GetHostSpeed,"ax",%progbits
 2964              		.align	2
 2965              		.global	USB_GetHostSpeed
 2966              		.thumb
 2967              		.thumb_func
 2969              	USB_GetHostSpeed:
 2970              	.LFB179:
1506:Drivers/STM32H7xx_HAL_Driver/Src/stm32h7xx_ll_usb.c **** 
1507:Drivers/STM32H7xx_HAL_Driver/Src/stm32h7xx_ll_usb.c **** /**
1508:Drivers/STM32H7xx_HAL_Driver/Src/stm32h7xx_ll_usb.c ****   * @brief  Return Host Core speed
1509:Drivers/STM32H7xx_HAL_Driver/Src/stm32h7xx_ll_usb.c ****   * @param  USBx  Selected device
1510:Drivers/STM32H7xx_HAL_Driver/Src/stm32h7xx_ll_usb.c ****   * @retval speed : Host speed
1511:Drivers/STM32H7xx_HAL_Driver/Src/stm32h7xx_ll_usb.c ****   *          This parameter can be one of these values:
1512:Drivers/STM32H7xx_HAL_Driver/Src/stm32h7xx_ll_usb.c ****   *            @arg HCD_SPEED_HIGH: High speed mode
1513:Drivers/STM32H7xx_HAL_Driver/Src/stm32h7xx_ll_usb.c ****   *            @arg HCD_SPEED_FULL: Full speed mode
1514:Drivers/STM32H7xx_HAL_Driver/Src/stm32h7xx_ll_usb.c ****   *            @arg HCD_SPEED_LOW: Low speed mode
1515:Drivers/STM32H7xx_HAL_Driver/Src/stm32h7xx_ll_usb.c ****   */
1516:Drivers/STM32H7xx_HAL_Driver/Src/stm32h7xx_ll_usb.c **** uint32_t USB_GetHostSpeed(USB_OTG_GlobalTypeDef *USBx)
1517:Drivers/STM32H7xx_HAL_Driver/Src/stm32h7xx_ll_usb.c **** {
 2971              		.loc 1 1517 0
 2972              		.cfi_startproc
 2973              		@ args = 0, pretend = 0, frame = 8
 2974              		@ frame_needed = 0, uses_anonymous_args = 0
 2975              		@ link register save eliminated.
 2976              	.LVL291:
 2977 0000 82B0     		sub	sp, sp, #8
 2978              	.LCFI46:
ARM GAS  C:\Users\xiaofei\AppData\Local\Temp\ccBH0Ic6.s 			page 86


 2979              		.cfi_def_cfa_offset 8
 2980              	.LVL292:
1518:Drivers/STM32H7xx_HAL_Driver/Src/stm32h7xx_ll_usb.c ****   uint32_t USBx_BASE = (uint32_t)USBx;
1519:Drivers/STM32H7xx_HAL_Driver/Src/stm32h7xx_ll_usb.c ****   __IO uint32_t hprt0 = 0U;
 2981              		.loc 1 1519 0
 2982 0002 0023     		movs	r3, #0
 2983 0004 0193     		str	r3, [sp, #4]
1520:Drivers/STM32H7xx_HAL_Driver/Src/stm32h7xx_ll_usb.c **** 
1521:Drivers/STM32H7xx_HAL_Driver/Src/stm32h7xx_ll_usb.c ****   hprt0 = USBx_HPRT0;
 2984              		.loc 1 1521 0
 2985 0006 D0F84034 		ldr	r3, [r0, #1088]
 2986 000a 0193     		str	r3, [sp, #4]
1522:Drivers/STM32H7xx_HAL_Driver/Src/stm32h7xx_ll_usb.c ****   return ((hprt0 & USB_OTG_HPRT_PSPD) >> 17);
 2987              		.loc 1 1522 0
 2988 000c 0198     		ldr	r0, [sp, #4]
 2989              	.LVL293:
1523:Drivers/STM32H7xx_HAL_Driver/Src/stm32h7xx_ll_usb.c **** }
 2990              		.loc 1 1523 0
 2991 000e C0F34140 		ubfx	r0, r0, #17, #2
 2992 0012 02B0     		add	sp, sp, #8
 2993              	.LCFI47:
 2994              		.cfi_def_cfa_offset 0
 2995              		@ sp needed
 2996 0014 7047     		bx	lr
 2997              		.cfi_endproc
 2998              	.LFE179:
 3000 0016 00BF     		.section	.text.USB_GetCurrentFrame,"ax",%progbits
 3001              		.align	2
 3002              		.global	USB_GetCurrentFrame
 3003              		.thumb
 3004              		.thumb_func
 3006              	USB_GetCurrentFrame:
 3007              	.LFB180:
1524:Drivers/STM32H7xx_HAL_Driver/Src/stm32h7xx_ll_usb.c **** 
1525:Drivers/STM32H7xx_HAL_Driver/Src/stm32h7xx_ll_usb.c **** /**
1526:Drivers/STM32H7xx_HAL_Driver/Src/stm32h7xx_ll_usb.c ****   * @brief  Return Host Current Frame number
1527:Drivers/STM32H7xx_HAL_Driver/Src/stm32h7xx_ll_usb.c ****   * @param  USBx  Selected device
1528:Drivers/STM32H7xx_HAL_Driver/Src/stm32h7xx_ll_usb.c ****   * @retval current frame number
1529:Drivers/STM32H7xx_HAL_Driver/Src/stm32h7xx_ll_usb.c **** */
1530:Drivers/STM32H7xx_HAL_Driver/Src/stm32h7xx_ll_usb.c **** uint32_t USB_GetCurrentFrame(USB_OTG_GlobalTypeDef *USBx)
1531:Drivers/STM32H7xx_HAL_Driver/Src/stm32h7xx_ll_usb.c **** {
 3008              		.loc 1 1531 0
 3009              		.cfi_startproc
 3010              		@ args = 0, pretend = 0, frame = 0
 3011              		@ frame_needed = 0, uses_anonymous_args = 0
 3012              		@ link register save eliminated.
 3013              	.LVL294:
1532:Drivers/STM32H7xx_HAL_Driver/Src/stm32h7xx_ll_usb.c ****   uint32_t USBx_BASE = (uint32_t)USBx;
1533:Drivers/STM32H7xx_HAL_Driver/Src/stm32h7xx_ll_usb.c **** 
1534:Drivers/STM32H7xx_HAL_Driver/Src/stm32h7xx_ll_usb.c ****   return (USBx_HOST->HFNUM & USB_OTG_HFNUM_FRNUM);
 3014              		.loc 1 1534 0
 3015 0000 00F58060 		add	r0, r0, #1024
 3016              	.LVL295:
 3017 0004 8068     		ldr	r0, [r0, #8]
 3018              	.LVL296:
1535:Drivers/STM32H7xx_HAL_Driver/Src/stm32h7xx_ll_usb.c **** }
 3019              		.loc 1 1535 0
ARM GAS  C:\Users\xiaofei\AppData\Local\Temp\ccBH0Ic6.s 			page 87


 3020 0006 80B2     		uxth	r0, r0
 3021 0008 7047     		bx	lr
 3022              		.cfi_endproc
 3023              	.LFE180:
 3025 000a 00BF     		.section	.text.USB_HC_Init,"ax",%progbits
 3026              		.align	2
 3027              		.global	USB_HC_Init
 3028              		.thumb
 3029              		.thumb_func
 3031              	USB_HC_Init:
 3032              	.LFB181:
1536:Drivers/STM32H7xx_HAL_Driver/Src/stm32h7xx_ll_usb.c **** 
1537:Drivers/STM32H7xx_HAL_Driver/Src/stm32h7xx_ll_usb.c **** /**
1538:Drivers/STM32H7xx_HAL_Driver/Src/stm32h7xx_ll_usb.c ****   * @brief  Initialize a host channel
1539:Drivers/STM32H7xx_HAL_Driver/Src/stm32h7xx_ll_usb.c ****   * @param  USBx  Selected device
1540:Drivers/STM32H7xx_HAL_Driver/Src/stm32h7xx_ll_usb.c ****   * @param  ch_num  Channel number
1541:Drivers/STM32H7xx_HAL_Driver/Src/stm32h7xx_ll_usb.c ****   *         This parameter can be a value from 1 to 15
1542:Drivers/STM32H7xx_HAL_Driver/Src/stm32h7xx_ll_usb.c ****   * @param  epnum  Endpoint number
1543:Drivers/STM32H7xx_HAL_Driver/Src/stm32h7xx_ll_usb.c ****   *          This parameter can be a value from 1 to 15
1544:Drivers/STM32H7xx_HAL_Driver/Src/stm32h7xx_ll_usb.c ****   * @param  dev_address  Current device address
1545:Drivers/STM32H7xx_HAL_Driver/Src/stm32h7xx_ll_usb.c ****   *          This parameter can be a value from 0 to 255
1546:Drivers/STM32H7xx_HAL_Driver/Src/stm32h7xx_ll_usb.c ****   * @param  speed  Current device speed
1547:Drivers/STM32H7xx_HAL_Driver/Src/stm32h7xx_ll_usb.c ****   *          This parameter can be one of these values:
1548:Drivers/STM32H7xx_HAL_Driver/Src/stm32h7xx_ll_usb.c ****   *            @arg USB_OTG_SPEED_HIGH: High speed mode
1549:Drivers/STM32H7xx_HAL_Driver/Src/stm32h7xx_ll_usb.c ****   *            @arg USB_OTG_SPEED_FULL: Full speed mode
1550:Drivers/STM32H7xx_HAL_Driver/Src/stm32h7xx_ll_usb.c ****   *            @arg USB_OTG_SPEED_LOW: Low speed mode
1551:Drivers/STM32H7xx_HAL_Driver/Src/stm32h7xx_ll_usb.c ****   * @param  ep_type  Endpoint Type
1552:Drivers/STM32H7xx_HAL_Driver/Src/stm32h7xx_ll_usb.c ****   *          This parameter can be one of these values:
1553:Drivers/STM32H7xx_HAL_Driver/Src/stm32h7xx_ll_usb.c ****   *            @arg EP_TYPE_CTRL: Control type
1554:Drivers/STM32H7xx_HAL_Driver/Src/stm32h7xx_ll_usb.c ****   *            @arg EP_TYPE_ISOC: Isochronous type
1555:Drivers/STM32H7xx_HAL_Driver/Src/stm32h7xx_ll_usb.c ****   *            @arg EP_TYPE_BULK: Bulk type
1556:Drivers/STM32H7xx_HAL_Driver/Src/stm32h7xx_ll_usb.c ****   *            @arg EP_TYPE_INTR: Interrupt type
1557:Drivers/STM32H7xx_HAL_Driver/Src/stm32h7xx_ll_usb.c ****   * @param  mps  Max Packet Size
1558:Drivers/STM32H7xx_HAL_Driver/Src/stm32h7xx_ll_usb.c ****   *          This parameter can be a value from 0 to32K
1559:Drivers/STM32H7xx_HAL_Driver/Src/stm32h7xx_ll_usb.c ****   * @retval HAL state
1560:Drivers/STM32H7xx_HAL_Driver/Src/stm32h7xx_ll_usb.c ****   */
1561:Drivers/STM32H7xx_HAL_Driver/Src/stm32h7xx_ll_usb.c **** HAL_StatusTypeDef USB_HC_Init(USB_OTG_GlobalTypeDef *USBx,
1562:Drivers/STM32H7xx_HAL_Driver/Src/stm32h7xx_ll_usb.c ****                               uint8_t ch_num,
1563:Drivers/STM32H7xx_HAL_Driver/Src/stm32h7xx_ll_usb.c ****                               uint8_t epnum,
1564:Drivers/STM32H7xx_HAL_Driver/Src/stm32h7xx_ll_usb.c ****                               uint8_t dev_address,
1565:Drivers/STM32H7xx_HAL_Driver/Src/stm32h7xx_ll_usb.c ****                               uint8_t speed,
1566:Drivers/STM32H7xx_HAL_Driver/Src/stm32h7xx_ll_usb.c ****                               uint8_t ep_type,
1567:Drivers/STM32H7xx_HAL_Driver/Src/stm32h7xx_ll_usb.c ****                               uint16_t mps)
1568:Drivers/STM32H7xx_HAL_Driver/Src/stm32h7xx_ll_usb.c **** {
 3033              		.loc 1 1568 0
 3034              		.cfi_startproc
 3035              		@ args = 12, pretend = 0, frame = 0
 3036              		@ frame_needed = 0, uses_anonymous_args = 0
 3037              	.LVL297:
 3038 0000 F0B5     		push	{r4, r5, r6, r7, lr}
 3039              	.LCFI48:
 3040              		.cfi_def_cfa_offset 20
 3041              		.cfi_offset 4, -20
 3042              		.cfi_offset 5, -16
 3043              		.cfi_offset 6, -12
 3044              		.cfi_offset 7, -8
 3045              		.cfi_offset 14, -4
ARM GAS  C:\Users\xiaofei\AppData\Local\Temp\ccBH0Ic6.s 			page 88


 3046 0002 0746     		mov	r7, r0
 3047 0004 9DF81840 		ldrb	r4, [sp, #24]	@ zero_extendqisi2
 3048              	.LVL298:
1569:Drivers/STM32H7xx_HAL_Driver/Src/stm32h7xx_ll_usb.c ****   HAL_StatusTypeDef ret = HAL_OK;
1570:Drivers/STM32H7xx_HAL_Driver/Src/stm32h7xx_ll_usb.c ****   uint32_t USBx_BASE = (uint32_t)USBx;
1571:Drivers/STM32H7xx_HAL_Driver/Src/stm32h7xx_ll_usb.c ****   uint32_t HCcharEpDir, HCcharLowSpeed;
1572:Drivers/STM32H7xx_HAL_Driver/Src/stm32h7xx_ll_usb.c **** 
1573:Drivers/STM32H7xx_HAL_Driver/Src/stm32h7xx_ll_usb.c ****   /* Clear old interrupt conditions for this host channel. */
1574:Drivers/STM32H7xx_HAL_Driver/Src/stm32h7xx_ll_usb.c ****   USBx_HC((uint32_t)ch_num)->HCINT = 0xFFFFFFFFU;
 3049              		.loc 1 1574 0
 3050 0008 00EB4115 		add	r5, r0, r1, lsl #5
 3051 000c 05F5A060 		add	r0, r5, #1280
 3052              	.LVL299:
 3053 0010 4FF0FF36 		mov	r6, #-1
 3054 0014 8660     		str	r6, [r0, #8]
1575:Drivers/STM32H7xx_HAL_Driver/Src/stm32h7xx_ll_usb.c **** 
1576:Drivers/STM32H7xx_HAL_Driver/Src/stm32h7xx_ll_usb.c ****   /* Enable channel interrupts required for this transfer. */
1577:Drivers/STM32H7xx_HAL_Driver/Src/stm32h7xx_ll_usb.c ****   switch (ep_type)
 3055              		.loc 1 1577 0
 3056 0016 032C     		cmp	r4, #3
 3057 0018 31D8     		bhi	.L227
 3058 001a DFE804F0 		tbb	[pc, r4]
 3059              	.L220:
 3060 001e 02       		.byte	(.L219-.L220)/2
 3061 001f 24       		.byte	(.L221-.L220)/2
 3062 0020 02       		.byte	(.L219-.L220)/2
 3063 0021 18       		.byte	(.L222-.L220)/2
 3064              		.p2align 1
 3065              	.L219:
1578:Drivers/STM32H7xx_HAL_Driver/Src/stm32h7xx_ll_usb.c ****   {
1579:Drivers/STM32H7xx_HAL_Driver/Src/stm32h7xx_ll_usb.c ****     case EP_TYPE_CTRL:
1580:Drivers/STM32H7xx_HAL_Driver/Src/stm32h7xx_ll_usb.c ****     case EP_TYPE_BULK:
1581:Drivers/STM32H7xx_HAL_Driver/Src/stm32h7xx_ll_usb.c ****       USBx_HC((uint32_t)ch_num)->HCINTMSK = USB_OTG_HCINTMSK_XFRCM  |
 3066              		.loc 1 1581 0
 3067 0022 40F29D46 		movw	r6, #1181
 3068 0026 C660     		str	r6, [r0, #12]
1582:Drivers/STM32H7xx_HAL_Driver/Src/stm32h7xx_ll_usb.c ****                                             USB_OTG_HCINTMSK_STALLM |
1583:Drivers/STM32H7xx_HAL_Driver/Src/stm32h7xx_ll_usb.c ****                                             USB_OTG_HCINTMSK_TXERRM |
1584:Drivers/STM32H7xx_HAL_Driver/Src/stm32h7xx_ll_usb.c ****                                             USB_OTG_HCINTMSK_DTERRM |
1585:Drivers/STM32H7xx_HAL_Driver/Src/stm32h7xx_ll_usb.c ****                                             USB_OTG_HCINTMSK_AHBERR |
1586:Drivers/STM32H7xx_HAL_Driver/Src/stm32h7xx_ll_usb.c ****                                             USB_OTG_HCINTMSK_NAKM;
1587:Drivers/STM32H7xx_HAL_Driver/Src/stm32h7xx_ll_usb.c **** 
1588:Drivers/STM32H7xx_HAL_Driver/Src/stm32h7xx_ll_usb.c ****       if ((epnum & 0x80U) == 0x80U)
 3069              		.loc 1 1588 0
 3070 0028 12F0800F 		tst	r2, #128
 3071 002c 05D0     		beq	.L223
1589:Drivers/STM32H7xx_HAL_Driver/Src/stm32h7xx_ll_usb.c ****       {
1590:Drivers/STM32H7xx_HAL_Driver/Src/stm32h7xx_ll_usb.c ****         USBx_HC((uint32_t)ch_num)->HCINTMSK |= USB_OTG_HCINTMSK_BBERRM;
 3072              		.loc 1 1590 0
 3073 002e C668     		ldr	r6, [r0, #12]
 3074 0030 46F48076 		orr	r6, r6, #256
 3075 0034 C660     		str	r6, [r0, #12]
1569:Drivers/STM32H7xx_HAL_Driver/Src/stm32h7xx_ll_usb.c ****   uint32_t USBx_BASE = (uint32_t)USBx;
 3076              		.loc 1 1569 0
 3077 0036 0020     		movs	r0, #0
 3078 0038 28E0     		b	.L218
 3079              	.L223:
ARM GAS  C:\Users\xiaofei\AppData\Local\Temp\ccBH0Ic6.s 			page 89


1591:Drivers/STM32H7xx_HAL_Driver/Src/stm32h7xx_ll_usb.c ****       }
1592:Drivers/STM32H7xx_HAL_Driver/Src/stm32h7xx_ll_usb.c ****       else
1593:Drivers/STM32H7xx_HAL_Driver/Src/stm32h7xx_ll_usb.c ****       {
1594:Drivers/STM32H7xx_HAL_Driver/Src/stm32h7xx_ll_usb.c ****         if ((USBx->CID & (0x1U << 8)) != 0U)
 3080              		.loc 1 1594 0
 3081 003a FE6B     		ldr	r6, [r7, #60]
 3082 003c 16F4807F 		tst	r6, #256
 3083 0040 1FD0     		beq	.L228
1595:Drivers/STM32H7xx_HAL_Driver/Src/stm32h7xx_ll_usb.c ****         {
1596:Drivers/STM32H7xx_HAL_Driver/Src/stm32h7xx_ll_usb.c ****           USBx_HC((uint32_t)ch_num)->HCINTMSK |= (USB_OTG_HCINTMSK_NYET | USB_OTG_HCINTMSK_ACKM);
 3084              		.loc 1 1596 0
 3085 0042 C668     		ldr	r6, [r0, #12]
 3086 0044 46F06006 		orr	r6, r6, #96
 3087 0048 C660     		str	r6, [r0, #12]
1569:Drivers/STM32H7xx_HAL_Driver/Src/stm32h7xx_ll_usb.c ****   uint32_t USBx_BASE = (uint32_t)USBx;
 3088              		.loc 1 1569 0
 3089 004a 0020     		movs	r0, #0
 3090 004c 1EE0     		b	.L218
 3091              	.L222:
1597:Drivers/STM32H7xx_HAL_Driver/Src/stm32h7xx_ll_usb.c ****         }
1598:Drivers/STM32H7xx_HAL_Driver/Src/stm32h7xx_ll_usb.c ****       }
1599:Drivers/STM32H7xx_HAL_Driver/Src/stm32h7xx_ll_usb.c ****       break;
1600:Drivers/STM32H7xx_HAL_Driver/Src/stm32h7xx_ll_usb.c **** 
1601:Drivers/STM32H7xx_HAL_Driver/Src/stm32h7xx_ll_usb.c ****     case EP_TYPE_INTR:
1602:Drivers/STM32H7xx_HAL_Driver/Src/stm32h7xx_ll_usb.c ****       USBx_HC((uint32_t)ch_num)->HCINTMSK = USB_OTG_HCINTMSK_XFRCM  |
 3092              		.loc 1 1602 0
 3093 004e 40F29D66 		movw	r6, #1693
 3094 0052 C660     		str	r6, [r0, #12]
1603:Drivers/STM32H7xx_HAL_Driver/Src/stm32h7xx_ll_usb.c ****                                             USB_OTG_HCINTMSK_STALLM |
1604:Drivers/STM32H7xx_HAL_Driver/Src/stm32h7xx_ll_usb.c ****                                             USB_OTG_HCINTMSK_TXERRM |
1605:Drivers/STM32H7xx_HAL_Driver/Src/stm32h7xx_ll_usb.c ****                                             USB_OTG_HCINTMSK_DTERRM |
1606:Drivers/STM32H7xx_HAL_Driver/Src/stm32h7xx_ll_usb.c ****                                             USB_OTG_HCINTMSK_NAKM   |
1607:Drivers/STM32H7xx_HAL_Driver/Src/stm32h7xx_ll_usb.c ****                                             USB_OTG_HCINTMSK_AHBERR |
1608:Drivers/STM32H7xx_HAL_Driver/Src/stm32h7xx_ll_usb.c ****                                             USB_OTG_HCINTMSK_FRMORM;
1609:Drivers/STM32H7xx_HAL_Driver/Src/stm32h7xx_ll_usb.c **** 
1610:Drivers/STM32H7xx_HAL_Driver/Src/stm32h7xx_ll_usb.c ****       if ((epnum & 0x80U) == 0x80U)
 3095              		.loc 1 1610 0
 3096 0054 12F0800F 		tst	r2, #128
 3097 0058 15D0     		beq	.L229
1611:Drivers/STM32H7xx_HAL_Driver/Src/stm32h7xx_ll_usb.c ****       {
1612:Drivers/STM32H7xx_HAL_Driver/Src/stm32h7xx_ll_usb.c ****         USBx_HC((uint32_t)ch_num)->HCINTMSK |= USB_OTG_HCINTMSK_BBERRM;
 3098              		.loc 1 1612 0
 3099 005a C668     		ldr	r6, [r0, #12]
 3100 005c 46F48076 		orr	r6, r6, #256
 3101 0060 C660     		str	r6, [r0, #12]
1569:Drivers/STM32H7xx_HAL_Driver/Src/stm32h7xx_ll_usb.c ****   uint32_t USBx_BASE = (uint32_t)USBx;
 3102              		.loc 1 1569 0
 3103 0062 0020     		movs	r0, #0
 3104 0064 12E0     		b	.L218
 3105              	.L221:
1613:Drivers/STM32H7xx_HAL_Driver/Src/stm32h7xx_ll_usb.c ****       }
1614:Drivers/STM32H7xx_HAL_Driver/Src/stm32h7xx_ll_usb.c **** 
1615:Drivers/STM32H7xx_HAL_Driver/Src/stm32h7xx_ll_usb.c ****       break;
1616:Drivers/STM32H7xx_HAL_Driver/Src/stm32h7xx_ll_usb.c **** 
1617:Drivers/STM32H7xx_HAL_Driver/Src/stm32h7xx_ll_usb.c ****     case EP_TYPE_ISOC:
1618:Drivers/STM32H7xx_HAL_Driver/Src/stm32h7xx_ll_usb.c ****       USBx_HC((uint32_t)ch_num)->HCINTMSK = USB_OTG_HCINTMSK_XFRCM  |
 3106              		.loc 1 1618 0
ARM GAS  C:\Users\xiaofei\AppData\Local\Temp\ccBH0Ic6.s 			page 90


 3107 0066 40F22526 		movw	r6, #549
 3108 006a C660     		str	r6, [r0, #12]
1619:Drivers/STM32H7xx_HAL_Driver/Src/stm32h7xx_ll_usb.c ****                                             USB_OTG_HCINTMSK_ACKM   |
1620:Drivers/STM32H7xx_HAL_Driver/Src/stm32h7xx_ll_usb.c ****                                             USB_OTG_HCINTMSK_AHBERR |
1621:Drivers/STM32H7xx_HAL_Driver/Src/stm32h7xx_ll_usb.c ****                                             USB_OTG_HCINTMSK_FRMORM;
1622:Drivers/STM32H7xx_HAL_Driver/Src/stm32h7xx_ll_usb.c **** 
1623:Drivers/STM32H7xx_HAL_Driver/Src/stm32h7xx_ll_usb.c ****       if ((epnum & 0x80U) == 0x80U)
 3109              		.loc 1 1623 0
 3110 006c 12F0800F 		tst	r2, #128
 3111 0070 0BD0     		beq	.L230
1624:Drivers/STM32H7xx_HAL_Driver/Src/stm32h7xx_ll_usb.c ****       {
1625:Drivers/STM32H7xx_HAL_Driver/Src/stm32h7xx_ll_usb.c ****         USBx_HC((uint32_t)ch_num)->HCINTMSK |= (USB_OTG_HCINTMSK_TXERRM | USB_OTG_HCINTMSK_BBERRM);
 3112              		.loc 1 1625 0
 3113 0072 C668     		ldr	r6, [r0, #12]
 3114 0074 46F4C076 		orr	r6, r6, #384
 3115 0078 C660     		str	r6, [r0, #12]
1569:Drivers/STM32H7xx_HAL_Driver/Src/stm32h7xx_ll_usb.c ****   uint32_t USBx_BASE = (uint32_t)USBx;
 3116              		.loc 1 1569 0
 3117 007a 0020     		movs	r0, #0
 3118 007c 06E0     		b	.L218
 3119              	.L227:
1626:Drivers/STM32H7xx_HAL_Driver/Src/stm32h7xx_ll_usb.c ****       }
1627:Drivers/STM32H7xx_HAL_Driver/Src/stm32h7xx_ll_usb.c ****       break;
1628:Drivers/STM32H7xx_HAL_Driver/Src/stm32h7xx_ll_usb.c **** 
1629:Drivers/STM32H7xx_HAL_Driver/Src/stm32h7xx_ll_usb.c ****     default:
1630:Drivers/STM32H7xx_HAL_Driver/Src/stm32h7xx_ll_usb.c ****       ret = HAL_ERROR;
 3120              		.loc 1 1630 0
 3121 007e 0120     		movs	r0, #1
 3122 0080 04E0     		b	.L218
 3123              	.L228:
1569:Drivers/STM32H7xx_HAL_Driver/Src/stm32h7xx_ll_usb.c ****   uint32_t USBx_BASE = (uint32_t)USBx;
 3124              		.loc 1 1569 0
 3125 0082 0020     		movs	r0, #0
 3126 0084 02E0     		b	.L218
 3127              	.L229:
 3128 0086 0020     		movs	r0, #0
 3129 0088 00E0     		b	.L218
 3130              	.L230:
 3131 008a 0020     		movs	r0, #0
 3132              	.L218:
 3133              	.LVL300:
1631:Drivers/STM32H7xx_HAL_Driver/Src/stm32h7xx_ll_usb.c ****       break;
1632:Drivers/STM32H7xx_HAL_Driver/Src/stm32h7xx_ll_usb.c ****   }
1633:Drivers/STM32H7xx_HAL_Driver/Src/stm32h7xx_ll_usb.c **** 
1634:Drivers/STM32H7xx_HAL_Driver/Src/stm32h7xx_ll_usb.c ****   /* Enable the top level host channel interrupt. */
1635:Drivers/STM32H7xx_HAL_Driver/Src/stm32h7xx_ll_usb.c ****   USBx_HOST->HAINTMSK |= 1UL << (ch_num & 0xFU);
 3134              		.loc 1 1635 0
 3135 008c 07F5806E 		add	lr, r7, #1024
 3136 0090 D7F818C4 		ldr	ip, [r7, #1048]
 3137 0094 01F00F01 		and	r1, r1, #15
 3138              	.LVL301:
 3139 0098 0126     		movs	r6, #1
 3140 009a 06FA01F1 		lsl	r1, r6, r1
 3141 009e 4CEA0101 		orr	r1, ip, r1
 3142 00a2 C7F81814 		str	r1, [r7, #1048]
1636:Drivers/STM32H7xx_HAL_Driver/Src/stm32h7xx_ll_usb.c **** 
1637:Drivers/STM32H7xx_HAL_Driver/Src/stm32h7xx_ll_usb.c ****   /* Make sure host channel interrupts are enabled. */
ARM GAS  C:\Users\xiaofei\AppData\Local\Temp\ccBH0Ic6.s 			page 91


1638:Drivers/STM32H7xx_HAL_Driver/Src/stm32h7xx_ll_usb.c ****   USBx->GINTMSK |= USB_OTG_GINTMSK_HCIM;
 3143              		.loc 1 1638 0
 3144 00a6 B969     		ldr	r1, [r7, #24]
 3145 00a8 41F00071 		orr	r1, r1, #33554432
 3146 00ac B961     		str	r1, [r7, #24]
1639:Drivers/STM32H7xx_HAL_Driver/Src/stm32h7xx_ll_usb.c **** 
1640:Drivers/STM32H7xx_HAL_Driver/Src/stm32h7xx_ll_usb.c ****   /* Program the HCCHAR register */
1641:Drivers/STM32H7xx_HAL_Driver/Src/stm32h7xx_ll_usb.c ****   if ((epnum & 0x80U) == 0x80U)
 3147              		.loc 1 1641 0
 3148 00ae 12F0800F 		tst	r2, #128
 3149 00b2 02D0     		beq	.L231
1642:Drivers/STM32H7xx_HAL_Driver/Src/stm32h7xx_ll_usb.c ****   {
1643:Drivers/STM32H7xx_HAL_Driver/Src/stm32h7xx_ll_usb.c ****     HCcharEpDir = (0x1U << 15) & USB_OTG_HCCHAR_EPDIR;
 3150              		.loc 1 1643 0
 3151 00b4 4FF40047 		mov	r7, #32768
 3152              	.LVL302:
 3153 00b8 00E0     		b	.L224
 3154              	.LVL303:
 3155              	.L231:
1644:Drivers/STM32H7xx_HAL_Driver/Src/stm32h7xx_ll_usb.c ****   }
1645:Drivers/STM32H7xx_HAL_Driver/Src/stm32h7xx_ll_usb.c ****   else
1646:Drivers/STM32H7xx_HAL_Driver/Src/stm32h7xx_ll_usb.c ****   {
1647:Drivers/STM32H7xx_HAL_Driver/Src/stm32h7xx_ll_usb.c ****     HCcharEpDir = 0U;
 3156              		.loc 1 1647 0
 3157 00ba 0027     		movs	r7, #0
 3158              	.LVL304:
 3159              	.L224:
1648:Drivers/STM32H7xx_HAL_Driver/Src/stm32h7xx_ll_usb.c ****   }
1649:Drivers/STM32H7xx_HAL_Driver/Src/stm32h7xx_ll_usb.c **** 
1650:Drivers/STM32H7xx_HAL_Driver/Src/stm32h7xx_ll_usb.c ****   if (speed == HPRT0_PRTSPD_LOW_SPEED)
 3160              		.loc 1 1650 0
 3161 00bc 9DF81410 		ldrb	r1, [sp, #20]	@ zero_extendqisi2
 3162 00c0 0229     		cmp	r1, #2
 3163 00c2 02D1     		bne	.L232
1651:Drivers/STM32H7xx_HAL_Driver/Src/stm32h7xx_ll_usb.c ****   {
1652:Drivers/STM32H7xx_HAL_Driver/Src/stm32h7xx_ll_usb.c ****     HCcharLowSpeed = (0x1U << 17) & USB_OTG_HCCHAR_LSDEV;
 3164              		.loc 1 1652 0
 3165 00c4 4FF40036 		mov	r6, #131072
 3166 00c8 00E0     		b	.L225
 3167              	.L232:
1653:Drivers/STM32H7xx_HAL_Driver/Src/stm32h7xx_ll_usb.c ****   }
1654:Drivers/STM32H7xx_HAL_Driver/Src/stm32h7xx_ll_usb.c ****   else
1655:Drivers/STM32H7xx_HAL_Driver/Src/stm32h7xx_ll_usb.c ****   {
1656:Drivers/STM32H7xx_HAL_Driver/Src/stm32h7xx_ll_usb.c ****     HCcharLowSpeed = 0U;
 3168              		.loc 1 1656 0
 3169 00ca 0026     		movs	r6, #0
 3170              	.L225:
 3171              	.LVL305:
1657:Drivers/STM32H7xx_HAL_Driver/Src/stm32h7xx_ll_usb.c ****   }
1658:Drivers/STM32H7xx_HAL_Driver/Src/stm32h7xx_ll_usb.c **** 
1659:Drivers/STM32H7xx_HAL_Driver/Src/stm32h7xx_ll_usb.c ****   USBx_HC((uint32_t)ch_num)->HCCHAR = (((uint32_t)dev_address << 22) & USB_OTG_HCCHAR_DAD) |
 3172              		.loc 1 1659 0
 3173 00cc 9B05     		lsls	r3, r3, #22
 3174              	.LVL306:
 3175 00ce 03F0FE53 		and	r3, r3, #532676608
1660:Drivers/STM32H7xx_HAL_Driver/Src/stm32h7xx_ll_usb.c ****                                       ((((uint32_t)epnum & 0x7FU) << 11) & USB_OTG_HCCHAR_EPNUM) |
 3176              		.loc 1 1660 0
ARM GAS  C:\Users\xiaofei\AppData\Local\Temp\ccBH0Ic6.s 			page 92


 3177 00d2 D202     		lsls	r2, r2, #11
 3178              	.LVL307:
 3179 00d4 02F4F042 		and	r2, r2, #30720
1659:Drivers/STM32H7xx_HAL_Driver/Src/stm32h7xx_ll_usb.c ****                                       ((((uint32_t)epnum & 0x7FU) << 11) & USB_OTG_HCCHAR_EPNUM) |
 3180              		.loc 1 1659 0
 3181 00d8 1A43     		orrs	r2, r2, r3
1661:Drivers/STM32H7xx_HAL_Driver/Src/stm32h7xx_ll_usb.c ****                                       (((uint32_t)ep_type << 18) & USB_OTG_HCCHAR_EPTYP) |
 3182              		.loc 1 1661 0
 3183 00da A104     		lsls	r1, r4, #18
 3184 00dc 01F44021 		and	r1, r1, #786432
1660:Drivers/STM32H7xx_HAL_Driver/Src/stm32h7xx_ll_usb.c ****                                       ((((uint32_t)epnum & 0x7FU) << 11) & USB_OTG_HCCHAR_EPNUM) |
 3185              		.loc 1 1660 0
 3186 00e0 0A43     		orrs	r2, r2, r1
1662:Drivers/STM32H7xx_HAL_Driver/Src/stm32h7xx_ll_usb.c ****                                       ((uint32_t)mps & USB_OTG_HCCHAR_MPSIZ) | HCcharEpDir | HCchar
 3187              		.loc 1 1662 0
 3188 00e2 BDF81C10 		ldrh	r1, [sp, #28]
 3189 00e6 C1F30A01 		ubfx	r1, r1, #0, #11
1661:Drivers/STM32H7xx_HAL_Driver/Src/stm32h7xx_ll_usb.c ****                                       (((uint32_t)ep_type << 18) & USB_OTG_HCCHAR_EPTYP) |
 3190              		.loc 1 1661 0
 3191 00ea 0A43     		orrs	r2, r2, r1
 3192              		.loc 1 1662 0
 3193 00ec 47EA0203 		orr	r3, r7, r2
 3194 00f0 3343     		orrs	r3, r3, r6
1659:Drivers/STM32H7xx_HAL_Driver/Src/stm32h7xx_ll_usb.c ****                                       ((((uint32_t)epnum & 0x7FU) << 11) & USB_OTG_HCCHAR_EPNUM) |
 3195              		.loc 1 1659 0
 3196 00f2 C5F80035 		str	r3, [r5, #1280]
1663:Drivers/STM32H7xx_HAL_Driver/Src/stm32h7xx_ll_usb.c **** 
1664:Drivers/STM32H7xx_HAL_Driver/Src/stm32h7xx_ll_usb.c ****   if (ep_type == EP_TYPE_INTR)
 3197              		.loc 1 1664 0
 3198 00f6 032C     		cmp	r4, #3
 3199 00f8 05D1     		bne	.L226
1665:Drivers/STM32H7xx_HAL_Driver/Src/stm32h7xx_ll_usb.c ****   {
1666:Drivers/STM32H7xx_HAL_Driver/Src/stm32h7xx_ll_usb.c ****     USBx_HC((uint32_t)ch_num)->HCCHAR |= USB_OTG_HCCHAR_ODDFRM ;
 3200              		.loc 1 1666 0
 3201 00fa D5F80035 		ldr	r3, [r5, #1280]
 3202 00fe 43F00053 		orr	r3, r3, #536870912
 3203 0102 C5F80035 		str	r3, [r5, #1280]
 3204              	.L226:
1667:Drivers/STM32H7xx_HAL_Driver/Src/stm32h7xx_ll_usb.c ****   }
1668:Drivers/STM32H7xx_HAL_Driver/Src/stm32h7xx_ll_usb.c **** 
1669:Drivers/STM32H7xx_HAL_Driver/Src/stm32h7xx_ll_usb.c ****   return ret;
1670:Drivers/STM32H7xx_HAL_Driver/Src/stm32h7xx_ll_usb.c **** }
 3205              		.loc 1 1670 0
 3206 0106 F0BD     		pop	{r4, r5, r6, r7, pc}
 3207              		.cfi_endproc
 3208              	.LFE181:
 3210              		.section	.text.USB_HC_ReadInterrupt,"ax",%progbits
 3211              		.align	2
 3212              		.global	USB_HC_ReadInterrupt
 3213              		.thumb
 3214              		.thumb_func
 3216              	USB_HC_ReadInterrupt:
 3217              	.LFB183:
1671:Drivers/STM32H7xx_HAL_Driver/Src/stm32h7xx_ll_usb.c **** 
1672:Drivers/STM32H7xx_HAL_Driver/Src/stm32h7xx_ll_usb.c **** /**
1673:Drivers/STM32H7xx_HAL_Driver/Src/stm32h7xx_ll_usb.c ****   * @brief  Start a transfer over a host channel
1674:Drivers/STM32H7xx_HAL_Driver/Src/stm32h7xx_ll_usb.c ****   * @param  USBx  Selected device
ARM GAS  C:\Users\xiaofei\AppData\Local\Temp\ccBH0Ic6.s 			page 93


1675:Drivers/STM32H7xx_HAL_Driver/Src/stm32h7xx_ll_usb.c ****   * @param  hc  pointer to host channel structure
1676:Drivers/STM32H7xx_HAL_Driver/Src/stm32h7xx_ll_usb.c ****   * @param  dma USB dma enabled or disabled
1677:Drivers/STM32H7xx_HAL_Driver/Src/stm32h7xx_ll_usb.c ****   *          This parameter can be one of these values:
1678:Drivers/STM32H7xx_HAL_Driver/Src/stm32h7xx_ll_usb.c ****   *           0 : DMA feature not used
1679:Drivers/STM32H7xx_HAL_Driver/Src/stm32h7xx_ll_usb.c ****   *           1 : DMA feature used
1680:Drivers/STM32H7xx_HAL_Driver/Src/stm32h7xx_ll_usb.c ****   * @retval HAL state
1681:Drivers/STM32H7xx_HAL_Driver/Src/stm32h7xx_ll_usb.c ****   */
1682:Drivers/STM32H7xx_HAL_Driver/Src/stm32h7xx_ll_usb.c **** HAL_StatusTypeDef USB_HC_StartXfer(USB_OTG_GlobalTypeDef *USBx, USB_OTG_HCTypeDef *hc, uint8_t dma)
1683:Drivers/STM32H7xx_HAL_Driver/Src/stm32h7xx_ll_usb.c **** {
1684:Drivers/STM32H7xx_HAL_Driver/Src/stm32h7xx_ll_usb.c ****   uint32_t USBx_BASE = (uint32_t)USBx;
1685:Drivers/STM32H7xx_HAL_Driver/Src/stm32h7xx_ll_usb.c ****   uint32_t ch_num = (uint32_t)hc->ch_num;
1686:Drivers/STM32H7xx_HAL_Driver/Src/stm32h7xx_ll_usb.c ****   static __IO uint32_t tmpreg = 0U;
1687:Drivers/STM32H7xx_HAL_Driver/Src/stm32h7xx_ll_usb.c ****   uint8_t  is_oddframe;
1688:Drivers/STM32H7xx_HAL_Driver/Src/stm32h7xx_ll_usb.c ****   uint16_t len_words;
1689:Drivers/STM32H7xx_HAL_Driver/Src/stm32h7xx_ll_usb.c ****   uint16_t num_packets;
1690:Drivers/STM32H7xx_HAL_Driver/Src/stm32h7xx_ll_usb.c ****   uint16_t max_hc_pkt_count = 256U;
1691:Drivers/STM32H7xx_HAL_Driver/Src/stm32h7xx_ll_usb.c **** 
1692:Drivers/STM32H7xx_HAL_Driver/Src/stm32h7xx_ll_usb.c ****   if (((USBx->CID & (0x1U << 8)) != 0U) && (hc->speed == USBH_HS_SPEED))
1693:Drivers/STM32H7xx_HAL_Driver/Src/stm32h7xx_ll_usb.c ****   {
1694:Drivers/STM32H7xx_HAL_Driver/Src/stm32h7xx_ll_usb.c ****     if ((dma == 0U) && (hc->do_ping == 1U))
1695:Drivers/STM32H7xx_HAL_Driver/Src/stm32h7xx_ll_usb.c ****     {
1696:Drivers/STM32H7xx_HAL_Driver/Src/stm32h7xx_ll_usb.c ****       (void)USB_DoPing(USBx, hc->ch_num);
1697:Drivers/STM32H7xx_HAL_Driver/Src/stm32h7xx_ll_usb.c ****       return HAL_OK;
1698:Drivers/STM32H7xx_HAL_Driver/Src/stm32h7xx_ll_usb.c ****     }
1699:Drivers/STM32H7xx_HAL_Driver/Src/stm32h7xx_ll_usb.c ****     else if (dma == 1U)
1700:Drivers/STM32H7xx_HAL_Driver/Src/stm32h7xx_ll_usb.c ****     {
1701:Drivers/STM32H7xx_HAL_Driver/Src/stm32h7xx_ll_usb.c ****       USBx_HC(ch_num)->HCINTMSK &= ~(USB_OTG_HCINTMSK_NYET | USB_OTG_HCINTMSK_ACKM);
1702:Drivers/STM32H7xx_HAL_Driver/Src/stm32h7xx_ll_usb.c ****       hc->do_ping = 0U;
1703:Drivers/STM32H7xx_HAL_Driver/Src/stm32h7xx_ll_usb.c ****     }
1704:Drivers/STM32H7xx_HAL_Driver/Src/stm32h7xx_ll_usb.c ****     else
1705:Drivers/STM32H7xx_HAL_Driver/Src/stm32h7xx_ll_usb.c ****     {
1706:Drivers/STM32H7xx_HAL_Driver/Src/stm32h7xx_ll_usb.c ****       /* ... */
1707:Drivers/STM32H7xx_HAL_Driver/Src/stm32h7xx_ll_usb.c ****     }
1708:Drivers/STM32H7xx_HAL_Driver/Src/stm32h7xx_ll_usb.c ****   }
1709:Drivers/STM32H7xx_HAL_Driver/Src/stm32h7xx_ll_usb.c **** 
1710:Drivers/STM32H7xx_HAL_Driver/Src/stm32h7xx_ll_usb.c ****   /* Compute the expected number of packets associated to the transfer */
1711:Drivers/STM32H7xx_HAL_Driver/Src/stm32h7xx_ll_usb.c ****   if (hc->xfer_len > 0U)
1712:Drivers/STM32H7xx_HAL_Driver/Src/stm32h7xx_ll_usb.c ****   {
1713:Drivers/STM32H7xx_HAL_Driver/Src/stm32h7xx_ll_usb.c ****     num_packets = (uint16_t)((hc->xfer_len + hc->max_packet - 1U) / hc->max_packet);
1714:Drivers/STM32H7xx_HAL_Driver/Src/stm32h7xx_ll_usb.c **** 
1715:Drivers/STM32H7xx_HAL_Driver/Src/stm32h7xx_ll_usb.c ****     if (num_packets > max_hc_pkt_count)
1716:Drivers/STM32H7xx_HAL_Driver/Src/stm32h7xx_ll_usb.c ****     {
1717:Drivers/STM32H7xx_HAL_Driver/Src/stm32h7xx_ll_usb.c ****       num_packets = max_hc_pkt_count;
1718:Drivers/STM32H7xx_HAL_Driver/Src/stm32h7xx_ll_usb.c ****       hc->xfer_len = (uint32_t)num_packets * hc->max_packet;
1719:Drivers/STM32H7xx_HAL_Driver/Src/stm32h7xx_ll_usb.c ****     }
1720:Drivers/STM32H7xx_HAL_Driver/Src/stm32h7xx_ll_usb.c ****   }
1721:Drivers/STM32H7xx_HAL_Driver/Src/stm32h7xx_ll_usb.c ****   else
1722:Drivers/STM32H7xx_HAL_Driver/Src/stm32h7xx_ll_usb.c ****   {
1723:Drivers/STM32H7xx_HAL_Driver/Src/stm32h7xx_ll_usb.c ****     num_packets = 1U;
1724:Drivers/STM32H7xx_HAL_Driver/Src/stm32h7xx_ll_usb.c ****   }
1725:Drivers/STM32H7xx_HAL_Driver/Src/stm32h7xx_ll_usb.c ****   if (hc->ep_is_in != 0U)
1726:Drivers/STM32H7xx_HAL_Driver/Src/stm32h7xx_ll_usb.c ****   {
1727:Drivers/STM32H7xx_HAL_Driver/Src/stm32h7xx_ll_usb.c ****     hc->xfer_len = (uint32_t)num_packets * hc->max_packet;
1728:Drivers/STM32H7xx_HAL_Driver/Src/stm32h7xx_ll_usb.c ****   }
1729:Drivers/STM32H7xx_HAL_Driver/Src/stm32h7xx_ll_usb.c **** 
1730:Drivers/STM32H7xx_HAL_Driver/Src/stm32h7xx_ll_usb.c ****   /* Initialize the HCTSIZn register */
1731:Drivers/STM32H7xx_HAL_Driver/Src/stm32h7xx_ll_usb.c ****   USBx_HC(ch_num)->HCTSIZ = (hc->xfer_len & USB_OTG_HCTSIZ_XFRSIZ) |
ARM GAS  C:\Users\xiaofei\AppData\Local\Temp\ccBH0Ic6.s 			page 94


1732:Drivers/STM32H7xx_HAL_Driver/Src/stm32h7xx_ll_usb.c ****                             (((uint32_t)num_packets << 19) & USB_OTG_HCTSIZ_PKTCNT) |
1733:Drivers/STM32H7xx_HAL_Driver/Src/stm32h7xx_ll_usb.c ****                             (((uint32_t)hc->data_pid << 29) & USB_OTG_HCTSIZ_DPID);
1734:Drivers/STM32H7xx_HAL_Driver/Src/stm32h7xx_ll_usb.c **** 
1735:Drivers/STM32H7xx_HAL_Driver/Src/stm32h7xx_ll_usb.c ****   if (dma != 0U)
1736:Drivers/STM32H7xx_HAL_Driver/Src/stm32h7xx_ll_usb.c ****   {
1737:Drivers/STM32H7xx_HAL_Driver/Src/stm32h7xx_ll_usb.c ****     /* xfer_buff MUST be 32-bits aligned */
1738:Drivers/STM32H7xx_HAL_Driver/Src/stm32h7xx_ll_usb.c ****     USBx_HC(ch_num)->HCDMA = (uint32_t)hc->xfer_buff;
1739:Drivers/STM32H7xx_HAL_Driver/Src/stm32h7xx_ll_usb.c ****   }
1740:Drivers/STM32H7xx_HAL_Driver/Src/stm32h7xx_ll_usb.c **** 
1741:Drivers/STM32H7xx_HAL_Driver/Src/stm32h7xx_ll_usb.c ****   is_oddframe = (((uint32_t)USBx_HOST->HFNUM & 0x01U) != 0U) ? 0U : 1U;
1742:Drivers/STM32H7xx_HAL_Driver/Src/stm32h7xx_ll_usb.c ****   USBx_HC(ch_num)->HCCHAR &= ~USB_OTG_HCCHAR_ODDFRM;
1743:Drivers/STM32H7xx_HAL_Driver/Src/stm32h7xx_ll_usb.c ****   USBx_HC(ch_num)->HCCHAR |= (uint32_t)is_oddframe << 29;
1744:Drivers/STM32H7xx_HAL_Driver/Src/stm32h7xx_ll_usb.c **** 
1745:Drivers/STM32H7xx_HAL_Driver/Src/stm32h7xx_ll_usb.c ****   /* Set host channel enable */
1746:Drivers/STM32H7xx_HAL_Driver/Src/stm32h7xx_ll_usb.c ****   tmpreg = USBx_HC(ch_num)->HCCHAR;
1747:Drivers/STM32H7xx_HAL_Driver/Src/stm32h7xx_ll_usb.c ****   tmpreg &= ~USB_OTG_HCCHAR_CHDIS;
1748:Drivers/STM32H7xx_HAL_Driver/Src/stm32h7xx_ll_usb.c **** 
1749:Drivers/STM32H7xx_HAL_Driver/Src/stm32h7xx_ll_usb.c ****   /* make sure to set the correct ep direction */
1750:Drivers/STM32H7xx_HAL_Driver/Src/stm32h7xx_ll_usb.c ****   if (hc->ep_is_in != 0U)
1751:Drivers/STM32H7xx_HAL_Driver/Src/stm32h7xx_ll_usb.c ****   {
1752:Drivers/STM32H7xx_HAL_Driver/Src/stm32h7xx_ll_usb.c ****     tmpreg |= USB_OTG_HCCHAR_EPDIR;
1753:Drivers/STM32H7xx_HAL_Driver/Src/stm32h7xx_ll_usb.c ****   }
1754:Drivers/STM32H7xx_HAL_Driver/Src/stm32h7xx_ll_usb.c ****   else
1755:Drivers/STM32H7xx_HAL_Driver/Src/stm32h7xx_ll_usb.c ****   {
1756:Drivers/STM32H7xx_HAL_Driver/Src/stm32h7xx_ll_usb.c ****     tmpreg &= ~USB_OTG_HCCHAR_EPDIR;
1757:Drivers/STM32H7xx_HAL_Driver/Src/stm32h7xx_ll_usb.c ****   }
1758:Drivers/STM32H7xx_HAL_Driver/Src/stm32h7xx_ll_usb.c ****   tmpreg |= USB_OTG_HCCHAR_CHENA;
1759:Drivers/STM32H7xx_HAL_Driver/Src/stm32h7xx_ll_usb.c ****   USBx_HC(ch_num)->HCCHAR = tmpreg;
1760:Drivers/STM32H7xx_HAL_Driver/Src/stm32h7xx_ll_usb.c **** 
1761:Drivers/STM32H7xx_HAL_Driver/Src/stm32h7xx_ll_usb.c ****   if (dma == 0U) /* Slave mode */
1762:Drivers/STM32H7xx_HAL_Driver/Src/stm32h7xx_ll_usb.c ****   {
1763:Drivers/STM32H7xx_HAL_Driver/Src/stm32h7xx_ll_usb.c ****     if ((hc->ep_is_in == 0U) && (hc->xfer_len > 0U))
1764:Drivers/STM32H7xx_HAL_Driver/Src/stm32h7xx_ll_usb.c ****     {
1765:Drivers/STM32H7xx_HAL_Driver/Src/stm32h7xx_ll_usb.c ****       switch (hc->ep_type)
1766:Drivers/STM32H7xx_HAL_Driver/Src/stm32h7xx_ll_usb.c ****       {
1767:Drivers/STM32H7xx_HAL_Driver/Src/stm32h7xx_ll_usb.c ****         /* Non periodic transfer */
1768:Drivers/STM32H7xx_HAL_Driver/Src/stm32h7xx_ll_usb.c ****         case EP_TYPE_CTRL:
1769:Drivers/STM32H7xx_HAL_Driver/Src/stm32h7xx_ll_usb.c ****         case EP_TYPE_BULK:
1770:Drivers/STM32H7xx_HAL_Driver/Src/stm32h7xx_ll_usb.c **** 
1771:Drivers/STM32H7xx_HAL_Driver/Src/stm32h7xx_ll_usb.c ****           len_words = (uint16_t)((hc->xfer_len + 3U) / 4U);
1772:Drivers/STM32H7xx_HAL_Driver/Src/stm32h7xx_ll_usb.c **** 
1773:Drivers/STM32H7xx_HAL_Driver/Src/stm32h7xx_ll_usb.c ****           /* check if there is enough space in FIFO space */
1774:Drivers/STM32H7xx_HAL_Driver/Src/stm32h7xx_ll_usb.c ****           if (len_words > (USBx->HNPTXSTS & 0xFFFFU))
1775:Drivers/STM32H7xx_HAL_Driver/Src/stm32h7xx_ll_usb.c ****           {
1776:Drivers/STM32H7xx_HAL_Driver/Src/stm32h7xx_ll_usb.c ****             /* need to process data in nptxfempty interrupt */
1777:Drivers/STM32H7xx_HAL_Driver/Src/stm32h7xx_ll_usb.c ****             USBx->GINTMSK |= USB_OTG_GINTMSK_NPTXFEM;
1778:Drivers/STM32H7xx_HAL_Driver/Src/stm32h7xx_ll_usb.c ****           }
1779:Drivers/STM32H7xx_HAL_Driver/Src/stm32h7xx_ll_usb.c ****           break;
1780:Drivers/STM32H7xx_HAL_Driver/Src/stm32h7xx_ll_usb.c **** 
1781:Drivers/STM32H7xx_HAL_Driver/Src/stm32h7xx_ll_usb.c ****         /* Periodic transfer */
1782:Drivers/STM32H7xx_HAL_Driver/Src/stm32h7xx_ll_usb.c ****         case EP_TYPE_INTR:
1783:Drivers/STM32H7xx_HAL_Driver/Src/stm32h7xx_ll_usb.c ****         case EP_TYPE_ISOC:
1784:Drivers/STM32H7xx_HAL_Driver/Src/stm32h7xx_ll_usb.c ****           len_words = (uint16_t)((hc->xfer_len + 3U) / 4U);
1785:Drivers/STM32H7xx_HAL_Driver/Src/stm32h7xx_ll_usb.c ****           /* check if there is enough space in FIFO space */
1786:Drivers/STM32H7xx_HAL_Driver/Src/stm32h7xx_ll_usb.c ****           if (len_words > (USBx_HOST->HPTXSTS & 0xFFFFU)) /* split the transfer */
1787:Drivers/STM32H7xx_HAL_Driver/Src/stm32h7xx_ll_usb.c ****           {
1788:Drivers/STM32H7xx_HAL_Driver/Src/stm32h7xx_ll_usb.c ****             /* need to process data in ptxfempty interrupt */
ARM GAS  C:\Users\xiaofei\AppData\Local\Temp\ccBH0Ic6.s 			page 95


1789:Drivers/STM32H7xx_HAL_Driver/Src/stm32h7xx_ll_usb.c ****             USBx->GINTMSK |= USB_OTG_GINTMSK_PTXFEM;
1790:Drivers/STM32H7xx_HAL_Driver/Src/stm32h7xx_ll_usb.c ****           }
1791:Drivers/STM32H7xx_HAL_Driver/Src/stm32h7xx_ll_usb.c ****           break;
1792:Drivers/STM32H7xx_HAL_Driver/Src/stm32h7xx_ll_usb.c **** 
1793:Drivers/STM32H7xx_HAL_Driver/Src/stm32h7xx_ll_usb.c ****         default:
1794:Drivers/STM32H7xx_HAL_Driver/Src/stm32h7xx_ll_usb.c ****           break;
1795:Drivers/STM32H7xx_HAL_Driver/Src/stm32h7xx_ll_usb.c ****       }
1796:Drivers/STM32H7xx_HAL_Driver/Src/stm32h7xx_ll_usb.c **** 
1797:Drivers/STM32H7xx_HAL_Driver/Src/stm32h7xx_ll_usb.c ****       /* Write packet into the Tx FIFO. */
1798:Drivers/STM32H7xx_HAL_Driver/Src/stm32h7xx_ll_usb.c ****       (void)USB_WritePacket(USBx, hc->xfer_buff, hc->ch_num, (uint16_t)hc->xfer_len, 0);
1799:Drivers/STM32H7xx_HAL_Driver/Src/stm32h7xx_ll_usb.c ****     }
1800:Drivers/STM32H7xx_HAL_Driver/Src/stm32h7xx_ll_usb.c ****   }
1801:Drivers/STM32H7xx_HAL_Driver/Src/stm32h7xx_ll_usb.c **** 
1802:Drivers/STM32H7xx_HAL_Driver/Src/stm32h7xx_ll_usb.c ****   return HAL_OK;
1803:Drivers/STM32H7xx_HAL_Driver/Src/stm32h7xx_ll_usb.c **** }
1804:Drivers/STM32H7xx_HAL_Driver/Src/stm32h7xx_ll_usb.c **** 
1805:Drivers/STM32H7xx_HAL_Driver/Src/stm32h7xx_ll_usb.c **** /**
1806:Drivers/STM32H7xx_HAL_Driver/Src/stm32h7xx_ll_usb.c ****   * @brief Read all host channel interrupts status
1807:Drivers/STM32H7xx_HAL_Driver/Src/stm32h7xx_ll_usb.c ****   * @param  USBx  Selected device
1808:Drivers/STM32H7xx_HAL_Driver/Src/stm32h7xx_ll_usb.c ****   * @retval HAL state
1809:Drivers/STM32H7xx_HAL_Driver/Src/stm32h7xx_ll_usb.c ****   */
1810:Drivers/STM32H7xx_HAL_Driver/Src/stm32h7xx_ll_usb.c **** uint32_t USB_HC_ReadInterrupt(USB_OTG_GlobalTypeDef *USBx)
1811:Drivers/STM32H7xx_HAL_Driver/Src/stm32h7xx_ll_usb.c **** {
 3218              		.loc 1 1811 0
 3219              		.cfi_startproc
 3220              		@ args = 0, pretend = 0, frame = 0
 3221              		@ frame_needed = 0, uses_anonymous_args = 0
 3222              		@ link register save eliminated.
 3223              	.LVL308:
1812:Drivers/STM32H7xx_HAL_Driver/Src/stm32h7xx_ll_usb.c ****   uint32_t USBx_BASE = (uint32_t)USBx;
1813:Drivers/STM32H7xx_HAL_Driver/Src/stm32h7xx_ll_usb.c **** 
1814:Drivers/STM32H7xx_HAL_Driver/Src/stm32h7xx_ll_usb.c ****   return ((USBx_HOST->HAINT) & 0xFFFFU);
 3224              		.loc 1 1814 0
 3225 0000 00F58060 		add	r0, r0, #1024
 3226              	.LVL309:
 3227 0004 4069     		ldr	r0, [r0, #20]
 3228              	.LVL310:
1815:Drivers/STM32H7xx_HAL_Driver/Src/stm32h7xx_ll_usb.c **** }
 3229              		.loc 1 1815 0
 3230 0006 80B2     		uxth	r0, r0
 3231 0008 7047     		bx	lr
 3232              		.cfi_endproc
 3233              	.LFE183:
 3235 000a 00BF     		.section	.text.USB_HC_Halt,"ax",%progbits
 3236              		.align	2
 3237              		.global	USB_HC_Halt
 3238              		.thumb
 3239              		.thumb_func
 3241              	USB_HC_Halt:
 3242              	.LFB184:
1816:Drivers/STM32H7xx_HAL_Driver/Src/stm32h7xx_ll_usb.c **** 
1817:Drivers/STM32H7xx_HAL_Driver/Src/stm32h7xx_ll_usb.c **** /**
1818:Drivers/STM32H7xx_HAL_Driver/Src/stm32h7xx_ll_usb.c ****   * @brief  Halt a host channel
1819:Drivers/STM32H7xx_HAL_Driver/Src/stm32h7xx_ll_usb.c ****   * @param  USBx  Selected device
1820:Drivers/STM32H7xx_HAL_Driver/Src/stm32h7xx_ll_usb.c ****   * @param  hc_num  Host Channel number
1821:Drivers/STM32H7xx_HAL_Driver/Src/stm32h7xx_ll_usb.c ****   *         This parameter can be a value from 1 to 15
1822:Drivers/STM32H7xx_HAL_Driver/Src/stm32h7xx_ll_usb.c ****   * @retval HAL state
ARM GAS  C:\Users\xiaofei\AppData\Local\Temp\ccBH0Ic6.s 			page 96


1823:Drivers/STM32H7xx_HAL_Driver/Src/stm32h7xx_ll_usb.c ****   */
1824:Drivers/STM32H7xx_HAL_Driver/Src/stm32h7xx_ll_usb.c **** HAL_StatusTypeDef USB_HC_Halt(USB_OTG_GlobalTypeDef *USBx, uint8_t hc_num)
1825:Drivers/STM32H7xx_HAL_Driver/Src/stm32h7xx_ll_usb.c **** {
 3243              		.loc 1 1825 0
 3244              		.cfi_startproc
 3245              		@ args = 0, pretend = 0, frame = 0
 3246              		@ frame_needed = 0, uses_anonymous_args = 0
 3247              		@ link register save eliminated.
 3248              	.LVL311:
 3249 0000 10B4     		push	{r4}
 3250              	.LCFI49:
 3251              		.cfi_def_cfa_offset 4
 3252              		.cfi_offset 4, -4
 3253              	.LVL312:
1826:Drivers/STM32H7xx_HAL_Driver/Src/stm32h7xx_ll_usb.c ****   uint32_t USBx_BASE = (uint32_t)USBx;
1827:Drivers/STM32H7xx_HAL_Driver/Src/stm32h7xx_ll_usb.c ****   uint32_t hcnum = (uint32_t)hc_num;
1828:Drivers/STM32H7xx_HAL_Driver/Src/stm32h7xx_ll_usb.c ****   uint32_t count = 0U;
1829:Drivers/STM32H7xx_HAL_Driver/Src/stm32h7xx_ll_usb.c ****   uint32_t HcEpType = (USBx_HC(hcnum)->HCCHAR & USB_OTG_HCCHAR_EPTYP) >> 18;
 3254              		.loc 1 1829 0
 3255 0002 00EB4111 		add	r1, r0, r1, lsl #5
 3256              	.LVL313:
 3257 0006 01F5A064 		add	r4, r1, #1280
 3258 000a D1F80035 		ldr	r3, [r1, #1280]
 3259 000e C3F38143 		ubfx	r3, r3, #18, #2
 3260              	.LVL314:
1830:Drivers/STM32H7xx_HAL_Driver/Src/stm32h7xx_ll_usb.c **** 
1831:Drivers/STM32H7xx_HAL_Driver/Src/stm32h7xx_ll_usb.c ****   /* Check for space in the request queue to issue the halt. */
1832:Drivers/STM32H7xx_HAL_Driver/Src/stm32h7xx_ll_usb.c ****   if ((HcEpType == HCCHAR_CTRL) || (HcEpType == HCCHAR_BULK))
 3261              		.loc 1 1832 0
 3262 0012 022B     		cmp	r3, #2
 3263 0014 18BF     		it	ne
 3264 0016 002B     		cmpne	r3, #0
 3265 0018 2BD1     		bne	.L236
1833:Drivers/STM32H7xx_HAL_Driver/Src/stm32h7xx_ll_usb.c ****   {
1834:Drivers/STM32H7xx_HAL_Driver/Src/stm32h7xx_ll_usb.c ****     USBx_HC(hcnum)->HCCHAR |= USB_OTG_HCCHAR_CHDIS;
 3266              		.loc 1 1834 0
 3267 001a D1F80035 		ldr	r3, [r1, #1280]
 3268              	.LVL315:
 3269 001e 43F08043 		orr	r3, r3, #1073741824
 3270 0022 C1F80035 		str	r3, [r1, #1280]
1835:Drivers/STM32H7xx_HAL_Driver/Src/stm32h7xx_ll_usb.c **** 
1836:Drivers/STM32H7xx_HAL_Driver/Src/stm32h7xx_ll_usb.c ****     if ((USBx->HNPTXSTS & (0xFFU << 16)) == 0U)
 3271              		.loc 1 1836 0
 3272 0026 C36A     		ldr	r3, [r0, #44]
 3273 0028 13F47F0F 		tst	r3, #16711680
 3274 002c 1AD1     		bne	.L237
1837:Drivers/STM32H7xx_HAL_Driver/Src/stm32h7xx_ll_usb.c ****     {
1838:Drivers/STM32H7xx_HAL_Driver/Src/stm32h7xx_ll_usb.c ****       USBx_HC(hcnum)->HCCHAR &= ~USB_OTG_HCCHAR_CHENA;
 3275              		.loc 1 1838 0
 3276 002e D1F80035 		ldr	r3, [r1, #1280]
 3277 0032 23F00043 		bic	r3, r3, #-2147483648
 3278 0036 C1F80035 		str	r3, [r1, #1280]
1839:Drivers/STM32H7xx_HAL_Driver/Src/stm32h7xx_ll_usb.c ****       USBx_HC(hcnum)->HCCHAR |= USB_OTG_HCCHAR_CHENA;
 3279              		.loc 1 1839 0
 3280 003a D1F80035 		ldr	r3, [r1, #1280]
 3281 003e 43F00043 		orr	r3, r3, #-2147483648
 3282 0042 C1F80035 		str	r3, [r1, #1280]
ARM GAS  C:\Users\xiaofei\AppData\Local\Temp\ccBH0Ic6.s 			page 97


1840:Drivers/STM32H7xx_HAL_Driver/Src/stm32h7xx_ll_usb.c ****       USBx_HC(hcnum)->HCCHAR &= ~USB_OTG_HCCHAR_EPDIR;
 3283              		.loc 1 1840 0
 3284 0046 D1F80035 		ldr	r3, [r1, #1280]
 3285 004a 23F40043 		bic	r3, r3, #32768
 3286 004e C1F80035 		str	r3, [r1, #1280]
1828:Drivers/STM32H7xx_HAL_Driver/Src/stm32h7xx_ll_usb.c ****   uint32_t HcEpType = (USBx_HC(hcnum)->HCCHAR & USB_OTG_HCCHAR_EPTYP) >> 18;
 3287              		.loc 1 1828 0
 3288 0052 0023     		movs	r3, #0
 3289              	.LVL316:
 3290              	.L239:
1841:Drivers/STM32H7xx_HAL_Driver/Src/stm32h7xx_ll_usb.c ****       do
1842:Drivers/STM32H7xx_HAL_Driver/Src/stm32h7xx_ll_usb.c ****       {
1843:Drivers/STM32H7xx_HAL_Driver/Src/stm32h7xx_ll_usb.c ****         if (++count > 1000U)
 3291              		.loc 1 1843 0
 3292 0054 0133     		adds	r3, r3, #1
 3293              	.LVL317:
 3294 0056 B3F57A7F 		cmp	r3, #1000
 3295 005a 36D8     		bhi	.L238
1844:Drivers/STM32H7xx_HAL_Driver/Src/stm32h7xx_ll_usb.c ****         {
1845:Drivers/STM32H7xx_HAL_Driver/Src/stm32h7xx_ll_usb.c ****           break;
1846:Drivers/STM32H7xx_HAL_Driver/Src/stm32h7xx_ll_usb.c ****         }
1847:Drivers/STM32H7xx_HAL_Driver/Src/stm32h7xx_ll_usb.c ****       }
1848:Drivers/STM32H7xx_HAL_Driver/Src/stm32h7xx_ll_usb.c ****       while ((USBx_HC(hcnum)->HCCHAR & USB_OTG_HCCHAR_CHENA) == USB_OTG_HCCHAR_CHENA);
 3296              		.loc 1 1848 0
 3297 005c 2268     		ldr	r2, [r4]
 3298 005e 002A     		cmp	r2, #0
 3299 0060 F8DB     		blt	.L239
 3300 0062 32E0     		b	.L238
 3301              	.LVL318:
 3302              	.L237:
1849:Drivers/STM32H7xx_HAL_Driver/Src/stm32h7xx_ll_usb.c ****     }
1850:Drivers/STM32H7xx_HAL_Driver/Src/stm32h7xx_ll_usb.c ****     else
1851:Drivers/STM32H7xx_HAL_Driver/Src/stm32h7xx_ll_usb.c ****     {
1852:Drivers/STM32H7xx_HAL_Driver/Src/stm32h7xx_ll_usb.c ****       USBx_HC(hcnum)->HCCHAR |= USB_OTG_HCCHAR_CHENA;
 3303              		.loc 1 1852 0
 3304 0064 D1F80035 		ldr	r3, [r1, #1280]
 3305 0068 43F00043 		orr	r3, r3, #-2147483648
 3306 006c C1F80035 		str	r3, [r1, #1280]
 3307 0070 2BE0     		b	.L238
 3308              	.LVL319:
 3309              	.L236:
1853:Drivers/STM32H7xx_HAL_Driver/Src/stm32h7xx_ll_usb.c ****     }
1854:Drivers/STM32H7xx_HAL_Driver/Src/stm32h7xx_ll_usb.c ****   }
1855:Drivers/STM32H7xx_HAL_Driver/Src/stm32h7xx_ll_usb.c ****   else
1856:Drivers/STM32H7xx_HAL_Driver/Src/stm32h7xx_ll_usb.c ****   {
1857:Drivers/STM32H7xx_HAL_Driver/Src/stm32h7xx_ll_usb.c ****     USBx_HC(hcnum)->HCCHAR |= USB_OTG_HCCHAR_CHDIS;
 3310              		.loc 1 1857 0
 3311 0072 D1F80035 		ldr	r3, [r1, #1280]
 3312              	.LVL320:
 3313 0076 43F08043 		orr	r3, r3, #1073741824
 3314 007a C1F80035 		str	r3, [r1, #1280]
1858:Drivers/STM32H7xx_HAL_Driver/Src/stm32h7xx_ll_usb.c **** 
1859:Drivers/STM32H7xx_HAL_Driver/Src/stm32h7xx_ll_usb.c ****     if ((USBx_HOST->HPTXSTS & (0xFFU << 16)) == 0U)
 3315              		.loc 1 1859 0
 3316 007e D0F81034 		ldr	r3, [r0, #1040]
 3317 0082 13F47F0F 		tst	r3, #16711680
 3318 0086 1AD1     		bne	.L240
ARM GAS  C:\Users\xiaofei\AppData\Local\Temp\ccBH0Ic6.s 			page 98


1860:Drivers/STM32H7xx_HAL_Driver/Src/stm32h7xx_ll_usb.c ****     {
1861:Drivers/STM32H7xx_HAL_Driver/Src/stm32h7xx_ll_usb.c ****       USBx_HC(hcnum)->HCCHAR &= ~USB_OTG_HCCHAR_CHENA;
 3319              		.loc 1 1861 0
 3320 0088 D1F80035 		ldr	r3, [r1, #1280]
 3321 008c 23F00043 		bic	r3, r3, #-2147483648
 3322 0090 C1F80035 		str	r3, [r1, #1280]
1862:Drivers/STM32H7xx_HAL_Driver/Src/stm32h7xx_ll_usb.c ****       USBx_HC(hcnum)->HCCHAR |= USB_OTG_HCCHAR_CHENA;
 3323              		.loc 1 1862 0
 3324 0094 D1F80035 		ldr	r3, [r1, #1280]
 3325 0098 43F00043 		orr	r3, r3, #-2147483648
 3326 009c C1F80035 		str	r3, [r1, #1280]
1863:Drivers/STM32H7xx_HAL_Driver/Src/stm32h7xx_ll_usb.c ****       USBx_HC(hcnum)->HCCHAR &= ~USB_OTG_HCCHAR_EPDIR;
 3327              		.loc 1 1863 0
 3328 00a0 D1F80035 		ldr	r3, [r1, #1280]
 3329 00a4 23F40043 		bic	r3, r3, #32768
 3330 00a8 C1F80035 		str	r3, [r1, #1280]
1828:Drivers/STM32H7xx_HAL_Driver/Src/stm32h7xx_ll_usb.c ****   uint32_t HcEpType = (USBx_HC(hcnum)->HCCHAR & USB_OTG_HCCHAR_EPTYP) >> 18;
 3331              		.loc 1 1828 0
 3332 00ac 0023     		movs	r3, #0
 3333              	.LVL321:
 3334              	.L241:
1864:Drivers/STM32H7xx_HAL_Driver/Src/stm32h7xx_ll_usb.c ****       do
1865:Drivers/STM32H7xx_HAL_Driver/Src/stm32h7xx_ll_usb.c ****       {
1866:Drivers/STM32H7xx_HAL_Driver/Src/stm32h7xx_ll_usb.c ****         if (++count > 1000U)
 3335              		.loc 1 1866 0
 3336 00ae 0133     		adds	r3, r3, #1
 3337              	.LVL322:
 3338 00b0 B3F57A7F 		cmp	r3, #1000
 3339 00b4 09D8     		bhi	.L238
1867:Drivers/STM32H7xx_HAL_Driver/Src/stm32h7xx_ll_usb.c ****         {
1868:Drivers/STM32H7xx_HAL_Driver/Src/stm32h7xx_ll_usb.c ****           break;
1869:Drivers/STM32H7xx_HAL_Driver/Src/stm32h7xx_ll_usb.c ****         }
1870:Drivers/STM32H7xx_HAL_Driver/Src/stm32h7xx_ll_usb.c ****       }
1871:Drivers/STM32H7xx_HAL_Driver/Src/stm32h7xx_ll_usb.c ****       while ((USBx_HC(hcnum)->HCCHAR & USB_OTG_HCCHAR_CHENA) == USB_OTG_HCCHAR_CHENA);
 3340              		.loc 1 1871 0
 3341 00b6 2268     		ldr	r2, [r4]
 3342 00b8 002A     		cmp	r2, #0
 3343 00ba F8DB     		blt	.L241
 3344 00bc 05E0     		b	.L238
 3345              	.LVL323:
 3346              	.L240:
1872:Drivers/STM32H7xx_HAL_Driver/Src/stm32h7xx_ll_usb.c ****     }
1873:Drivers/STM32H7xx_HAL_Driver/Src/stm32h7xx_ll_usb.c ****     else
1874:Drivers/STM32H7xx_HAL_Driver/Src/stm32h7xx_ll_usb.c ****     {
1875:Drivers/STM32H7xx_HAL_Driver/Src/stm32h7xx_ll_usb.c ****       USBx_HC(hcnum)->HCCHAR |= USB_OTG_HCCHAR_CHENA;
 3347              		.loc 1 1875 0
 3348 00be D1F80035 		ldr	r3, [r1, #1280]
 3349 00c2 43F00043 		orr	r3, r3, #-2147483648
 3350 00c6 C1F80035 		str	r3, [r1, #1280]
 3351              	.LVL324:
 3352              	.L238:
1876:Drivers/STM32H7xx_HAL_Driver/Src/stm32h7xx_ll_usb.c ****     }
1877:Drivers/STM32H7xx_HAL_Driver/Src/stm32h7xx_ll_usb.c ****   }
1878:Drivers/STM32H7xx_HAL_Driver/Src/stm32h7xx_ll_usb.c **** 
1879:Drivers/STM32H7xx_HAL_Driver/Src/stm32h7xx_ll_usb.c ****   return HAL_OK;
1880:Drivers/STM32H7xx_HAL_Driver/Src/stm32h7xx_ll_usb.c **** }
 3353              		.loc 1 1880 0
ARM GAS  C:\Users\xiaofei\AppData\Local\Temp\ccBH0Ic6.s 			page 99


 3354 00ca 0020     		movs	r0, #0
 3355              	.LVL325:
 3356 00cc 5DF8044B 		ldr	r4, [sp], #4
 3357              	.LCFI50:
 3358              		.cfi_restore 4
 3359              		.cfi_def_cfa_offset 0
 3360 00d0 7047     		bx	lr
 3361              		.cfi_endproc
 3362              	.LFE184:
 3364 00d2 00BF     		.section	.text.USB_DoPing,"ax",%progbits
 3365              		.align	2
 3366              		.global	USB_DoPing
 3367              		.thumb
 3368              		.thumb_func
 3370              	USB_DoPing:
 3371              	.LFB185:
1881:Drivers/STM32H7xx_HAL_Driver/Src/stm32h7xx_ll_usb.c **** 
1882:Drivers/STM32H7xx_HAL_Driver/Src/stm32h7xx_ll_usb.c **** /**
1883:Drivers/STM32H7xx_HAL_Driver/Src/stm32h7xx_ll_usb.c ****   * @brief  Initiate Do Ping protocol
1884:Drivers/STM32H7xx_HAL_Driver/Src/stm32h7xx_ll_usb.c ****   * @param  USBx  Selected device
1885:Drivers/STM32H7xx_HAL_Driver/Src/stm32h7xx_ll_usb.c ****   * @param  hc_num  Host Channel number
1886:Drivers/STM32H7xx_HAL_Driver/Src/stm32h7xx_ll_usb.c ****   *         This parameter can be a value from 1 to 15
1887:Drivers/STM32H7xx_HAL_Driver/Src/stm32h7xx_ll_usb.c ****   * @retval HAL state
1888:Drivers/STM32H7xx_HAL_Driver/Src/stm32h7xx_ll_usb.c ****   */
1889:Drivers/STM32H7xx_HAL_Driver/Src/stm32h7xx_ll_usb.c **** HAL_StatusTypeDef USB_DoPing(USB_OTG_GlobalTypeDef *USBx, uint8_t ch_num)
1890:Drivers/STM32H7xx_HAL_Driver/Src/stm32h7xx_ll_usb.c **** {
 3372              		.loc 1 1890 0
 3373              		.cfi_startproc
 3374              		@ args = 0, pretend = 0, frame = 0
 3375              		@ frame_needed = 0, uses_anonymous_args = 0
 3376              		@ link register save eliminated.
 3377              	.LVL326:
1891:Drivers/STM32H7xx_HAL_Driver/Src/stm32h7xx_ll_usb.c ****   uint32_t USBx_BASE = (uint32_t)USBx;
1892:Drivers/STM32H7xx_HAL_Driver/Src/stm32h7xx_ll_usb.c ****   uint32_t chnum = (uint32_t)ch_num;
1893:Drivers/STM32H7xx_HAL_Driver/Src/stm32h7xx_ll_usb.c ****   uint32_t num_packets = 1U;
1894:Drivers/STM32H7xx_HAL_Driver/Src/stm32h7xx_ll_usb.c ****   uint32_t tmpreg;
1895:Drivers/STM32H7xx_HAL_Driver/Src/stm32h7xx_ll_usb.c **** 
1896:Drivers/STM32H7xx_HAL_Driver/Src/stm32h7xx_ll_usb.c ****   USBx_HC(chnum)->HCTSIZ = ((num_packets << 19) & USB_OTG_HCTSIZ_PKTCNT) |
 3378              		.loc 1 1896 0
 3379 0000 00EB4111 		add	r1, r0, r1, lsl #5
 3380              	.LVL327:
 3381 0004 064A     		ldr	r2, .L244
 3382 0006 C1F81025 		str	r2, [r1, #1296]
1897:Drivers/STM32H7xx_HAL_Driver/Src/stm32h7xx_ll_usb.c ****                            USB_OTG_HCTSIZ_DOPING;
1898:Drivers/STM32H7xx_HAL_Driver/Src/stm32h7xx_ll_usb.c **** 
1899:Drivers/STM32H7xx_HAL_Driver/Src/stm32h7xx_ll_usb.c ****   /* Set host channel enable */
1900:Drivers/STM32H7xx_HAL_Driver/Src/stm32h7xx_ll_usb.c ****   tmpreg = USBx_HC(chnum)->HCCHAR;
 3383              		.loc 1 1900 0
 3384 000a D1F80035 		ldr	r3, [r1, #1280]
 3385              	.LVL328:
1901:Drivers/STM32H7xx_HAL_Driver/Src/stm32h7xx_ll_usb.c ****   tmpreg &= ~USB_OTG_HCCHAR_CHDIS;
 3386              		.loc 1 1901 0
 3387 000e 23F08043 		bic	r3, r3, #1073741824
 3388              	.LVL329:
1902:Drivers/STM32H7xx_HAL_Driver/Src/stm32h7xx_ll_usb.c ****   tmpreg |= USB_OTG_HCCHAR_CHENA;
 3389              		.loc 1 1902 0
 3390 0012 43F00043 		orr	r3, r3, #-2147483648
ARM GAS  C:\Users\xiaofei\AppData\Local\Temp\ccBH0Ic6.s 			page 100


 3391              	.LVL330:
1903:Drivers/STM32H7xx_HAL_Driver/Src/stm32h7xx_ll_usb.c ****   USBx_HC(chnum)->HCCHAR = tmpreg;
 3392              		.loc 1 1903 0
 3393 0016 C1F80035 		str	r3, [r1, #1280]
1904:Drivers/STM32H7xx_HAL_Driver/Src/stm32h7xx_ll_usb.c **** 
1905:Drivers/STM32H7xx_HAL_Driver/Src/stm32h7xx_ll_usb.c ****   return HAL_OK;
1906:Drivers/STM32H7xx_HAL_Driver/Src/stm32h7xx_ll_usb.c **** }
 3394              		.loc 1 1906 0
 3395 001a 0020     		movs	r0, #0
 3396              	.LVL331:
 3397 001c 7047     		bx	lr
 3398              	.L245:
 3399 001e 00BF     		.align	2
 3400              	.L244:
 3401 0020 00000880 		.word	-2146959360
 3402              		.cfi_endproc
 3403              	.LFE185:
 3405              		.section	.text.USB_HC_StartXfer,"ax",%progbits
 3406              		.align	2
 3407              		.global	USB_HC_StartXfer
 3408              		.thumb
 3409              		.thumb_func
 3411              	USB_HC_StartXfer:
 3412              	.LFB182:
1683:Drivers/STM32H7xx_HAL_Driver/Src/stm32h7xx_ll_usb.c ****   uint32_t USBx_BASE = (uint32_t)USBx;
 3413              		.loc 1 1683 0
 3414              		.cfi_startproc
 3415              		@ args = 0, pretend = 0, frame = 0
 3416              		@ frame_needed = 0, uses_anonymous_args = 0
 3417              	.LVL332:
 3418 0000 F0B5     		push	{r4, r5, r6, r7, lr}
 3419              	.LCFI51:
 3420              		.cfi_def_cfa_offset 20
 3421              		.cfi_offset 4, -20
 3422              		.cfi_offset 5, -16
 3423              		.cfi_offset 6, -12
 3424              		.cfi_offset 7, -8
 3425              		.cfi_offset 14, -4
 3426 0002 83B0     		sub	sp, sp, #12
 3427              	.LCFI52:
 3428              		.cfi_def_cfa_offset 32
 3429              	.LVL333:
1685:Drivers/STM32H7xx_HAL_Driver/Src/stm32h7xx_ll_usb.c ****   static __IO uint32_t tmpreg = 0U;
 3430              		.loc 1 1685 0
 3431 0004 4B78     		ldrb	r3, [r1, #1]	@ zero_extendqisi2
 3432              	.LVL334:
1692:Drivers/STM32H7xx_HAL_Driver/Src/stm32h7xx_ll_usb.c ****   {
 3433              		.loc 1 1692 0
 3434 0006 C46B     		ldr	r4, [r0, #60]
 3435 0008 14F4807F 		tst	r4, #256
 3436 000c 15D0     		beq	.L247
1692:Drivers/STM32H7xx_HAL_Driver/Src/stm32h7xx_ll_usb.c ****   {
 3437              		.loc 1 1692 0 is_stmt 0 discriminator 1
 3438 000e 0C79     		ldrb	r4, [r1, #4]	@ zero_extendqisi2
 3439 0010 9CB9     		cbnz	r4, .L247
1694:Drivers/STM32H7xx_HAL_Driver/Src/stm32h7xx_ll_usb.c ****     {
 3440              		.loc 1 1694 0 is_stmt 1
ARM GAS  C:\Users\xiaofei\AppData\Local\Temp\ccBH0Ic6.s 			page 101


 3441 0012 32B9     		cbnz	r2, .L248
1694:Drivers/STM32H7xx_HAL_Driver/Src/stm32h7xx_ll_usb.c ****     {
 3442              		.loc 1 1694 0 is_stmt 0 discriminator 1
 3443 0014 4C79     		ldrb	r4, [r1, #5]	@ zero_extendqisi2
 3444 0016 012C     		cmp	r4, #1
 3445 0018 03D1     		bne	.L248
1696:Drivers/STM32H7xx_HAL_Driver/Src/stm32h7xx_ll_usb.c ****       return HAL_OK;
 3446              		.loc 1 1696 0 is_stmt 1
 3447 001a 1946     		mov	r1, r3
 3448              	.LVL335:
 3449 001c FFF7FEFF 		bl	USB_DoPing
 3450              	.LVL336:
1697:Drivers/STM32H7xx_HAL_Driver/Src/stm32h7xx_ll_usb.c ****     }
 3451              		.loc 1 1697 0
 3452 0020 92E0     		b	.L249
 3453              	.LVL337:
 3454              	.L248:
1699:Drivers/STM32H7xx_HAL_Driver/Src/stm32h7xx_ll_usb.c ****     {
 3455              		.loc 1 1699 0
 3456 0022 012A     		cmp	r2, #1
 3457 0024 09D1     		bne	.L247
1701:Drivers/STM32H7xx_HAL_Driver/Src/stm32h7xx_ll_usb.c ****       hc->do_ping = 0U;
 3458              		.loc 1 1701 0
 3459 0026 00EB4314 		add	r4, r0, r3, lsl #5
 3460 002a D4F80C55 		ldr	r5, [r4, #1292]
 3461 002e 25F06005 		bic	r5, r5, #96
 3462 0032 C4F80C55 		str	r5, [r4, #1292]
1702:Drivers/STM32H7xx_HAL_Driver/Src/stm32h7xx_ll_usb.c ****     }
 3463              		.loc 1 1702 0
 3464 0036 0024     		movs	r4, #0
 3465 0038 4C71     		strb	r4, [r1, #5]
 3466              	.L247:
1711:Drivers/STM32H7xx_HAL_Driver/Src/stm32h7xx_ll_usb.c ****   {
 3467              		.loc 1 1711 0
 3468 003a 0C69     		ldr	r4, [r1, #16]
 3469 003c 6CB1     		cbz	r4, .L259
1713:Drivers/STM32H7xx_HAL_Driver/Src/stm32h7xx_ll_usb.c **** 
 3470              		.loc 1 1713 0
 3471 003e 0D89     		ldrh	r5, [r1, #8]
 3472 0040 2C44     		add	r4, r4, r5
 3473 0042 013C     		subs	r4, r4, #1
 3474 0044 B4FBF5F4 		udiv	r4, r4, r5
 3475 0048 A4B2     		uxth	r4, r4
 3476              	.LVL338:
1715:Drivers/STM32H7xx_HAL_Driver/Src/stm32h7xx_ll_usb.c ****     {
 3477              		.loc 1 1715 0
 3478 004a B4F5807F 		cmp	r4, #256
 3479 004e 05D9     		bls	.L250
 3480              	.LVL339:
1718:Drivers/STM32H7xx_HAL_Driver/Src/stm32h7xx_ll_usb.c ****     }
 3481              		.loc 1 1718 0
 3482 0050 2D02     		lsls	r5, r5, #8
 3483 0052 0D61     		str	r5, [r1, #16]
1717:Drivers/STM32H7xx_HAL_Driver/Src/stm32h7xx_ll_usb.c ****       hc->xfer_len = (uint32_t)num_packets * hc->max_packet;
 3484              		.loc 1 1717 0
 3485 0054 4FF48074 		mov	r4, #256
 3486 0058 00E0     		b	.L250
ARM GAS  C:\Users\xiaofei\AppData\Local\Temp\ccBH0Ic6.s 			page 102


 3487              	.LVL340:
 3488              	.L259:
1723:Drivers/STM32H7xx_HAL_Driver/Src/stm32h7xx_ll_usb.c ****   }
 3489              		.loc 1 1723 0
 3490 005a 0124     		movs	r4, #1
 3491              	.L250:
 3492              	.LVL341:
1725:Drivers/STM32H7xx_HAL_Driver/Src/stm32h7xx_ll_usb.c ****   {
 3493              		.loc 1 1725 0
 3494 005c CD78     		ldrb	r5, [r1, #3]	@ zero_extendqisi2
 3495 005e 1DB1     		cbz	r5, .L251
1727:Drivers/STM32H7xx_HAL_Driver/Src/stm32h7xx_ll_usb.c ****   }
 3496              		.loc 1 1727 0
 3497 0060 0D89     		ldrh	r5, [r1, #8]
 3498 0062 04FB05F5 		mul	r5, r4, r5
 3499 0066 0D61     		str	r5, [r1, #16]
 3500              	.L251:
1731:Drivers/STM32H7xx_HAL_Driver/Src/stm32h7xx_ll_usb.c ****                             (((uint32_t)num_packets << 19) & USB_OTG_HCTSIZ_PKTCNT) |
 3501              		.loc 1 1731 0
 3502 0068 00EB4313 		add	r3, r0, r3, lsl #5
 3503              	.LVL342:
 3504 006c 0D69     		ldr	r5, [r1, #16]
 3505 006e C5F31207 		ubfx	r7, r5, #0, #19
1732:Drivers/STM32H7xx_HAL_Driver/Src/stm32h7xx_ll_usb.c ****                             (((uint32_t)hc->data_pid << 29) & USB_OTG_HCTSIZ_DPID);
 3506              		.loc 1 1732 0
 3507 0072 374D     		ldr	r5, .L261
 3508 0074 05EAC444 		and	r4, r5, r4, lsl #19
 3509              	.LVL343:
1731:Drivers/STM32H7xx_HAL_Driver/Src/stm32h7xx_ll_usb.c ****                             (((uint32_t)num_packets << 19) & USB_OTG_HCTSIZ_PKTCNT) |
 3510              		.loc 1 1731 0
 3511 0078 3C43     		orrs	r4, r4, r7
1733:Drivers/STM32H7xx_HAL_Driver/Src/stm32h7xx_ll_usb.c **** 
 3512              		.loc 1 1733 0
 3513 007a 8D7A     		ldrb	r5, [r1, #10]	@ zero_extendqisi2
 3514 007c 6D07     		lsls	r5, r5, #29
 3515 007e 05F0C045 		and	r5, r5, #1610612736
1732:Drivers/STM32H7xx_HAL_Driver/Src/stm32h7xx_ll_usb.c ****                             (((uint32_t)hc->data_pid << 29) & USB_OTG_HCTSIZ_DPID);
 3516              		.loc 1 1732 0
 3517 0082 2C43     		orrs	r4, r4, r5
1731:Drivers/STM32H7xx_HAL_Driver/Src/stm32h7xx_ll_usb.c ****                             (((uint32_t)num_packets << 19) & USB_OTG_HCTSIZ_PKTCNT) |
 3518              		.loc 1 1731 0
 3519 0084 C3F81045 		str	r4, [r3, #1296]
1735:Drivers/STM32H7xx_HAL_Driver/Src/stm32h7xx_ll_usb.c ****   {
 3520              		.loc 1 1735 0
 3521 0088 12B1     		cbz	r2, .L252
1738:Drivers/STM32H7xx_HAL_Driver/Src/stm32h7xx_ll_usb.c ****   }
 3522              		.loc 1 1738 0
 3523 008a CC68     		ldr	r4, [r1, #12]
 3524 008c C3F81445 		str	r4, [r3, #1300]
 3525              	.L252:
1741:Drivers/STM32H7xx_HAL_Driver/Src/stm32h7xx_ll_usb.c ****   USBx_HC(ch_num)->HCCHAR &= ~USB_OTG_HCCHAR_ODDFRM;
 3526              		.loc 1 1741 0
 3527 0090 00F58066 		add	r6, r0, #1024
 3528 0094 B468     		ldr	r4, [r6, #8]
 3529 0096 14F0010F 		tst	r4, #1
 3530              	.LVL344:
1742:Drivers/STM32H7xx_HAL_Driver/Src/stm32h7xx_ll_usb.c ****   USBx_HC(ch_num)->HCCHAR |= (uint32_t)is_oddframe << 29;
ARM GAS  C:\Users\xiaofei\AppData\Local\Temp\ccBH0Ic6.s 			page 103


 3531              		.loc 1 1742 0
 3532 009a D3F80045 		ldr	r4, [r3, #1280]
 3533 009e 24F00054 		bic	r4, r4, #536870912
 3534 00a2 C3F80045 		str	r4, [r3, #1280]
1743:Drivers/STM32H7xx_HAL_Driver/Src/stm32h7xx_ll_usb.c **** 
 3535              		.loc 1 1743 0
 3536 00a6 D3F80055 		ldr	r5, [r3, #1280]
 3537 00aa 0CBF     		ite	eq
 3538 00ac 4FF00054 		moveq	r4, #536870912
 3539 00b0 0024     		movne	r4, #0
 3540 00b2 2C43     		orrs	r4, r4, r5
 3541 00b4 C3F80045 		str	r4, [r3, #1280]
1746:Drivers/STM32H7xx_HAL_Driver/Src/stm32h7xx_ll_usb.c ****   tmpreg &= ~USB_OTG_HCCHAR_CHDIS;
 3542              		.loc 1 1746 0
 3543 00b8 D3F80055 		ldr	r5, [r3, #1280]
 3544 00bc 254C     		ldr	r4, .L261+4
 3545 00be 2560     		str	r5, [r4]
1747:Drivers/STM32H7xx_HAL_Driver/Src/stm32h7xx_ll_usb.c **** 
 3546              		.loc 1 1747 0
 3547 00c0 2568     		ldr	r5, [r4]
 3548 00c2 25F08045 		bic	r5, r5, #1073741824
 3549 00c6 2560     		str	r5, [r4]
1750:Drivers/STM32H7xx_HAL_Driver/Src/stm32h7xx_ll_usb.c ****   {
 3550              		.loc 1 1750 0
 3551 00c8 CC78     		ldrb	r4, [r1, #3]	@ zero_extendqisi2
 3552 00ca 2CB1     		cbz	r4, .L253
 3553              	.LVL345:
1752:Drivers/STM32H7xx_HAL_Driver/Src/stm32h7xx_ll_usb.c ****   }
 3554              		.loc 1 1752 0
 3555 00cc 214D     		ldr	r5, .L261+4
 3556 00ce 2C68     		ldr	r4, [r5]
 3557 00d0 44F40044 		orr	r4, r4, #32768
 3558 00d4 2C60     		str	r4, [r5]
 3559 00d6 04E0     		b	.L254
 3560              	.L253:
1756:Drivers/STM32H7xx_HAL_Driver/Src/stm32h7xx_ll_usb.c ****   }
 3561              		.loc 1 1756 0
 3562 00d8 1E4D     		ldr	r5, .L261+4
 3563 00da 2C68     		ldr	r4, [r5]
 3564 00dc 24F40044 		bic	r4, r4, #32768
 3565 00e0 2C60     		str	r4, [r5]
 3566              	.L254:
1758:Drivers/STM32H7xx_HAL_Driver/Src/stm32h7xx_ll_usb.c ****   USBx_HC(ch_num)->HCCHAR = tmpreg;
 3567              		.loc 1 1758 0
 3568 00e2 1C4C     		ldr	r4, .L261+4
 3569 00e4 2568     		ldr	r5, [r4]
 3570 00e6 45F00045 		orr	r5, r5, #-2147483648
 3571 00ea 2560     		str	r5, [r4]
1759:Drivers/STM32H7xx_HAL_Driver/Src/stm32h7xx_ll_usb.c **** 
 3572              		.loc 1 1759 0
 3573 00ec 2468     		ldr	r4, [r4]
 3574 00ee C3F80045 		str	r4, [r3, #1280]
1761:Drivers/STM32H7xx_HAL_Driver/Src/stm32h7xx_ll_usb.c ****   {
 3575              		.loc 1 1761 0
 3576 00f2 4ABB     		cbnz	r2, .L249
1763:Drivers/STM32H7xx_HAL_Driver/Src/stm32h7xx_ll_usb.c ****     {
 3577              		.loc 1 1763 0
ARM GAS  C:\Users\xiaofei\AppData\Local\Temp\ccBH0Ic6.s 			page 104


 3578 00f4 CB78     		ldrb	r3, [r1, #3]	@ zero_extendqisi2
 3579 00f6 3BBB     		cbnz	r3, .L249
1763:Drivers/STM32H7xx_HAL_Driver/Src/stm32h7xx_ll_usb.c ****     {
 3580              		.loc 1 1763 0 is_stmt 0 discriminator 1
 3581 00f8 0B69     		ldr	r3, [r1, #16]
 3582 00fa 2BB3     		cbz	r3, .L249
1765:Drivers/STM32H7xx_HAL_Driver/Src/stm32h7xx_ll_usb.c ****       {
 3583              		.loc 1 1765 0 is_stmt 1
 3584 00fc CA79     		ldrb	r2, [r1, #7]	@ zero_extendqisi2
 3585              	.LVL346:
 3586 00fe 032A     		cmp	r2, #3
 3587 0100 1AD8     		bhi	.L255
 3588 0102 DFE802F0 		tbb	[pc, r2]
 3589              	.L257:
 3590 0106 02       		.byte	(.L256-.L257)/2
 3591 0107 0E       		.byte	(.L258-.L257)/2
 3592 0108 02       		.byte	(.L256-.L257)/2
 3593 0109 0E       		.byte	(.L258-.L257)/2
 3594              		.p2align 1
 3595              	.L256:
1771:Drivers/STM32H7xx_HAL_Driver/Src/stm32h7xx_ll_usb.c **** 
 3596              		.loc 1 1771 0
 3597 010a 0333     		adds	r3, r3, #3
 3598              	.LVL347:
1774:Drivers/STM32H7xx_HAL_Driver/Src/stm32h7xx_ll_usb.c ****           {
 3599              		.loc 1 1774 0
 3600 010c C26A     		ldr	r2, [r0, #44]
 3601 010e 92B2     		uxth	r2, r2
 3602 0110 C3F38F03 		ubfx	r3, r3, #2, #16
 3603              	.LVL348:
 3604 0114 9342     		cmp	r3, r2
 3605 0116 0FD9     		bls	.L255
1777:Drivers/STM32H7xx_HAL_Driver/Src/stm32h7xx_ll_usb.c ****           }
 3606              		.loc 1 1777 0
 3607 0118 8369     		ldr	r3, [r0, #24]
 3608 011a 43F02003 		orr	r3, r3, #32
 3609 011e 8361     		str	r3, [r0, #24]
 3610              	.LVL349:
 3611 0120 0AE0     		b	.L255
 3612              	.L258:
1784:Drivers/STM32H7xx_HAL_Driver/Src/stm32h7xx_ll_usb.c ****           /* check if there is enough space in FIFO space */
 3613              		.loc 1 1784 0
 3614 0122 0333     		adds	r3, r3, #3
 3615              	.LVL350:
1786:Drivers/STM32H7xx_HAL_Driver/Src/stm32h7xx_ll_usb.c ****           {
 3616              		.loc 1 1786 0
 3617 0124 3269     		ldr	r2, [r6, #16]
 3618 0126 92B2     		uxth	r2, r2
 3619 0128 C3F38F03 		ubfx	r3, r3, #2, #16
 3620              	.LVL351:
 3621 012c 9342     		cmp	r3, r2
 3622 012e 03D9     		bls	.L255
1789:Drivers/STM32H7xx_HAL_Driver/Src/stm32h7xx_ll_usb.c ****           }
 3623              		.loc 1 1789 0
 3624 0130 8369     		ldr	r3, [r0, #24]
 3625 0132 43F08063 		orr	r3, r3, #67108864
 3626 0136 8361     		str	r3, [r0, #24]
ARM GAS  C:\Users\xiaofei\AppData\Local\Temp\ccBH0Ic6.s 			page 105


 3627              	.LVL352:
 3628              	.L255:
1798:Drivers/STM32H7xx_HAL_Driver/Src/stm32h7xx_ll_usb.c ****     }
 3629              		.loc 1 1798 0
 3630 0138 CC68     		ldr	r4, [r1, #12]
 3631 013a 4A78     		ldrb	r2, [r1, #1]	@ zero_extendqisi2
 3632 013c 0B8A     		ldrh	r3, [r1, #16]
 3633 013e 0021     		movs	r1, #0
 3634              	.LVL353:
 3635 0140 0091     		str	r1, [sp]
 3636 0142 2146     		mov	r1, r4
 3637 0144 FFF7FEFF 		bl	USB_WritePacket
 3638              	.LVL354:
 3639              	.L249:
1803:Drivers/STM32H7xx_HAL_Driver/Src/stm32h7xx_ll_usb.c **** 
 3640              		.loc 1 1803 0
 3641 0148 0020     		movs	r0, #0
 3642 014a 03B0     		add	sp, sp, #12
 3643              	.LCFI53:
 3644              		.cfi_def_cfa_offset 20
 3645              		@ sp needed
 3646 014c F0BD     		pop	{r4, r5, r6, r7, pc}
 3647              	.L262:
 3648 014e 00BF     		.align	2
 3649              	.L261:
 3650 0150 0000F81F 		.word	536346624
 3651 0154 00000000 		.word	.LANCHOR0
 3652              		.cfi_endproc
 3653              	.LFE182:
 3655              		.section	.text.USB_StopHost,"ax",%progbits
 3656              		.align	2
 3657              		.global	USB_StopHost
 3658              		.thumb
 3659              		.thumb_func
 3661              	USB_StopHost:
 3662              	.LFB186:
1907:Drivers/STM32H7xx_HAL_Driver/Src/stm32h7xx_ll_usb.c **** 
1908:Drivers/STM32H7xx_HAL_Driver/Src/stm32h7xx_ll_usb.c **** /**
1909:Drivers/STM32H7xx_HAL_Driver/Src/stm32h7xx_ll_usb.c ****   * @brief  Stop Host Core
1910:Drivers/STM32H7xx_HAL_Driver/Src/stm32h7xx_ll_usb.c ****   * @param  USBx  Selected device
1911:Drivers/STM32H7xx_HAL_Driver/Src/stm32h7xx_ll_usb.c ****   * @retval HAL state
1912:Drivers/STM32H7xx_HAL_Driver/Src/stm32h7xx_ll_usb.c ****   */
1913:Drivers/STM32H7xx_HAL_Driver/Src/stm32h7xx_ll_usb.c **** HAL_StatusTypeDef USB_StopHost(USB_OTG_GlobalTypeDef *USBx)
1914:Drivers/STM32H7xx_HAL_Driver/Src/stm32h7xx_ll_usb.c **** {
 3663              		.loc 1 1914 0
 3664              		.cfi_startproc
 3665              		@ args = 0, pretend = 0, frame = 0
 3666              		@ frame_needed = 0, uses_anonymous_args = 0
 3667              	.LVL355:
 3668 0000 70B5     		push	{r4, r5, r6, lr}
 3669              	.LCFI54:
 3670              		.cfi_def_cfa_offset 16
 3671              		.cfi_offset 4, -16
 3672              		.cfi_offset 5, -12
 3673              		.cfi_offset 6, -8
 3674              		.cfi_offset 14, -4
 3675 0002 0546     		mov	r5, r0
ARM GAS  C:\Users\xiaofei\AppData\Local\Temp\ccBH0Ic6.s 			page 106


1915:Drivers/STM32H7xx_HAL_Driver/Src/stm32h7xx_ll_usb.c ****   uint32_t USBx_BASE = (uint32_t)USBx;
 3676              		.loc 1 1915 0
 3677 0004 0446     		mov	r4, r0
 3678              	.LVL356:
1916:Drivers/STM32H7xx_HAL_Driver/Src/stm32h7xx_ll_usb.c ****   uint32_t count = 0U;
1917:Drivers/STM32H7xx_HAL_Driver/Src/stm32h7xx_ll_usb.c ****   uint32_t value;
1918:Drivers/STM32H7xx_HAL_Driver/Src/stm32h7xx_ll_usb.c ****   uint32_t i;
1919:Drivers/STM32H7xx_HAL_Driver/Src/stm32h7xx_ll_usb.c **** 
1920:Drivers/STM32H7xx_HAL_Driver/Src/stm32h7xx_ll_usb.c ****   (void)USB_DisableGlobalInt(USBx);
 3679              		.loc 1 1920 0
 3680 0006 FFF7FEFF 		bl	USB_DisableGlobalInt
 3681              	.LVL357:
1921:Drivers/STM32H7xx_HAL_Driver/Src/stm32h7xx_ll_usb.c **** 
1922:Drivers/STM32H7xx_HAL_Driver/Src/stm32h7xx_ll_usb.c ****   /* Flush FIFO */
1923:Drivers/STM32H7xx_HAL_Driver/Src/stm32h7xx_ll_usb.c ****   (void)USB_FlushTxFifo(USBx, 0x10U);
 3682              		.loc 1 1923 0
 3683 000a 1021     		movs	r1, #16
 3684 000c 2846     		mov	r0, r5
 3685 000e FFF7FEFF 		bl	USB_FlushTxFifo
 3686              	.LVL358:
1924:Drivers/STM32H7xx_HAL_Driver/Src/stm32h7xx_ll_usb.c ****   (void)USB_FlushRxFifo(USBx);
 3687              		.loc 1 1924 0
 3688 0012 2846     		mov	r0, r5
 3689 0014 FFF7FEFF 		bl	USB_FlushRxFifo
 3690              	.LVL359:
1925:Drivers/STM32H7xx_HAL_Driver/Src/stm32h7xx_ll_usb.c **** 
1926:Drivers/STM32H7xx_HAL_Driver/Src/stm32h7xx_ll_usb.c ****   /* Flush out any leftover queued requests. */
1927:Drivers/STM32H7xx_HAL_Driver/Src/stm32h7xx_ll_usb.c ****   for (i = 0U; i <= 15U; i++)
 3691              		.loc 1 1927 0
 3692 0018 0022     		movs	r2, #0
 3693 001a 0AE0     		b	.L264
 3694              	.LVL360:
 3695              	.L265:
1928:Drivers/STM32H7xx_HAL_Driver/Src/stm32h7xx_ll_usb.c ****   {
1929:Drivers/STM32H7xx_HAL_Driver/Src/stm32h7xx_ll_usb.c ****     value = USBx_HC(i)->HCCHAR;
 3696              		.loc 1 1929 0 discriminator 3
 3697 001c 04EB4211 		add	r1, r4, r2, lsl #5
 3698 0020 D1F80035 		ldr	r3, [r1, #1280]
 3699              	.LVL361:
 3700 0024 23F08023 		bic	r3, r3, #-2147450880
 3701              	.LVL362:
1930:Drivers/STM32H7xx_HAL_Driver/Src/stm32h7xx_ll_usb.c ****     value |=  USB_OTG_HCCHAR_CHDIS;
1931:Drivers/STM32H7xx_HAL_Driver/Src/stm32h7xx_ll_usb.c ****     value &= ~USB_OTG_HCCHAR_CHENA;
1932:Drivers/STM32H7xx_HAL_Driver/Src/stm32h7xx_ll_usb.c ****     value &= ~USB_OTG_HCCHAR_EPDIR;
 3702              		.loc 1 1932 0 discriminator 3
 3703 0028 43F08043 		orr	r3, r3, #1073741824
 3704              	.LVL363:
1933:Drivers/STM32H7xx_HAL_Driver/Src/stm32h7xx_ll_usb.c ****     USBx_HC(i)->HCCHAR = value;
 3705              		.loc 1 1933 0 discriminator 3
 3706 002c C1F80035 		str	r3, [r1, #1280]
1927:Drivers/STM32H7xx_HAL_Driver/Src/stm32h7xx_ll_usb.c ****   {
 3707              		.loc 1 1927 0 discriminator 3
 3708 0030 0132     		adds	r2, r2, #1
 3709              	.LVL364:
 3710              	.L264:
1927:Drivers/STM32H7xx_HAL_Driver/Src/stm32h7xx_ll_usb.c ****   {
 3711              		.loc 1 1927 0 is_stmt 0 discriminator 1
ARM GAS  C:\Users\xiaofei\AppData\Local\Temp\ccBH0Ic6.s 			page 107


 3712 0032 0F2A     		cmp	r2, #15
 3713 0034 F2D9     		bls	.L265
 3714 0036 0020     		movs	r0, #0
 3715 0038 0346     		mov	r3, r0
 3716 003a 13E0     		b	.L266
 3717              	.LVL365:
 3718              	.L269:
1934:Drivers/STM32H7xx_HAL_Driver/Src/stm32h7xx_ll_usb.c ****   }
1935:Drivers/STM32H7xx_HAL_Driver/Src/stm32h7xx_ll_usb.c **** 
1936:Drivers/STM32H7xx_HAL_Driver/Src/stm32h7xx_ll_usb.c ****   /* Halt all channels to put them into a known state. */
1937:Drivers/STM32H7xx_HAL_Driver/Src/stm32h7xx_ll_usb.c ****   for (i = 0U; i <= 15U; i++)
1938:Drivers/STM32H7xx_HAL_Driver/Src/stm32h7xx_ll_usb.c ****   {
1939:Drivers/STM32H7xx_HAL_Driver/Src/stm32h7xx_ll_usb.c ****     value = USBx_HC(i)->HCCHAR;
 3719              		.loc 1 1939 0 is_stmt 1
 3720 003c 04EB4016 		add	r6, r4, r0, lsl #5
 3721 0040 06F5A061 		add	r1, r6, #1280
 3722 0044 D6F80025 		ldr	r2, [r6, #1280]
 3723              	.LVL366:
 3724 0048 22F40042 		bic	r2, r2, #32768
 3725              	.LVL367:
1940:Drivers/STM32H7xx_HAL_Driver/Src/stm32h7xx_ll_usb.c ****     value |= USB_OTG_HCCHAR_CHDIS;
1941:Drivers/STM32H7xx_HAL_Driver/Src/stm32h7xx_ll_usb.c ****     value |= USB_OTG_HCCHAR_CHENA;
1942:Drivers/STM32H7xx_HAL_Driver/Src/stm32h7xx_ll_usb.c ****     value &= ~USB_OTG_HCCHAR_EPDIR;
 3726              		.loc 1 1942 0
 3727 004c 42F04042 		orr	r2, r2, #-1073741824
 3728              	.LVL368:
1943:Drivers/STM32H7xx_HAL_Driver/Src/stm32h7xx_ll_usb.c ****     USBx_HC(i)->HCCHAR = value;
 3729              		.loc 1 1943 0
 3730 0050 C6F80025 		str	r2, [r6, #1280]
 3731              	.LVL369:
 3732              	.L268:
1944:Drivers/STM32H7xx_HAL_Driver/Src/stm32h7xx_ll_usb.c **** 
1945:Drivers/STM32H7xx_HAL_Driver/Src/stm32h7xx_ll_usb.c ****     do
1946:Drivers/STM32H7xx_HAL_Driver/Src/stm32h7xx_ll_usb.c ****     {
1947:Drivers/STM32H7xx_HAL_Driver/Src/stm32h7xx_ll_usb.c ****       if (++count > 1000U)
 3733              		.loc 1 1947 0
 3734 0054 0133     		adds	r3, r3, #1
 3735              	.LVL370:
 3736 0056 B3F57A7F 		cmp	r3, #1000
 3737 005a 02D8     		bhi	.L267
1948:Drivers/STM32H7xx_HAL_Driver/Src/stm32h7xx_ll_usb.c ****       {
1949:Drivers/STM32H7xx_HAL_Driver/Src/stm32h7xx_ll_usb.c ****         break;
1950:Drivers/STM32H7xx_HAL_Driver/Src/stm32h7xx_ll_usb.c ****       }
1951:Drivers/STM32H7xx_HAL_Driver/Src/stm32h7xx_ll_usb.c ****     }
1952:Drivers/STM32H7xx_HAL_Driver/Src/stm32h7xx_ll_usb.c ****     while ((USBx_HC(i)->HCCHAR & USB_OTG_HCCHAR_CHENA) == USB_OTG_HCCHAR_CHENA);
 3738              		.loc 1 1952 0
 3739 005c 0A68     		ldr	r2, [r1]
 3740 005e 002A     		cmp	r2, #0
 3741 0060 F8DB     		blt	.L268
 3742              	.L267:
1937:Drivers/STM32H7xx_HAL_Driver/Src/stm32h7xx_ll_usb.c ****   {
 3743              		.loc 1 1937 0 discriminator 2
 3744 0062 0130     		adds	r0, r0, #1
 3745              	.LVL371:
 3746              	.L266:
1937:Drivers/STM32H7xx_HAL_Driver/Src/stm32h7xx_ll_usb.c ****   {
 3747              		.loc 1 1937 0 is_stmt 0 discriminator 1
ARM GAS  C:\Users\xiaofei\AppData\Local\Temp\ccBH0Ic6.s 			page 108


 3748 0064 0F28     		cmp	r0, #15
 3749 0066 E9D9     		bls	.L269
1953:Drivers/STM32H7xx_HAL_Driver/Src/stm32h7xx_ll_usb.c ****   }
1954:Drivers/STM32H7xx_HAL_Driver/Src/stm32h7xx_ll_usb.c **** 
1955:Drivers/STM32H7xx_HAL_Driver/Src/stm32h7xx_ll_usb.c ****   /* Clear any pending Host interrupts */
1956:Drivers/STM32H7xx_HAL_Driver/Src/stm32h7xx_ll_usb.c ****   USBx_HOST->HAINT = 0xFFFFFFFFU;
 3750              		.loc 1 1956 0 is_stmt 1
 3751 0068 4FF0FF33 		mov	r3, #-1
 3752              	.LVL372:
 3753 006c C5F81434 		str	r3, [r5, #1044]
1957:Drivers/STM32H7xx_HAL_Driver/Src/stm32h7xx_ll_usb.c ****   USBx->GINTSTS = 0xFFFFFFFFU;
 3754              		.loc 1 1957 0
 3755 0070 6B61     		str	r3, [r5, #20]
1958:Drivers/STM32H7xx_HAL_Driver/Src/stm32h7xx_ll_usb.c **** 
1959:Drivers/STM32H7xx_HAL_Driver/Src/stm32h7xx_ll_usb.c ****   (void)USB_EnableGlobalInt(USBx);
 3756              		.loc 1 1959 0
 3757 0072 2846     		mov	r0, r5
 3758              	.LVL373:
 3759 0074 FFF7FEFF 		bl	USB_EnableGlobalInt
 3760              	.LVL374:
1960:Drivers/STM32H7xx_HAL_Driver/Src/stm32h7xx_ll_usb.c **** 
1961:Drivers/STM32H7xx_HAL_Driver/Src/stm32h7xx_ll_usb.c ****   return HAL_OK;
1962:Drivers/STM32H7xx_HAL_Driver/Src/stm32h7xx_ll_usb.c **** }
 3761              		.loc 1 1962 0
 3762 0078 0020     		movs	r0, #0
 3763 007a 70BD     		pop	{r4, r5, r6, pc}
 3764              		.cfi_endproc
 3765              	.LFE186:
 3767              		.section	.text.USB_ActivateRemoteWakeup,"ax",%progbits
 3768              		.align	2
 3769              		.global	USB_ActivateRemoteWakeup
 3770              		.thumb
 3771              		.thumb_func
 3773              	USB_ActivateRemoteWakeup:
 3774              	.LFB187:
1963:Drivers/STM32H7xx_HAL_Driver/Src/stm32h7xx_ll_usb.c **** 
1964:Drivers/STM32H7xx_HAL_Driver/Src/stm32h7xx_ll_usb.c **** /**
1965:Drivers/STM32H7xx_HAL_Driver/Src/stm32h7xx_ll_usb.c ****   * @brief  USB_ActivateRemoteWakeup active remote wakeup signalling
1966:Drivers/STM32H7xx_HAL_Driver/Src/stm32h7xx_ll_usb.c ****   * @param  USBx Selected device
1967:Drivers/STM32H7xx_HAL_Driver/Src/stm32h7xx_ll_usb.c ****   * @retval HAL status
1968:Drivers/STM32H7xx_HAL_Driver/Src/stm32h7xx_ll_usb.c ****   */
1969:Drivers/STM32H7xx_HAL_Driver/Src/stm32h7xx_ll_usb.c **** HAL_StatusTypeDef USB_ActivateRemoteWakeup(USB_OTG_GlobalTypeDef *USBx)
1970:Drivers/STM32H7xx_HAL_Driver/Src/stm32h7xx_ll_usb.c **** {
 3775              		.loc 1 1970 0
 3776              		.cfi_startproc
 3777              		@ args = 0, pretend = 0, frame = 0
 3778              		@ frame_needed = 0, uses_anonymous_args = 0
 3779              		@ link register save eliminated.
 3780              	.LVL375:
1971:Drivers/STM32H7xx_HAL_Driver/Src/stm32h7xx_ll_usb.c ****   uint32_t USBx_BASE = (uint32_t)USBx;
1972:Drivers/STM32H7xx_HAL_Driver/Src/stm32h7xx_ll_usb.c **** 
1973:Drivers/STM32H7xx_HAL_Driver/Src/stm32h7xx_ll_usb.c ****   if ((USBx_DEVICE->DSTS & USB_OTG_DSTS_SUSPSTS) == USB_OTG_DSTS_SUSPSTS)
 3781              		.loc 1 1973 0
 3782 0000 D0F80838 		ldr	r3, [r0, #2056]
 3783 0004 00F50060 		add	r0, r0, #2048
 3784              	.LVL376:
 3785 0008 13F0010F 		tst	r3, #1
ARM GAS  C:\Users\xiaofei\AppData\Local\Temp\ccBH0Ic6.s 			page 109


 3786 000c 03D0     		beq	.L272
1974:Drivers/STM32H7xx_HAL_Driver/Src/stm32h7xx_ll_usb.c ****   {
1975:Drivers/STM32H7xx_HAL_Driver/Src/stm32h7xx_ll_usb.c ****     /* active Remote wakeup signalling */
1976:Drivers/STM32H7xx_HAL_Driver/Src/stm32h7xx_ll_usb.c ****     USBx_DEVICE->DCTL |= USB_OTG_DCTL_RWUSIG;
 3787              		.loc 1 1976 0
 3788 000e 4368     		ldr	r3, [r0, #4]
 3789 0010 43F00103 		orr	r3, r3, #1
 3790 0014 4360     		str	r3, [r0, #4]
 3791              	.L272:
1977:Drivers/STM32H7xx_HAL_Driver/Src/stm32h7xx_ll_usb.c ****   }
1978:Drivers/STM32H7xx_HAL_Driver/Src/stm32h7xx_ll_usb.c **** 
1979:Drivers/STM32H7xx_HAL_Driver/Src/stm32h7xx_ll_usb.c ****   return HAL_OK;
1980:Drivers/STM32H7xx_HAL_Driver/Src/stm32h7xx_ll_usb.c **** }
 3792              		.loc 1 1980 0
 3793 0016 0020     		movs	r0, #0
 3794              	.LVL377:
 3795 0018 7047     		bx	lr
 3796              		.cfi_endproc
 3797              	.LFE187:
 3799 001a 00BF     		.section	.text.USB_DeActivateRemoteWakeup,"ax",%progbits
 3800              		.align	2
 3801              		.global	USB_DeActivateRemoteWakeup
 3802              		.thumb
 3803              		.thumb_func
 3805              	USB_DeActivateRemoteWakeup:
 3806              	.LFB188:
1981:Drivers/STM32H7xx_HAL_Driver/Src/stm32h7xx_ll_usb.c **** 
1982:Drivers/STM32H7xx_HAL_Driver/Src/stm32h7xx_ll_usb.c **** /**
1983:Drivers/STM32H7xx_HAL_Driver/Src/stm32h7xx_ll_usb.c ****   * @brief  USB_DeActivateRemoteWakeup de-active remote wakeup signalling
1984:Drivers/STM32H7xx_HAL_Driver/Src/stm32h7xx_ll_usb.c ****   * @param  USBx Selected device
1985:Drivers/STM32H7xx_HAL_Driver/Src/stm32h7xx_ll_usb.c ****   * @retval HAL status
1986:Drivers/STM32H7xx_HAL_Driver/Src/stm32h7xx_ll_usb.c ****   */
1987:Drivers/STM32H7xx_HAL_Driver/Src/stm32h7xx_ll_usb.c **** HAL_StatusTypeDef USB_DeActivateRemoteWakeup(USB_OTG_GlobalTypeDef *USBx)
1988:Drivers/STM32H7xx_HAL_Driver/Src/stm32h7xx_ll_usb.c **** {
 3807              		.loc 1 1988 0
 3808              		.cfi_startproc
 3809              		@ args = 0, pretend = 0, frame = 0
 3810              		@ frame_needed = 0, uses_anonymous_args = 0
 3811              		@ link register save eliminated.
 3812              	.LVL378:
1989:Drivers/STM32H7xx_HAL_Driver/Src/stm32h7xx_ll_usb.c ****   uint32_t USBx_BASE = (uint32_t)USBx;
1990:Drivers/STM32H7xx_HAL_Driver/Src/stm32h7xx_ll_usb.c **** 
1991:Drivers/STM32H7xx_HAL_Driver/Src/stm32h7xx_ll_usb.c ****   /* active Remote wakeup signalling */
1992:Drivers/STM32H7xx_HAL_Driver/Src/stm32h7xx_ll_usb.c ****   USBx_DEVICE->DCTL &= ~(USB_OTG_DCTL_RWUSIG);
 3813              		.loc 1 1992 0
 3814 0000 D0F80438 		ldr	r3, [r0, #2052]
 3815 0004 23F00103 		bic	r3, r3, #1
 3816 0008 C0F80438 		str	r3, [r0, #2052]
1993:Drivers/STM32H7xx_HAL_Driver/Src/stm32h7xx_ll_usb.c **** 
1994:Drivers/STM32H7xx_HAL_Driver/Src/stm32h7xx_ll_usb.c ****   return HAL_OK;
1995:Drivers/STM32H7xx_HAL_Driver/Src/stm32h7xx_ll_usb.c **** }
 3817              		.loc 1 1995 0
 3818 000c 0020     		movs	r0, #0
 3819              	.LVL379:
 3820 000e 7047     		bx	lr
 3821              		.cfi_endproc
 3822              	.LFE188:
ARM GAS  C:\Users\xiaofei\AppData\Local\Temp\ccBH0Ic6.s 			page 110


 3824              		.section	.bss.tmpreg.10069,"aw",%nobits
 3825              		.align	2
 3826              		.set	.LANCHOR0,. + 0
 3829              	tmpreg.10069:
 3830 0000 00000000 		.space	4
 3831              		.text
 3832              	.Letext0:
 3833              		.file 2 "d:\\program files (x86)\\gnu tools arm embedded\\5.4 2016q3\\arm-none-eabi\\include\\mach
 3834              		.file 3 "d:\\program files (x86)\\gnu tools arm embedded\\5.4 2016q3\\arm-none-eabi\\include\\sys\
 3835              		.file 4 "Drivers/CMSIS/Include/cmsis_gcc.h"
 3836              		.file 5 "Drivers/CMSIS/Device/ST/STM32H7xx/Include/stm32h750xx.h"
 3837              		.file 6 "Drivers/STM32H7xx_HAL_Driver/Inc/stm32h7xx_hal_def.h"
 3838              		.file 7 "Drivers/STM32H7xx_HAL_Driver/Inc/stm32h7xx_ll_usb.h"
 3839              		.file 8 "Drivers/CMSIS/Include/core_cm7.h"
 3840              		.file 9 "Drivers/STM32H7xx_HAL_Driver/Inc/stm32h7xx_hal.h"
ARM GAS  C:\Users\xiaofei\AppData\Local\Temp\ccBH0Ic6.s 			page 111


DEFINED SYMBOLS
                            *ABS*:00000000 stm32h7xx_ll_usb.c
C:\Users\xiaofei\AppData\Local\Temp\ccBH0Ic6.s:21     .text.USB_CoreReset:00000000 $t
C:\Users\xiaofei\AppData\Local\Temp\ccBH0Ic6.s:25     .text.USB_CoreReset:00000000 USB_CoreReset
C:\Users\xiaofei\AppData\Local\Temp\ccBH0Ic6.s:87     .text.USB_CoreReset:00000038 $d
C:\Users\xiaofei\AppData\Local\Temp\ccBH0Ic6.s:92     .text.USB_CoreInit:00000000 $t
C:\Users\xiaofei\AppData\Local\Temp\ccBH0Ic6.s:97     .text.USB_CoreInit:00000000 USB_CoreInit
C:\Users\xiaofei\AppData\Local\Temp\ccBH0Ic6.s:198    .text.USB_CoreInit:00000084 $d
C:\Users\xiaofei\AppData\Local\Temp\ccBH0Ic6.s:203    .text.USB_SetTurnaroundTime:00000000 $t
C:\Users\xiaofei\AppData\Local\Temp\ccBH0Ic6.s:208    .text.USB_SetTurnaroundTime:00000000 USB_SetTurnaroundTime
C:\Users\xiaofei\AppData\Local\Temp\ccBH0Ic6.s:358    .text.USB_SetTurnaroundTime:000000b8 $d
C:\Users\xiaofei\AppData\Local\Temp\ccBH0Ic6.s:375    .text.USB_EnableGlobalInt:00000000 $t
C:\Users\xiaofei\AppData\Local\Temp\ccBH0Ic6.s:380    .text.USB_EnableGlobalInt:00000000 USB_EnableGlobalInt
C:\Users\xiaofei\AppData\Local\Temp\ccBH0Ic6.s:400    .text.USB_DisableGlobalInt:00000000 $t
C:\Users\xiaofei\AppData\Local\Temp\ccBH0Ic6.s:405    .text.USB_DisableGlobalInt:00000000 USB_DisableGlobalInt
C:\Users\xiaofei\AppData\Local\Temp\ccBH0Ic6.s:425    .text.USB_SetCurrentMode:00000000 $t
C:\Users\xiaofei\AppData\Local\Temp\ccBH0Ic6.s:430    .text.USB_SetCurrentMode:00000000 USB_SetCurrentMode
C:\Users\xiaofei\AppData\Local\Temp\ccBH0Ic6.s:481    .text.USB_FlushTxFifo:00000000 $t
C:\Users\xiaofei\AppData\Local\Temp\ccBH0Ic6.s:486    .text.USB_FlushTxFifo:00000000 USB_FlushTxFifo
C:\Users\xiaofei\AppData\Local\Temp\ccBH0Ic6.s:527    .text.USB_FlushTxFifo:00000024 $d
C:\Users\xiaofei\AppData\Local\Temp\ccBH0Ic6.s:532    .text.USB_FlushRxFifo:00000000 $t
C:\Users\xiaofei\AppData\Local\Temp\ccBH0Ic6.s:537    .text.USB_FlushRxFifo:00000000 USB_FlushRxFifo
C:\Users\xiaofei\AppData\Local\Temp\ccBH0Ic6.s:576    .text.USB_FlushRxFifo:00000020 $d
C:\Users\xiaofei\AppData\Local\Temp\ccBH0Ic6.s:581    .text.USB_SetDevSpeed:00000000 $t
C:\Users\xiaofei\AppData\Local\Temp\ccBH0Ic6.s:586    .text.USB_SetDevSpeed:00000000 USB_SetDevSpeed
C:\Users\xiaofei\AppData\Local\Temp\ccBH0Ic6.s:607    .text.USB_DevInit:00000000 $t
C:\Users\xiaofei\AppData\Local\Temp\ccBH0Ic6.s:612    .text.USB_DevInit:00000000 USB_DevInit
C:\Users\xiaofei\AppData\Local\Temp\ccBH0Ic6.s:889    .text.USB_DevInit:00000184 $d
C:\Users\xiaofei\AppData\Local\Temp\ccBH0Ic6.s:895    .text.USB_GetDevSpeed:00000000 $t
C:\Users\xiaofei\AppData\Local\Temp\ccBH0Ic6.s:900    .text.USB_GetDevSpeed:00000000 USB_GetDevSpeed
C:\Users\xiaofei\AppData\Local\Temp\ccBH0Ic6.s:941    .text.USB_ActivateEndpoint:00000000 $t
C:\Users\xiaofei\AppData\Local\Temp\ccBH0Ic6.s:946    .text.USB_ActivateEndpoint:00000000 USB_ActivateEndpoint
C:\Users\xiaofei\AppData\Local\Temp\ccBH0Ic6.s:1042   .text.USB_ActivateEndpoint:00000090 $d
C:\Users\xiaofei\AppData\Local\Temp\ccBH0Ic6.s:1047   .text.USB_ActivateDedicatedEndpoint:00000000 $t
C:\Users\xiaofei\AppData\Local\Temp\ccBH0Ic6.s:1052   .text.USB_ActivateDedicatedEndpoint:00000000 USB_ActivateDedicatedEndpoint
C:\Users\xiaofei\AppData\Local\Temp\ccBH0Ic6.s:1152   .text.USB_ActivateDedicatedEndpoint:0000009c $d
C:\Users\xiaofei\AppData\Local\Temp\ccBH0Ic6.s:1157   .text.USB_DeactivateEndpoint:00000000 $t
C:\Users\xiaofei\AppData\Local\Temp\ccBH0Ic6.s:1162   .text.USB_DeactivateEndpoint:00000000 USB_DeactivateEndpoint
C:\Users\xiaofei\AppData\Local\Temp\ccBH0Ic6.s:1275   .text.USB_DeactivateEndpoint:000000d0 $d
C:\Users\xiaofei\AppData\Local\Temp\ccBH0Ic6.s:1281   .text.USB_DeactivateDedicatedEndpoint:00000000 $t
C:\Users\xiaofei\AppData\Local\Temp\ccBH0Ic6.s:1286   .text.USB_DeactivateDedicatedEndpoint:00000000 USB_DeactivateDedicatedEndpoint
C:\Users\xiaofei\AppData\Local\Temp\ccBH0Ic6.s:1390   .text.USB_EP0StartXfer:00000000 $t
C:\Users\xiaofei\AppData\Local\Temp\ccBH0Ic6.s:1395   .text.USB_EP0StartXfer:00000000 USB_EP0StartXfer
C:\Users\xiaofei\AppData\Local\Temp\ccBH0Ic6.s:1572   .text.USB_EP0StartXfer:00000110 $d
C:\Users\xiaofei\AppData\Local\Temp\ccBH0Ic6.s:1578   .text.USB_WritePacket:00000000 $t
C:\Users\xiaofei\AppData\Local\Temp\ccBH0Ic6.s:1583   .text.USB_WritePacket:00000000 USB_WritePacket
C:\Users\xiaofei\AppData\Local\Temp\ccBH0Ic6.s:1642   .text.USB_EPStartXfer:00000000 $t
C:\Users\xiaofei\AppData\Local\Temp\ccBH0Ic6.s:1647   .text.USB_EPStartXfer:00000000 USB_EPStartXfer
C:\Users\xiaofei\AppData\Local\Temp\ccBH0Ic6.s:1929   .text.USB_EPStartXfer:000001fc $d
C:\Users\xiaofei\AppData\Local\Temp\ccBH0Ic6.s:1936   .text.USB_ReadPacket:00000000 $t
C:\Users\xiaofei\AppData\Local\Temp\ccBH0Ic6.s:1941   .text.USB_ReadPacket:00000000 USB_ReadPacket
C:\Users\xiaofei\AppData\Local\Temp\ccBH0Ic6.s:1988   .text.USB_EPSetStall:00000000 $t
C:\Users\xiaofei\AppData\Local\Temp\ccBH0Ic6.s:1993   .text.USB_EPSetStall:00000000 USB_EPSetStall
C:\Users\xiaofei\AppData\Local\Temp\ccBH0Ic6.s:2057   .text.USB_EPClearStall:00000000 $t
C:\Users\xiaofei\AppData\Local\Temp\ccBH0Ic6.s:2062   .text.USB_EPClearStall:00000000 USB_EPClearStall
C:\Users\xiaofei\AppData\Local\Temp\ccBH0Ic6.s:2124   .text.USB_StopDevice:00000000 $t
C:\Users\xiaofei\AppData\Local\Temp\ccBH0Ic6.s:2129   .text.USB_StopDevice:00000000 USB_StopDevice
ARM GAS  C:\Users\xiaofei\AppData\Local\Temp\ccBH0Ic6.s 			page 112


C:\Users\xiaofei\AppData\Local\Temp\ccBH0Ic6.s:2195   .text.USB_SetDevAddress:00000000 $t
C:\Users\xiaofei\AppData\Local\Temp\ccBH0Ic6.s:2200   .text.USB_SetDevAddress:00000000 USB_SetDevAddress
C:\Users\xiaofei\AppData\Local\Temp\ccBH0Ic6.s:2227   .text.USB_DevConnect:00000000 $t
C:\Users\xiaofei\AppData\Local\Temp\ccBH0Ic6.s:2232   .text.USB_DevConnect:00000000 USB_DevConnect
C:\Users\xiaofei\AppData\Local\Temp\ccBH0Ic6.s:2261   .text.USB_DevDisconnect:00000000 $t
C:\Users\xiaofei\AppData\Local\Temp\ccBH0Ic6.s:2266   .text.USB_DevDisconnect:00000000 USB_DevDisconnect
C:\Users\xiaofei\AppData\Local\Temp\ccBH0Ic6.s:2295   .text.USB_ReadInterrupts:00000000 $t
C:\Users\xiaofei\AppData\Local\Temp\ccBH0Ic6.s:2300   .text.USB_ReadInterrupts:00000000 USB_ReadInterrupts
C:\Users\xiaofei\AppData\Local\Temp\ccBH0Ic6.s:2322   .text.USB_ReadDevAllOutEpInterrupt:00000000 $t
C:\Users\xiaofei\AppData\Local\Temp\ccBH0Ic6.s:2327   .text.USB_ReadDevAllOutEpInterrupt:00000000 USB_ReadDevAllOutEpInterrupt
C:\Users\xiaofei\AppData\Local\Temp\ccBH0Ic6.s:2352   .text.USB_ReadDevAllInEpInterrupt:00000000 $t
C:\Users\xiaofei\AppData\Local\Temp\ccBH0Ic6.s:2357   .text.USB_ReadDevAllInEpInterrupt:00000000 USB_ReadDevAllInEpInterrupt
C:\Users\xiaofei\AppData\Local\Temp\ccBH0Ic6.s:2382   .text.USB_ReadDevOutEPInterrupt:00000000 $t
C:\Users\xiaofei\AppData\Local\Temp\ccBH0Ic6.s:2387   .text.USB_ReadDevOutEPInterrupt:00000000 USB_ReadDevOutEPInterrupt
C:\Users\xiaofei\AppData\Local\Temp\ccBH0Ic6.s:2413   .text.USB_ReadDevInEPInterrupt:00000000 $t
C:\Users\xiaofei\AppData\Local\Temp\ccBH0Ic6.s:2418   .text.USB_ReadDevInEPInterrupt:00000000 USB_ReadDevInEPInterrupt
C:\Users\xiaofei\AppData\Local\Temp\ccBH0Ic6.s:2462   .text.USB_ClearInterrupts:00000000 $t
C:\Users\xiaofei\AppData\Local\Temp\ccBH0Ic6.s:2467   .text.USB_ClearInterrupts:00000000 USB_ClearInterrupts
C:\Users\xiaofei\AppData\Local\Temp\ccBH0Ic6.s:2485   .text.USB_GetMode:00000000 $t
C:\Users\xiaofei\AppData\Local\Temp\ccBH0Ic6.s:2490   .text.USB_GetMode:00000000 USB_GetMode
C:\Users\xiaofei\AppData\Local\Temp\ccBH0Ic6.s:2508   .text.USB_ActivateSetup:00000000 $t
C:\Users\xiaofei\AppData\Local\Temp\ccBH0Ic6.s:2513   .text.USB_ActivateSetup:00000000 USB_ActivateSetup
C:\Users\xiaofei\AppData\Local\Temp\ccBH0Ic6.s:2537   .text.USB_ActivateSetup:0000001c $d
C:\Users\xiaofei\AppData\Local\Temp\ccBH0Ic6.s:2542   .text.USB_EP0_OutStart:00000000 $t
C:\Users\xiaofei\AppData\Local\Temp\ccBH0Ic6.s:2547   .text.USB_EP0_OutStart:00000000 USB_EP0_OutStart
C:\Users\xiaofei\AppData\Local\Temp\ccBH0Ic6.s:2609   .text.USB_EP0_OutStart:00000058 $d
C:\Users\xiaofei\AppData\Local\Temp\ccBH0Ic6.s:2614   .text.USB_InitFSLSPClkSel:00000000 $t
C:\Users\xiaofei\AppData\Local\Temp\ccBH0Ic6.s:2619   .text.USB_InitFSLSPClkSel:00000000 USB_InitFSLSPClkSel
C:\Users\xiaofei\AppData\Local\Temp\ccBH0Ic6.s:2670   .text.USB_ResetPort:00000000 $t
C:\Users\xiaofei\AppData\Local\Temp\ccBH0Ic6.s:2675   .text.USB_ResetPort:00000000 USB_ResetPort
C:\Users\xiaofei\AppData\Local\Temp\ccBH0Ic6.s:2731   .text.USB_DriveVbus:00000000 $t
C:\Users\xiaofei\AppData\Local\Temp\ccBH0Ic6.s:2736   .text.USB_DriveVbus:00000000 USB_DriveVbus
C:\Users\xiaofei\AppData\Local\Temp\ccBH0Ic6.s:2793   .text.USB_HostInit:00000000 $t
C:\Users\xiaofei\AppData\Local\Temp\ccBH0Ic6.s:2798   .text.USB_HostInit:00000000 USB_HostInit
C:\Users\xiaofei\AppData\Local\Temp\ccBH0Ic6.s:2957   .text.USB_HostInit:000000e8 $d
C:\Users\xiaofei\AppData\Local\Temp\ccBH0Ic6.s:2964   .text.USB_GetHostSpeed:00000000 $t
C:\Users\xiaofei\AppData\Local\Temp\ccBH0Ic6.s:2969   .text.USB_GetHostSpeed:00000000 USB_GetHostSpeed
C:\Users\xiaofei\AppData\Local\Temp\ccBH0Ic6.s:3001   .text.USB_GetCurrentFrame:00000000 $t
C:\Users\xiaofei\AppData\Local\Temp\ccBH0Ic6.s:3006   .text.USB_GetCurrentFrame:00000000 USB_GetCurrentFrame
C:\Users\xiaofei\AppData\Local\Temp\ccBH0Ic6.s:3026   .text.USB_HC_Init:00000000 $t
C:\Users\xiaofei\AppData\Local\Temp\ccBH0Ic6.s:3031   .text.USB_HC_Init:00000000 USB_HC_Init
C:\Users\xiaofei\AppData\Local\Temp\ccBH0Ic6.s:3060   .text.USB_HC_Init:0000001e $d
C:\Users\xiaofei\AppData\Local\Temp\ccBH0Ic6.s:3064   .text.USB_HC_Init:00000022 $t
C:\Users\xiaofei\AppData\Local\Temp\ccBH0Ic6.s:3211   .text.USB_HC_ReadInterrupt:00000000 $t
C:\Users\xiaofei\AppData\Local\Temp\ccBH0Ic6.s:3216   .text.USB_HC_ReadInterrupt:00000000 USB_HC_ReadInterrupt
C:\Users\xiaofei\AppData\Local\Temp\ccBH0Ic6.s:3236   .text.USB_HC_Halt:00000000 $t
C:\Users\xiaofei\AppData\Local\Temp\ccBH0Ic6.s:3241   .text.USB_HC_Halt:00000000 USB_HC_Halt
C:\Users\xiaofei\AppData\Local\Temp\ccBH0Ic6.s:3365   .text.USB_DoPing:00000000 $t
C:\Users\xiaofei\AppData\Local\Temp\ccBH0Ic6.s:3370   .text.USB_DoPing:00000000 USB_DoPing
C:\Users\xiaofei\AppData\Local\Temp\ccBH0Ic6.s:3401   .text.USB_DoPing:00000020 $d
C:\Users\xiaofei\AppData\Local\Temp\ccBH0Ic6.s:3406   .text.USB_HC_StartXfer:00000000 $t
C:\Users\xiaofei\AppData\Local\Temp\ccBH0Ic6.s:3411   .text.USB_HC_StartXfer:00000000 USB_HC_StartXfer
C:\Users\xiaofei\AppData\Local\Temp\ccBH0Ic6.s:3590   .text.USB_HC_StartXfer:00000106 $d
C:\Users\xiaofei\AppData\Local\Temp\ccBH0Ic6.s:3594   .text.USB_HC_StartXfer:0000010a $t
C:\Users\xiaofei\AppData\Local\Temp\ccBH0Ic6.s:3650   .text.USB_HC_StartXfer:00000150 $d
C:\Users\xiaofei\AppData\Local\Temp\ccBH0Ic6.s:3656   .text.USB_StopHost:00000000 $t
C:\Users\xiaofei\AppData\Local\Temp\ccBH0Ic6.s:3661   .text.USB_StopHost:00000000 USB_StopHost
ARM GAS  C:\Users\xiaofei\AppData\Local\Temp\ccBH0Ic6.s 			page 113


C:\Users\xiaofei\AppData\Local\Temp\ccBH0Ic6.s:3768   .text.USB_ActivateRemoteWakeup:00000000 $t
C:\Users\xiaofei\AppData\Local\Temp\ccBH0Ic6.s:3773   .text.USB_ActivateRemoteWakeup:00000000 USB_ActivateRemoteWakeup
C:\Users\xiaofei\AppData\Local\Temp\ccBH0Ic6.s:3800   .text.USB_DeActivateRemoteWakeup:00000000 $t
C:\Users\xiaofei\AppData\Local\Temp\ccBH0Ic6.s:3805   .text.USB_DeActivateRemoteWakeup:00000000 USB_DeActivateRemoteWakeup
C:\Users\xiaofei\AppData\Local\Temp\ccBH0Ic6.s:3825   .bss.tmpreg.10069:00000000 $d
C:\Users\xiaofei\AppData\Local\Temp\ccBH0Ic6.s:3829   .bss.tmpreg.10069:00000000 tmpreg.10069
                     .debug_frame:00000010 $d

UNDEFINED SYMBOLS
HAL_Delay
