ARM GAS  C:\Users\xiaofei\AppData\Local\Temp\cciqkDQm.s 			page 1


   1              		.syntax unified
   2              		.cpu cortex-m7
   3              		.eabi_attribute 28, 1
   4              		.fpu fpv5-d16
   5              		.eabi_attribute 20, 1
   6              		.eabi_attribute 21, 1
   7              		.eabi_attribute 23, 3
   8              		.eabi_attribute 24, 1
   9              		.eabi_attribute 25, 1
  10              		.eabi_attribute 26, 1
  11              		.eabi_attribute 30, 1
  12              		.eabi_attribute 34, 1
  13              		.eabi_attribute 18, 4
  14              		.thumb
  15              		.syntax unified
  16              		.file	"stm32h7xx_hal_rcc_ex.c"
  17              		.section	.text.RCCEx_PLL2_Config,"ax",%progbits
  18              		.align	2
  19              		.thumb
  20              		.thumb_func
  22              	RCCEx_PLL2_Config:
  23              		@ args = 0, pretend = 0, frame = 0
  24              		@ frame_needed = 0, uses_anonymous_args = 0
  25 0000 424B     		ldr	r3, .L14
  26 0002 9B6A     		ldr	r3, [r3, #40]
  27 0004 03F00303 		and	r3, r3, #3
  28 0008 032B     		cmp	r3, #3
  29 000a 79D0     		beq	.L10
  30 000c 70B5     		push	{r4, r5, r6, lr}
  31 000e 0E46     		mov	r6, r1
  32 0010 0546     		mov	r5, r0
  33 0012 3E4A     		ldr	r2, .L14
  34 0014 1368     		ldr	r3, [r2]
  35 0016 23F08063 		bic	r3, r3, #67108864
  36 001a 1360     		str	r3, [r2]
  37 001c FFF7FEFF 		bl	HAL_GetTick
  38 0020 0446     		mov	r4, r0
  39 0022 04E0     		b	.L3
  40              	.L4:
  41 0024 FFF7FEFF 		bl	HAL_GetTick
  42 0028 001B     		subs	r0, r0, r4
  43 002a 0228     		cmp	r0, #2
  44 002c 6AD8     		bhi	.L11
  45              	.L3:
  46 002e 374B     		ldr	r3, .L14
  47 0030 1B68     		ldr	r3, [r3]
  48 0032 13F0006F 		tst	r3, #134217728
  49 0036 F5D1     		bne	.L4
  50 0038 344B     		ldr	r3, .L14
  51 003a 9A6A     		ldr	r2, [r3, #40]
  52 003c 22F47C32 		bic	r2, r2, #258048
  53 0040 2968     		ldr	r1, [r5]
  54 0042 42EA0132 		orr	r2, r2, r1, lsl #12
  55 0046 9A62     		str	r2, [r3, #40]
  56 0048 6A68     		ldr	r2, [r5, #4]
  57 004a 511E     		subs	r1, r2, #1
  58 004c C1F30801 		ubfx	r1, r1, #0, #9
ARM GAS  C:\Users\xiaofei\AppData\Local\Temp\cciqkDQm.s 			page 2


  59 0050 A868     		ldr	r0, [r5, #8]
  60 0052 421E     		subs	r2, r0, #1
  61 0054 5202     		lsls	r2, r2, #9
  62 0056 92B2     		uxth	r2, r2
  63 0058 41EA0200 		orr	r0, r1, r2
  64 005c E968     		ldr	r1, [r5, #12]
  65 005e 0139     		subs	r1, r1, #1
  66 0060 0904     		lsls	r1, r1, #16
  67 0062 01F4FE02 		and	r2, r1, #8323072
  68 0066 40EA0201 		orr	r1, r0, r2
  69 006a 2A69     		ldr	r2, [r5, #16]
  70 006c 013A     		subs	r2, r2, #1
  71 006e 1206     		lsls	r2, r2, #24
  72 0070 02F0FE42 		and	r2, r2, #2130706432
  73 0074 0A43     		orrs	r2, r2, r1
  74 0076 9A63     		str	r2, [r3, #56]
  75 0078 DA6A     		ldr	r2, [r3, #44]
  76 007a 22F0C001 		bic	r1, r2, #192
  77 007e 6A69     		ldr	r2, [r5, #20]
  78 0080 0A43     		orrs	r2, r2, r1
  79 0082 DA62     		str	r2, [r3, #44]
  80 0084 DA6A     		ldr	r2, [r3, #44]
  81 0086 22F02001 		bic	r1, r2, #32
  82 008a AA69     		ldr	r2, [r5, #24]
  83 008c 0A43     		orrs	r2, r2, r1
  84 008e DA62     		str	r2, [r3, #44]
  85 0090 DA6A     		ldr	r2, [r3, #44]
  86 0092 22F01002 		bic	r2, r2, #16
  87 0096 DA62     		str	r2, [r3, #44]
  88 0098 D96B     		ldr	r1, [r3, #60]
  89 009a 1D4A     		ldr	r2, .L14+4
  90 009c 0A40     		ands	r2, r2, r1
  91 009e E969     		ldr	r1, [r5, #28]
  92 00a0 42EAC102 		orr	r2, r2, r1, lsl #3
  93 00a4 DA63     		str	r2, [r3, #60]
  94 00a6 DA6A     		ldr	r2, [r3, #44]
  95 00a8 42F01002 		orr	r2, r2, #16
  96 00ac DA62     		str	r2, [r3, #44]
  97 00ae 2EB9     		cbnz	r6, .L5
  98 00b0 1A46     		mov	r2, r3
  99 00b2 DB6A     		ldr	r3, [r3, #44]
 100 00b4 43F40023 		orr	r3, r3, #524288
 101 00b8 D362     		str	r3, [r2, #44]
 102 00ba 0CE0     		b	.L6
 103              	.L5:
 104 00bc 012E     		cmp	r6, #1
 105 00be 05D1     		bne	.L7
 106 00c0 124A     		ldr	r2, .L14
 107 00c2 D36A     		ldr	r3, [r2, #44]
 108 00c4 43F48013 		orr	r3, r3, #1048576
 109 00c8 D362     		str	r3, [r2, #44]
 110 00ca 04E0     		b	.L6
 111              	.L7:
 112 00cc 0F4A     		ldr	r2, .L14
 113 00ce D36A     		ldr	r3, [r2, #44]
 114 00d0 43F40013 		orr	r3, r3, #2097152
 115 00d4 D362     		str	r3, [r2, #44]
ARM GAS  C:\Users\xiaofei\AppData\Local\Temp\cciqkDQm.s 			page 3


 116              	.L6:
 117 00d6 0D4A     		ldr	r2, .L14
 118 00d8 1368     		ldr	r3, [r2]
 119 00da 43F08063 		orr	r3, r3, #67108864
 120 00de 1360     		str	r3, [r2]
 121 00e0 FFF7FEFF 		bl	HAL_GetTick
 122 00e4 0446     		mov	r4, r0
 123 00e6 04E0     		b	.L8
 124              	.L9:
 125 00e8 FFF7FEFF 		bl	HAL_GetTick
 126 00ec 001B     		subs	r0, r0, r4
 127 00ee 0228     		cmp	r0, #2
 128 00f0 0AD8     		bhi	.L12
 129              	.L8:
 130 00f2 064B     		ldr	r3, .L14
 131 00f4 1B68     		ldr	r3, [r3]
 132 00f6 13F0006F 		tst	r3, #134217728
 133 00fa F5D0     		beq	.L9
 134 00fc 0020     		movs	r0, #0
 135 00fe 70BD     		pop	{r4, r5, r6, pc}
 136              	.L10:
 137 0100 0120     		movs	r0, #1
 138 0102 7047     		bx	lr
 139              	.L11:
 140 0104 0320     		movs	r0, #3
 141 0106 70BD     		pop	{r4, r5, r6, pc}
 142              	.L12:
 143 0108 0320     		movs	r0, #3
 144 010a 70BD     		pop	{r4, r5, r6, pc}
 145              	.L15:
 146              		.align	2
 147              	.L14:
 148 010c 00440258 		.word	1476543488
 149 0110 0700FFFF 		.word	-65529
 151              		.section	.text.RCCEx_PLL3_Config,"ax",%progbits
 152              		.align	2
 153              		.thumb
 154              		.thumb_func
 156              	RCCEx_PLL3_Config:
 157              		@ args = 0, pretend = 0, frame = 0
 158              		@ frame_needed = 0, uses_anonymous_args = 0
 159 0000 424B     		ldr	r3, .L29
 160 0002 9B6A     		ldr	r3, [r3, #40]
 161 0004 03F00303 		and	r3, r3, #3
 162 0008 032B     		cmp	r3, #3
 163 000a 79D0     		beq	.L25
 164 000c 70B5     		push	{r4, r5, r6, lr}
 165 000e 0E46     		mov	r6, r1
 166 0010 0546     		mov	r5, r0
 167 0012 3E4A     		ldr	r2, .L29
 168 0014 1368     		ldr	r3, [r2]
 169 0016 23F08053 		bic	r3, r3, #268435456
 170 001a 1360     		str	r3, [r2]
 171 001c FFF7FEFF 		bl	HAL_GetTick
 172 0020 0446     		mov	r4, r0
 173 0022 04E0     		b	.L18
 174              	.L19:
ARM GAS  C:\Users\xiaofei\AppData\Local\Temp\cciqkDQm.s 			page 4


 175 0024 FFF7FEFF 		bl	HAL_GetTick
 176 0028 001B     		subs	r0, r0, r4
 177 002a 0228     		cmp	r0, #2
 178 002c 6AD8     		bhi	.L26
 179              	.L18:
 180 002e 374B     		ldr	r3, .L29
 181 0030 1B68     		ldr	r3, [r3]
 182 0032 13F0005F 		tst	r3, #536870912
 183 0036 F5D1     		bne	.L19
 184 0038 344B     		ldr	r3, .L29
 185 003a 9A6A     		ldr	r2, [r3, #40]
 186 003c 22F07C72 		bic	r2, r2, #66060288
 187 0040 2968     		ldr	r1, [r5]
 188 0042 42EA0152 		orr	r2, r2, r1, lsl #20
 189 0046 9A62     		str	r2, [r3, #40]
 190 0048 6A68     		ldr	r2, [r5, #4]
 191 004a 511E     		subs	r1, r2, #1
 192 004c C1F30801 		ubfx	r1, r1, #0, #9
 193 0050 A868     		ldr	r0, [r5, #8]
 194 0052 421E     		subs	r2, r0, #1
 195 0054 5202     		lsls	r2, r2, #9
 196 0056 92B2     		uxth	r2, r2
 197 0058 41EA0200 		orr	r0, r1, r2
 198 005c E968     		ldr	r1, [r5, #12]
 199 005e 0139     		subs	r1, r1, #1
 200 0060 0904     		lsls	r1, r1, #16
 201 0062 01F4FE02 		and	r2, r1, #8323072
 202 0066 40EA0201 		orr	r1, r0, r2
 203 006a 2A69     		ldr	r2, [r5, #16]
 204 006c 013A     		subs	r2, r2, #1
 205 006e 1206     		lsls	r2, r2, #24
 206 0070 02F0FE42 		and	r2, r2, #2130706432
 207 0074 0A43     		orrs	r2, r2, r1
 208 0076 1A64     		str	r2, [r3, #64]
 209 0078 DA6A     		ldr	r2, [r3, #44]
 210 007a 22F44061 		bic	r1, r2, #3072
 211 007e 6A69     		ldr	r2, [r5, #20]
 212 0080 0A43     		orrs	r2, r2, r1
 213 0082 DA62     		str	r2, [r3, #44]
 214 0084 DA6A     		ldr	r2, [r3, #44]
 215 0086 22F40071 		bic	r1, r2, #512
 216 008a AA69     		ldr	r2, [r5, #24]
 217 008c 0A43     		orrs	r2, r2, r1
 218 008e DA62     		str	r2, [r3, #44]
 219 0090 DA6A     		ldr	r2, [r3, #44]
 220 0092 22F48072 		bic	r2, r2, #256
 221 0096 DA62     		str	r2, [r3, #44]
 222 0098 596C     		ldr	r1, [r3, #68]
 223 009a 1D4A     		ldr	r2, .L29+4
 224 009c 0A40     		ands	r2, r2, r1
 225 009e E969     		ldr	r1, [r5, #28]
 226 00a0 42EAC102 		orr	r2, r2, r1, lsl #3
 227 00a4 5A64     		str	r2, [r3, #68]
 228 00a6 DA6A     		ldr	r2, [r3, #44]
 229 00a8 42F48072 		orr	r2, r2, #256
 230 00ac DA62     		str	r2, [r3, #44]
 231 00ae 2EB9     		cbnz	r6, .L20
ARM GAS  C:\Users\xiaofei\AppData\Local\Temp\cciqkDQm.s 			page 5


 232 00b0 1A46     		mov	r2, r3
 233 00b2 DB6A     		ldr	r3, [r3, #44]
 234 00b4 43F48003 		orr	r3, r3, #4194304
 235 00b8 D362     		str	r3, [r2, #44]
 236 00ba 0CE0     		b	.L21
 237              	.L20:
 238 00bc 012E     		cmp	r6, #1
 239 00be 05D1     		bne	.L22
 240 00c0 124A     		ldr	r2, .L29
 241 00c2 D36A     		ldr	r3, [r2, #44]
 242 00c4 43F40003 		orr	r3, r3, #8388608
 243 00c8 D362     		str	r3, [r2, #44]
 244 00ca 04E0     		b	.L21
 245              	.L22:
 246 00cc 0F4A     		ldr	r2, .L29
 247 00ce D36A     		ldr	r3, [r2, #44]
 248 00d0 43F08073 		orr	r3, r3, #16777216
 249 00d4 D362     		str	r3, [r2, #44]
 250              	.L21:
 251 00d6 0D4A     		ldr	r2, .L29
 252 00d8 1368     		ldr	r3, [r2]
 253 00da 43F08053 		orr	r3, r3, #268435456
 254 00de 1360     		str	r3, [r2]
 255 00e0 FFF7FEFF 		bl	HAL_GetTick
 256 00e4 0446     		mov	r4, r0
 257 00e6 04E0     		b	.L23
 258              	.L24:
 259 00e8 FFF7FEFF 		bl	HAL_GetTick
 260 00ec 001B     		subs	r0, r0, r4
 261 00ee 0228     		cmp	r0, #2
 262 00f0 0AD8     		bhi	.L27
 263              	.L23:
 264 00f2 064B     		ldr	r3, .L29
 265 00f4 1B68     		ldr	r3, [r3]
 266 00f6 13F0005F 		tst	r3, #536870912
 267 00fa F5D0     		beq	.L24
 268 00fc 0020     		movs	r0, #0
 269 00fe 70BD     		pop	{r4, r5, r6, pc}
 270              	.L25:
 271 0100 0120     		movs	r0, #1
 272 0102 7047     		bx	lr
 273              	.L26:
 274 0104 0320     		movs	r0, #3
 275 0106 70BD     		pop	{r4, r5, r6, pc}
 276              	.L27:
 277 0108 0320     		movs	r0, #3
 278 010a 70BD     		pop	{r4, r5, r6, pc}
 279              	.L30:
 280              		.align	2
 281              	.L29:
 282 010c 00440258 		.word	1476543488
 283 0110 0700FFFF 		.word	-65529
 285              		.section	.text.HAL_RCCEx_PeriphCLKConfig,"ax",%progbits
 286              		.align	2
 287              		.global	HAL_RCCEx_PeriphCLKConfig
 288              		.thumb
 289              		.thumb_func
ARM GAS  C:\Users\xiaofei\AppData\Local\Temp\cciqkDQm.s 			page 6


 291              	HAL_RCCEx_PeriphCLKConfig:
 292              		@ args = 0, pretend = 0, frame = 0
 293              		@ frame_needed = 0, uses_anonymous_args = 0
 294 0000 F8B5     		push	{r3, r4, r5, r6, r7, lr}
 295 0002 0446     		mov	r4, r0
 296 0004 0368     		ldr	r3, [r0]
 297 0006 13F0006F 		tst	r3, #134217728
 298 000a 2CD0     		beq	.L179
 299 000c 436E     		ldr	r3, [r0, #100]
 300 000e B3F5801F 		cmp	r3, #1048576
 301 0012 11D0     		beq	.L34
 302 0014 01D8     		bhi	.L35
 303 0016 43B1     		cbz	r3, .L36
 304 0018 1AE0     		b	.L180
 305              	.L35:
 306 001a B3F5001F 		cmp	r3, #2097152
 307 001e 11D0     		beq	.L37
 308 0020 B3F5401F 		cmp	r3, #3145728
 309 0024 14D1     		bne	.L180
 310 0026 0025     		movs	r5, #0
 311 0028 13E0     		b	.L33
 312              	.L36:
 313 002a 9F4A     		ldr	r2, .L235
 314 002c D36A     		ldr	r3, [r2, #44]
 315 002e 43F40033 		orr	r3, r3, #131072
 316 0032 D362     		str	r3, [r2, #44]
 317 0034 0025     		movs	r5, #0
 318 0036 0CE0     		b	.L33
 319              	.L34:
 320 0038 0221     		movs	r1, #2
 321 003a 0430     		adds	r0, r0, #4
 322 003c FFF7FEFF 		bl	RCCEx_PLL2_Config
 323 0040 0546     		mov	r5, r0
 324 0042 06E0     		b	.L33
 325              	.L37:
 326 0044 0221     		movs	r1, #2
 327 0046 2430     		adds	r0, r0, #36
 328 0048 FFF7FEFF 		bl	RCCEx_PLL3_Config
 329 004c 0546     		mov	r5, r0
 330 004e 00E0     		b	.L33
 331              	.L180:
 332 0050 0125     		movs	r5, #1
 333              	.L33:
 334 0052 5DB9     		cbnz	r5, .L181
 335 0054 9449     		ldr	r1, .L235
 336 0056 0B6D     		ldr	r3, [r1, #80]
 337 0058 23F44012 		bic	r2, r3, #3145728
 338 005c 636E     		ldr	r3, [r4, #100]
 339 005e 1343     		orrs	r3, r3, r2
 340 0060 0B65     		str	r3, [r1, #80]
 341 0062 2E46     		mov	r6, r5
 342 0064 03E0     		b	.L32
 343              	.L179:
 344 0066 0026     		movs	r6, #0
 345 0068 3546     		mov	r5, r6
 346 006a 00E0     		b	.L32
 347              	.L181:
ARM GAS  C:\Users\xiaofei\AppData\Local\Temp\cciqkDQm.s 			page 7


 348 006c 2E46     		mov	r6, r5
 349              	.L32:
 350 006e 2368     		ldr	r3, [r4]
 351 0070 13F4807F 		tst	r3, #256
 352 0074 25D0     		beq	.L39
 353 0076 636D     		ldr	r3, [r4, #84]
 354 0078 042B     		cmp	r3, #4
 355 007a 17D8     		bhi	.L182
 356 007c DFE803F0 		tbb	[pc, r3]
 357              	.L42:
 358 0080 03       		.byte	(.L41-.L42)/2
 359 0081 09       		.byte	(.L43-.L42)/2
 360 0082 0F       		.byte	(.L44-.L42)/2
 361 0083 17       		.byte	(.L40-.L42)/2
 362 0084 17       		.byte	(.L40-.L42)/2
 363 0085 00       		.p2align 1
 364              	.L41:
 365 0086 884A     		ldr	r2, .L235
 366 0088 D36A     		ldr	r3, [r2, #44]
 367 008a 43F40033 		orr	r3, r3, #131072
 368 008e D362     		str	r3, [r2, #44]
 369 0090 0DE0     		b	.L40
 370              	.L43:
 371 0092 0021     		movs	r1, #0
 372 0094 201D     		adds	r0, r4, #4
 373 0096 FFF7FEFF 		bl	RCCEx_PLL2_Config
 374 009a 0546     		mov	r5, r0
 375 009c 07E0     		b	.L40
 376              	.L44:
 377 009e 0021     		movs	r1, #0
 378 00a0 04F12400 		add	r0, r4, #36
 379 00a4 FFF7FEFF 		bl	RCCEx_PLL3_Config
 380 00a8 0546     		mov	r5, r0
 381 00aa 00E0     		b	.L40
 382              	.L182:
 383 00ac 0125     		movs	r5, #1
 384              	.L40:
 385 00ae 3DB9     		cbnz	r5, .L183
 386 00b0 7D49     		ldr	r1, .L235
 387 00b2 0B6D     		ldr	r3, [r1, #80]
 388 00b4 23F00702 		bic	r2, r3, #7
 389 00b8 636D     		ldr	r3, [r4, #84]
 390 00ba 1343     		orrs	r3, r3, r2
 391 00bc 0B65     		str	r3, [r1, #80]
 392 00be 00E0     		b	.L39
 393              	.L183:
 394 00c0 2E46     		mov	r6, r5
 395              	.L39:
 396 00c2 2368     		ldr	r3, [r4]
 397 00c4 13F4007F 		tst	r3, #512
 398 00c8 2BD0     		beq	.L46
 399 00ca A36D     		ldr	r3, [r4, #88]
 400 00cc 802B     		cmp	r3, #128
 401 00ce 16D0     		beq	.L48
 402 00d0 03D8     		bhi	.L49
 403 00d2 43B1     		cbz	r3, .L50
 404 00d4 402B     		cmp	r3, #64
ARM GAS  C:\Users\xiaofei\AppData\Local\Temp\cciqkDQm.s 			page 8


 405 00d6 0CD0     		beq	.L51
 406 00d8 18E0     		b	.L184
 407              	.L49:
 408 00da C02B     		cmp	r3, #192
 409 00dc 17D0     		beq	.L47
 410 00de B3F5807F 		cmp	r3, #256
 411 00e2 14D0     		beq	.L47
 412 00e4 12E0     		b	.L184
 413              	.L50:
 414 00e6 704A     		ldr	r2, .L235
 415 00e8 D36A     		ldr	r3, [r2, #44]
 416 00ea 43F40033 		orr	r3, r3, #131072
 417 00ee D362     		str	r3, [r2, #44]
 418 00f0 0DE0     		b	.L47
 419              	.L51:
 420 00f2 0021     		movs	r1, #0
 421 00f4 201D     		adds	r0, r4, #4
 422 00f6 FFF7FEFF 		bl	RCCEx_PLL2_Config
 423 00fa 0546     		mov	r5, r0
 424 00fc 07E0     		b	.L47
 425              	.L48:
 426 00fe 0021     		movs	r1, #0
 427 0100 04F12400 		add	r0, r4, #36
 428 0104 FFF7FEFF 		bl	RCCEx_PLL3_Config
 429 0108 0546     		mov	r5, r0
 430 010a 00E0     		b	.L47
 431              	.L184:
 432 010c 0125     		movs	r5, #1
 433              	.L47:
 434 010e 3DB9     		cbnz	r5, .L185
 435 0110 6549     		ldr	r1, .L235
 436 0112 0B6D     		ldr	r3, [r1, #80]
 437 0114 23F4E072 		bic	r2, r3, #448
 438 0118 A36D     		ldr	r3, [r4, #88]
 439 011a 1343     		orrs	r3, r3, r2
 440 011c 0B65     		str	r3, [r1, #80]
 441 011e 00E0     		b	.L46
 442              	.L185:
 443 0120 2E46     		mov	r6, r5
 444              	.L46:
 445 0122 2368     		ldr	r3, [r4]
 446 0124 13F4806F 		tst	r3, #1024
 447 0128 30D0     		beq	.L53
 448 012a D4F8A430 		ldr	r3, [r4, #164]
 449 012e B3F5800F 		cmp	r3, #4194304
 450 0132 18D0     		beq	.L55
 451 0134 04D8     		bhi	.L56
 452 0136 53B1     		cbz	r3, .L57
 453 0138 B3F5001F 		cmp	r3, #2097152
 454 013c 0DD0     		beq	.L58
 455 013e 19E0     		b	.L186
 456              	.L56:
 457 0140 B3F5C00F 		cmp	r3, #6291456
 458 0144 17D0     		beq	.L54
 459 0146 B3F5000F 		cmp	r3, #8388608
 460 014a 14D0     		beq	.L54
 461 014c 12E0     		b	.L186
ARM GAS  C:\Users\xiaofei\AppData\Local\Temp\cciqkDQm.s 			page 9


 462              	.L57:
 463 014e 564A     		ldr	r2, .L235
 464 0150 D36A     		ldr	r3, [r2, #44]
 465 0152 43F40033 		orr	r3, r3, #131072
 466 0156 D362     		str	r3, [r2, #44]
 467 0158 0DE0     		b	.L54
 468              	.L58:
 469 015a 0021     		movs	r1, #0
 470 015c 201D     		adds	r0, r4, #4
 471 015e FFF7FEFF 		bl	RCCEx_PLL2_Config
 472 0162 0546     		mov	r5, r0
 473 0164 07E0     		b	.L54
 474              	.L55:
 475 0166 0021     		movs	r1, #0
 476 0168 04F12400 		add	r0, r4, #36
 477 016c FFF7FEFF 		bl	RCCEx_PLL3_Config
 478 0170 0546     		mov	r5, r0
 479 0172 00E0     		b	.L54
 480              	.L186:
 481 0174 0125     		movs	r5, #1
 482              	.L54:
 483 0176 45B9     		cbnz	r5, .L187
 484 0178 4B49     		ldr	r1, .L235
 485 017a 8B6D     		ldr	r3, [r1, #88]
 486 017c 23F46002 		bic	r2, r3, #14680064
 487 0180 D4F8A430 		ldr	r3, [r4, #164]
 488 0184 1343     		orrs	r3, r3, r2
 489 0186 8B65     		str	r3, [r1, #88]
 490 0188 00E0     		b	.L53
 491              	.L187:
 492 018a 2E46     		mov	r6, r5
 493              	.L53:
 494 018c 2368     		ldr	r3, [r4]
 495 018e 13F4006F 		tst	r3, #2048
 496 0192 30D0     		beq	.L60
 497 0194 D4F8A830 		ldr	r3, [r4, #168]
 498 0198 B3F1007F 		cmp	r3, #33554432
 499 019c 18D0     		beq	.L62
 500 019e 04D8     		bhi	.L63
 501 01a0 53B1     		cbz	r3, .L64
 502 01a2 B3F1807F 		cmp	r3, #16777216
 503 01a6 0DD0     		beq	.L65
 504 01a8 19E0     		b	.L188
 505              	.L63:
 506 01aa B3F1407F 		cmp	r3, #50331648
 507 01ae 17D0     		beq	.L61
 508 01b0 B3F1806F 		cmp	r3, #67108864
 509 01b4 14D0     		beq	.L61
 510 01b6 12E0     		b	.L188
 511              	.L64:
 512 01b8 3B4A     		ldr	r2, .L235
 513 01ba D36A     		ldr	r3, [r2, #44]
 514 01bc 43F40033 		orr	r3, r3, #131072
 515 01c0 D362     		str	r3, [r2, #44]
 516 01c2 0DE0     		b	.L61
 517              	.L65:
 518 01c4 0021     		movs	r1, #0
ARM GAS  C:\Users\xiaofei\AppData\Local\Temp\cciqkDQm.s 			page 10


 519 01c6 201D     		adds	r0, r4, #4
 520 01c8 FFF7FEFF 		bl	RCCEx_PLL2_Config
 521 01cc 0546     		mov	r5, r0
 522 01ce 07E0     		b	.L61
 523              	.L62:
 524 01d0 0021     		movs	r1, #0
 525 01d2 04F12400 		add	r0, r4, #36
 526 01d6 FFF7FEFF 		bl	RCCEx_PLL3_Config
 527 01da 0546     		mov	r5, r0
 528 01dc 00E0     		b	.L61
 529              	.L188:
 530 01de 0125     		movs	r5, #1
 531              	.L61:
 532 01e0 45B9     		cbnz	r5, .L189
 533 01e2 3149     		ldr	r1, .L235
 534 01e4 8B6D     		ldr	r3, [r1, #88]
 535 01e6 23F0E062 		bic	r2, r3, #117440512
 536 01ea D4F8A830 		ldr	r3, [r4, #168]
 537 01ee 1343     		orrs	r3, r3, r2
 538 01f0 8B65     		str	r3, [r1, #88]
 539 01f2 00E0     		b	.L60
 540              	.L189:
 541 01f4 2E46     		mov	r6, r5
 542              	.L60:
 543 01f6 2368     		ldr	r3, [r4]
 544 01f8 13F0007F 		tst	r3, #33554432
 545 01fc 21D0     		beq	.L67
 546 01fe A36C     		ldr	r3, [r4, #72]
 547 0200 102B     		cmp	r3, #16
 548 0202 07D0     		beq	.L69
 549 0204 01D8     		bhi	.L70
 550 0206 93B1     		cbz	r3, .L68
 551 0208 10E0     		b	.L190
 552              	.L70:
 553 020a 202B     		cmp	r3, #32
 554 020c 08D0     		beq	.L72
 555 020e 302B     		cmp	r3, #48
 556 0210 0DD0     		beq	.L68
 557 0212 0BE0     		b	.L190
 558              	.L69:
 559 0214 244A     		ldr	r2, .L235
 560 0216 D36A     		ldr	r3, [r2, #44]
 561 0218 43F40033 		orr	r3, r3, #131072
 562 021c D362     		str	r3, [r2, #44]
 563 021e 06E0     		b	.L68
 564              	.L72:
 565 0220 0221     		movs	r1, #2
 566 0222 201D     		adds	r0, r4, #4
 567 0224 FFF7FEFF 		bl	RCCEx_PLL2_Config
 568 0228 0546     		mov	r5, r0
 569 022a 00E0     		b	.L68
 570              	.L190:
 571 022c 0125     		movs	r5, #1
 572              	.L68:
 573 022e 3DB9     		cbnz	r5, .L191
 574 0230 1D49     		ldr	r1, .L235
 575 0232 CB6C     		ldr	r3, [r1, #76]
ARM GAS  C:\Users\xiaofei\AppData\Local\Temp\cciqkDQm.s 			page 11


 576 0234 23F03002 		bic	r2, r3, #48
 577 0238 A36C     		ldr	r3, [r4, #72]
 578 023a 1343     		orrs	r3, r3, r2
 579 023c CB64     		str	r3, [r1, #76]
 580 023e 00E0     		b	.L67
 581              	.L191:
 582 0240 2E46     		mov	r6, r5
 583              	.L67:
 584 0242 2368     		ldr	r3, [r4]
 585 0244 13F4805F 		tst	r3, #4096
 586 0248 31D0     		beq	.L73
 587 024a E36D     		ldr	r3, [r4, #92]
 588 024c B3F5005F 		cmp	r3, #8192
 589 0250 18D0     		beq	.L75
 590 0252 04D8     		bhi	.L76
 591 0254 53B1     		cbz	r3, .L77
 592 0256 B3F5805F 		cmp	r3, #4096
 593 025a 0DD0     		beq	.L78
 594 025c 19E0     		b	.L192
 595              	.L76:
 596 025e B3F5405F 		cmp	r3, #12288
 597 0262 17D0     		beq	.L74
 598 0264 B3F5804F 		cmp	r3, #16384
 599 0268 14D0     		beq	.L74
 600 026a 12E0     		b	.L192
 601              	.L77:
 602 026c 0E4A     		ldr	r2, .L235
 603 026e D36A     		ldr	r3, [r2, #44]
 604 0270 43F40033 		orr	r3, r3, #131072
 605 0274 D362     		str	r3, [r2, #44]
 606 0276 0DE0     		b	.L74
 607              	.L78:
 608 0278 0021     		movs	r1, #0
 609 027a 201D     		adds	r0, r4, #4
 610 027c FFF7FEFF 		bl	RCCEx_PLL2_Config
 611 0280 0546     		mov	r5, r0
 612 0282 07E0     		b	.L74
 613              	.L75:
 614 0284 0021     		movs	r1, #0
 615 0286 04F12400 		add	r0, r4, #36
 616 028a FFF7FEFF 		bl	RCCEx_PLL3_Config
 617 028e 0546     		mov	r5, r0
 618 0290 00E0     		b	.L74
 619              	.L192:
 620 0292 0125     		movs	r5, #1
 621              	.L74:
 622 0294 55B9     		cbnz	r5, .L193
 623 0296 0449     		ldr	r1, .L235
 624 0298 0B6D     		ldr	r3, [r1, #80]
 625 029a 23F4E042 		bic	r2, r3, #28672
 626 029e E36D     		ldr	r3, [r4, #92]
 627 02a0 1343     		orrs	r3, r3, r2
 628 02a2 0B65     		str	r3, [r1, #80]
 629 02a4 03E0     		b	.L73
 630              	.L236:
 631 02a6 00BF     		.align	2
 632              	.L235:
ARM GAS  C:\Users\xiaofei\AppData\Local\Temp\cciqkDQm.s 			page 12


 633 02a8 00440258 		.word	1476543488
 634              	.L193:
 635 02ac 2E46     		mov	r6, r5
 636              	.L73:
 637 02ae 2368     		ldr	r3, [r4]
 638 02b0 13F4005F 		tst	r3, #8192
 639 02b4 2BD0     		beq	.L80
 640 02b6 236E     		ldr	r3, [r4, #96]
 641 02b8 B3F5003F 		cmp	r3, #131072
 642 02bc 15D0     		beq	.L82
 643 02be 04D8     		bhi	.L83
 644 02c0 DBB1     		cbz	r3, .L81
 645 02c2 B3F5803F 		cmp	r3, #65536
 646 02c6 0AD0     		beq	.L85
 647 02c8 16E0     		b	.L194
 648              	.L83:
 649 02ca B3F5802F 		cmp	r3, #262144
 650 02ce 14D0     		beq	.L81
 651 02d0 B3F5A02F 		cmp	r3, #327680
 652 02d4 11D0     		beq	.L81
 653 02d6 B3F5403F 		cmp	r3, #196608
 654 02da 0DD1     		bne	.L194
 655 02dc 0DE0     		b	.L81
 656              	.L85:
 657 02de 0121     		movs	r1, #1
 658 02e0 201D     		adds	r0, r4, #4
 659 02e2 FFF7FEFF 		bl	RCCEx_PLL2_Config
 660 02e6 0546     		mov	r5, r0
 661 02e8 07E0     		b	.L81
 662              	.L82:
 663 02ea 0121     		movs	r1, #1
 664 02ec 04F12400 		add	r0, r4, #36
 665 02f0 FFF7FEFF 		bl	RCCEx_PLL3_Config
 666 02f4 0546     		mov	r5, r0
 667 02f6 00E0     		b	.L81
 668              	.L194:
 669 02f8 0125     		movs	r5, #1
 670              	.L81:
 671 02fa 3DB9     		cbnz	r5, .L195
 672 02fc 8F49     		ldr	r1, .L237
 673 02fe 0B6D     		ldr	r3, [r1, #80]
 674 0300 23F4E022 		bic	r2, r3, #458752
 675 0304 236E     		ldr	r3, [r4, #96]
 676 0306 1343     		orrs	r3, r3, r2
 677 0308 0B65     		str	r3, [r1, #80]
 678 030a 00E0     		b	.L80
 679              	.L195:
 680 030c 2E46     		mov	r6, r5
 681              	.L80:
 682 030e 2368     		ldr	r3, [r4]
 683 0310 13F4804F 		tst	r3, #16384
 684 0314 2DD0     		beq	.L86
 685 0316 D4F8AC30 		ldr	r3, [r4, #172]
 686 031a B3F1005F 		cmp	r3, #536870912
 687 031e 15D0     		beq	.L88
 688 0320 04D8     		bhi	.L89
 689 0322 DBB1     		cbz	r3, .L87
ARM GAS  C:\Users\xiaofei\AppData\Local\Temp\cciqkDQm.s 			page 13


 690 0324 B3F1805F 		cmp	r3, #268435456
 691 0328 0AD0     		beq	.L91
 692 032a 16E0     		b	.L196
 693              	.L89:
 694 032c B3F1804F 		cmp	r3, #1073741824
 695 0330 14D0     		beq	.L87
 696 0332 B3F1A04F 		cmp	r3, #1342177280
 697 0336 11D0     		beq	.L87
 698 0338 B3F1405F 		cmp	r3, #805306368
 699 033c 0DD1     		bne	.L196
 700 033e 0DE0     		b	.L87
 701              	.L91:
 702 0340 0121     		movs	r1, #1
 703 0342 201D     		adds	r0, r4, #4
 704 0344 FFF7FEFF 		bl	RCCEx_PLL2_Config
 705 0348 0546     		mov	r5, r0
 706 034a 07E0     		b	.L87
 707              	.L88:
 708 034c 0121     		movs	r1, #1
 709 034e 04F12400 		add	r0, r4, #36
 710 0352 FFF7FEFF 		bl	RCCEx_PLL3_Config
 711 0356 0546     		mov	r5, r0
 712 0358 00E0     		b	.L87
 713              	.L196:
 714 035a 0125     		movs	r5, #1
 715              	.L87:
 716 035c 45B9     		cbnz	r5, .L197
 717 035e 7749     		ldr	r1, .L237
 718 0360 8B6D     		ldr	r3, [r1, #88]
 719 0362 23F0E042 		bic	r2, r3, #1879048192
 720 0366 D4F8AC30 		ldr	r3, [r4, #172]
 721 036a 1343     		orrs	r3, r3, r2
 722 036c 8B65     		str	r3, [r1, #88]
 723 036e 00E0     		b	.L86
 724              	.L197:
 725 0370 2E46     		mov	r6, r5
 726              	.L86:
 727 0372 2368     		ldr	r3, [r4]
 728 0374 13F4004F 		tst	r3, #32768
 729 0378 1FD0     		beq	.L92
 730 037a E36E     		ldr	r3, [r4, #108]
 731 037c B3F1805F 		cmp	r3, #268435456
 732 0380 04D0     		beq	.L94
 733 0382 B3F1005F 		cmp	r3, #536870912
 734 0386 07D0     		beq	.L95
 735 0388 63B9     		cbnz	r3, .L230
 736 038a 0CE0     		b	.L93
 737              	.L94:
 738 038c 6B4A     		ldr	r2, .L237
 739 038e D36A     		ldr	r3, [r2, #44]
 740 0390 43F40033 		orr	r3, r3, #131072
 741 0394 D362     		str	r3, [r2, #44]
 742 0396 06E0     		b	.L93
 743              	.L95:
 744 0398 0121     		movs	r1, #1
 745 039a 201D     		adds	r0, r4, #4
 746 039c FFF7FEFF 		bl	RCCEx_PLL2_Config
ARM GAS  C:\Users\xiaofei\AppData\Local\Temp\cciqkDQm.s 			page 14


 747 03a0 0546     		mov	r5, r0
 748 03a2 00E0     		b	.L93
 749              	.L230:
 750 03a4 0125     		movs	r5, #1
 751              	.L93:
 752 03a6 3DB9     		cbnz	r5, .L199
 753 03a8 6449     		ldr	r1, .L237
 754 03aa 0B6D     		ldr	r3, [r1, #80]
 755 03ac 23F04052 		bic	r2, r3, #805306368
 756 03b0 E36E     		ldr	r3, [r4, #108]
 757 03b2 1343     		orrs	r3, r3, r2
 758 03b4 0B65     		str	r3, [r1, #80]
 759 03b6 00E0     		b	.L92
 760              	.L199:
 761 03b8 2E46     		mov	r6, r5
 762              	.L92:
 763 03ba 2368     		ldr	r3, [r4]
 764 03bc 13F0807F 		tst	r3, #16777216
 765 03c0 1DD0     		beq	.L97
 766 03c2 636C     		ldr	r3, [r4, #68]
 767 03c4 032B     		cmp	r3, #3
 768 03c6 0FD8     		bhi	.L200
 769 03c8 DFE803F0 		tbb	[pc, r3]
 770              	.L100:
 771 03cc 0F       		.byte	(.L98-.L100)/2
 772 03cd 02       		.byte	(.L101-.L100)/2
 773 03ce 08       		.byte	(.L102-.L100)/2
 774 03cf 0F       		.byte	(.L98-.L100)/2
 775              		.p2align 1
 776              	.L101:
 777 03d0 5A4A     		ldr	r2, .L237
 778 03d2 D36A     		ldr	r3, [r2, #44]
 779 03d4 43F40033 		orr	r3, r3, #131072
 780 03d8 D362     		str	r3, [r2, #44]
 781 03da 06E0     		b	.L98
 782              	.L102:
 783 03dc 0221     		movs	r1, #2
 784 03de 201D     		adds	r0, r4, #4
 785 03e0 FFF7FEFF 		bl	RCCEx_PLL2_Config
 786 03e4 0546     		mov	r5, r0
 787 03e6 00E0     		b	.L98
 788              	.L200:
 789 03e8 0125     		movs	r5, #1
 790              	.L98:
 791 03ea 3DB9     		cbnz	r5, .L201
 792 03ec 5349     		ldr	r1, .L237
 793 03ee CB6C     		ldr	r3, [r1, #76]
 794 03f0 23F00302 		bic	r2, r3, #3
 795 03f4 636C     		ldr	r3, [r4, #68]
 796 03f6 1343     		orrs	r3, r3, r2
 797 03f8 CB64     		str	r3, [r1, #76]
 798 03fa 00E0     		b	.L97
 799              	.L201:
 800 03fc 2E46     		mov	r6, r5
 801              	.L97:
 802 03fe 2368     		ldr	r3, [r4]
 803 0400 13F4800F 		tst	r3, #4194304
ARM GAS  C:\Users\xiaofei\AppData\Local\Temp\cciqkDQm.s 			page 15


 804 0404 65D0     		beq	.L103
 805 0406 4E4A     		ldr	r2, .L237+4
 806 0408 1368     		ldr	r3, [r2]
 807 040a 43F48073 		orr	r3, r3, #256
 808 040e 1360     		str	r3, [r2]
 809 0410 FFF7FEFF 		bl	HAL_GetTick
 810 0414 0746     		mov	r7, r0
 811 0416 04E0     		b	.L104
 812              	.L106:
 813 0418 FFF7FEFF 		bl	HAL_GetTick
 814 041c C01B     		subs	r0, r0, r7
 815 041e 6428     		cmp	r0, #100
 816 0420 05D8     		bhi	.L202
 817              	.L104:
 818 0422 474B     		ldr	r3, .L237+4
 819 0424 1B68     		ldr	r3, [r3]
 820 0426 13F4807F 		tst	r3, #256
 821 042a F5D0     		beq	.L106
 822 042c 00E0     		b	.L105
 823              	.L202:
 824 042e 0325     		movs	r5, #3
 825              	.L105:
 826 0430 002D     		cmp	r5, #0
 827 0432 4BD1     		bne	.L203
 828 0434 414B     		ldr	r3, .L237
 829 0436 1A6F     		ldr	r2, [r3, #112]
 830 0438 D4F8B030 		ldr	r3, [r4, #176]
 831 043c 5340     		eors	r3, r3, r2
 832 043e 13F4407F 		tst	r3, #768
 833 0442 0CD0     		beq	.L107
 834 0444 3D4B     		ldr	r3, .L237
 835 0446 1A6F     		ldr	r2, [r3, #112]
 836 0448 22F44072 		bic	r2, r2, #768
 837 044c 196F     		ldr	r1, [r3, #112]
 838 044e 41F48031 		orr	r1, r1, #65536
 839 0452 1967     		str	r1, [r3, #112]
 840 0454 196F     		ldr	r1, [r3, #112]
 841 0456 21F48031 		bic	r1, r1, #65536
 842 045a 1967     		str	r1, [r3, #112]
 843 045c 1A67     		str	r2, [r3, #112]
 844              	.L107:
 845 045e D4F8B030 		ldr	r3, [r4, #176]
 846 0462 B3F5807F 		cmp	r3, #256
 847 0466 11D1     		bne	.L108
 848 0468 FFF7FEFF 		bl	HAL_GetTick
 849 046c 0746     		mov	r7, r0
 850 046e 06E0     		b	.L109
 851              	.L110:
 852 0470 FFF7FEFF 		bl	HAL_GetTick
 853 0474 C01B     		subs	r0, r0, r7
 854 0476 41F28833 		movw	r3, #5000
 855 047a 9842     		cmp	r0, r3
 856 047c 05D8     		bhi	.L204
 857              	.L109:
 858 047e 2F4B     		ldr	r3, .L237
 859 0480 1B6F     		ldr	r3, [r3, #112]
 860 0482 13F0020F 		tst	r3, #2
ARM GAS  C:\Users\xiaofei\AppData\Local\Temp\cciqkDQm.s 			page 16


 861 0486 F3D0     		beq	.L110
 862 0488 00E0     		b	.L108
 863              	.L204:
 864 048a 0325     		movs	r5, #3
 865              	.L108:
 866 048c 05BB     		cbnz	r5, .L205
 867 048e D4F8B030 		ldr	r3, [r4, #176]
 868 0492 03F44072 		and	r2, r3, #768
 869 0496 B2F5407F 		cmp	r2, #768
 870 049a 09D1     		bne	.L111
 871 049c 2748     		ldr	r0, .L237
 872 049e 0169     		ldr	r1, [r0, #16]
 873 04a0 21F47C51 		bic	r1, r1, #16128
 874 04a4 274A     		ldr	r2, .L237+8
 875 04a6 02EA1313 		and	r3, r2, r3, lsr #4
 876 04aa 0B43     		orrs	r3, r3, r1
 877 04ac 0361     		str	r3, [r0, #16]
 878 04ae 04E0     		b	.L112
 879              	.L111:
 880 04b0 224A     		ldr	r2, .L237
 881 04b2 1369     		ldr	r3, [r2, #16]
 882 04b4 23F47C53 		bic	r3, r3, #16128
 883 04b8 1361     		str	r3, [r2, #16]
 884              	.L112:
 885 04ba 204A     		ldr	r2, .L237
 886 04bc 116F     		ldr	r1, [r2, #112]
 887 04be D4F8B030 		ldr	r3, [r4, #176]
 888 04c2 C3F30B03 		ubfx	r3, r3, #0, #12
 889 04c6 0B43     		orrs	r3, r3, r1
 890 04c8 1367     		str	r3, [r2, #112]
 891 04ca 02E0     		b	.L103
 892              	.L203:
 893 04cc 2E46     		mov	r6, r5
 894 04ce 00E0     		b	.L103
 895              	.L205:
 896 04d0 2E46     		mov	r6, r5
 897              	.L103:
 898 04d2 2368     		ldr	r3, [r4]
 899 04d4 13F0010F 		tst	r3, #1
 900 04d8 37D0     		beq	.L113
 901 04da A36F     		ldr	r3, [r4, #120]
 902 04dc 282B     		cmp	r3, #40
 903 04de 23D8     		bhi	.L206
 904 04e0 DFE803F0 		tbb	[pc, r3]
 905              	.L116:
 906 04e4 23       		.byte	(.L114-.L116)/2
 907 04e5 22       		.byte	(.L206-.L116)/2
 908 04e6 22       		.byte	(.L206-.L116)/2
 909 04e7 22       		.byte	(.L206-.L116)/2
 910 04e8 22       		.byte	(.L206-.L116)/2
 911 04e9 22       		.byte	(.L206-.L116)/2
 912 04ea 22       		.byte	(.L206-.L116)/2
 913 04eb 22       		.byte	(.L206-.L116)/2
 914 04ec 15       		.byte	(.L117-.L116)/2
 915 04ed 22       		.byte	(.L206-.L116)/2
 916 04ee 22       		.byte	(.L206-.L116)/2
 917 04ef 22       		.byte	(.L206-.L116)/2
ARM GAS  C:\Users\xiaofei\AppData\Local\Temp\cciqkDQm.s 			page 17


 918 04f0 22       		.byte	(.L206-.L116)/2
 919 04f1 22       		.byte	(.L206-.L116)/2
 920 04f2 22       		.byte	(.L206-.L116)/2
 921 04f3 22       		.byte	(.L206-.L116)/2
 922 04f4 1B       		.byte	(.L118-.L116)/2
 923 04f5 22       		.byte	(.L206-.L116)/2
 924 04f6 22       		.byte	(.L206-.L116)/2
 925 04f7 22       		.byte	(.L206-.L116)/2
 926 04f8 22       		.byte	(.L206-.L116)/2
 927 04f9 22       		.byte	(.L206-.L116)/2
 928 04fa 22       		.byte	(.L206-.L116)/2
 929 04fb 22       		.byte	(.L206-.L116)/2
 930 04fc 23       		.byte	(.L114-.L116)/2
 931 04fd 22       		.byte	(.L206-.L116)/2
 932 04fe 22       		.byte	(.L206-.L116)/2
 933 04ff 22       		.byte	(.L206-.L116)/2
 934 0500 22       		.byte	(.L206-.L116)/2
 935 0501 22       		.byte	(.L206-.L116)/2
 936 0502 22       		.byte	(.L206-.L116)/2
 937 0503 22       		.byte	(.L206-.L116)/2
 938 0504 23       		.byte	(.L114-.L116)/2
 939 0505 22       		.byte	(.L206-.L116)/2
 940 0506 22       		.byte	(.L206-.L116)/2
 941 0507 22       		.byte	(.L206-.L116)/2
 942 0508 22       		.byte	(.L206-.L116)/2
 943 0509 22       		.byte	(.L206-.L116)/2
 944 050a 22       		.byte	(.L206-.L116)/2
 945 050b 22       		.byte	(.L206-.L116)/2
 946 050c 23       		.byte	(.L114-.L116)/2
 947 050d 00       		.p2align 1
 948              	.L117:
 949 050e 0121     		movs	r1, #1
 950 0510 201D     		adds	r0, r4, #4
 951 0512 FFF7FEFF 		bl	RCCEx_PLL2_Config
 952 0516 0546     		mov	r5, r0
 953 0518 07E0     		b	.L114
 954              	.L118:
 955 051a 0121     		movs	r1, #1
 956 051c 04F12400 		add	r0, r4, #36
 957 0520 FFF7FEFF 		bl	RCCEx_PLL3_Config
 958 0524 0546     		mov	r5, r0
 959 0526 00E0     		b	.L114
 960              	.L206:
 961 0528 0125     		movs	r5, #1
 962              	.L114:
 963 052a 6DB9     		cbnz	r5, .L207
 964 052c 0349     		ldr	r1, .L237
 965 052e 4B6D     		ldr	r3, [r1, #84]
 966 0530 23F03802 		bic	r2, r3, #56
 967 0534 A36F     		ldr	r3, [r4, #120]
 968 0536 1343     		orrs	r3, r3, r2
 969 0538 4B65     		str	r3, [r1, #84]
 970 053a 06E0     		b	.L113
 971              	.L238:
 972              		.align	2
 973              	.L237:
 974 053c 00440258 		.word	1476543488
ARM GAS  C:\Users\xiaofei\AppData\Local\Temp\cciqkDQm.s 			page 18


 975 0540 00480258 		.word	1476544512
 976 0544 CFFFFF00 		.word	16777167
 977              	.L207:
 978 0548 2E46     		mov	r6, r5
 979              	.L113:
 980 054a 2368     		ldr	r3, [r4]
 981 054c 13F0020F 		tst	r3, #2
 982 0550 1FD0     		beq	.L119
 983 0552 636F     		ldr	r3, [r4, #116]
 984 0554 052B     		cmp	r3, #5
 985 0556 11D8     		bhi	.L208
 986 0558 DFE803F0 		tbb	[pc, r3]
 987              	.L122:
 988 055c 11       		.byte	(.L120-.L122)/2
 989 055d 03       		.byte	(.L123-.L122)/2
 990 055e 09       		.byte	(.L124-.L122)/2
 991 055f 11       		.byte	(.L120-.L122)/2
 992 0560 11       		.byte	(.L120-.L122)/2
 993 0561 11       		.byte	(.L120-.L122)/2
 994              		.p2align 1
 995              	.L123:
 996 0562 0121     		movs	r1, #1
 997 0564 201D     		adds	r0, r4, #4
 998 0566 FFF7FEFF 		bl	RCCEx_PLL2_Config
 999 056a 0546     		mov	r5, r0
 1000 056c 07E0     		b	.L120
 1001              	.L124:
 1002 056e 0121     		movs	r1, #1
 1003 0570 04F12400 		add	r0, r4, #36
 1004 0574 FFF7FEFF 		bl	RCCEx_PLL3_Config
 1005 0578 0546     		mov	r5, r0
 1006 057a 00E0     		b	.L120
 1007              	.L208:
 1008 057c 0125     		movs	r5, #1
 1009              	.L120:
 1010 057e 3DB9     		cbnz	r5, .L209
 1011 0580 AC49     		ldr	r1, .L239
 1012 0582 4B6D     		ldr	r3, [r1, #84]
 1013 0584 23F00702 		bic	r2, r3, #7
 1014 0588 636F     		ldr	r3, [r4, #116]
 1015 058a 1343     		orrs	r3, r3, r2
 1016 058c 4B65     		str	r3, [r1, #84]
 1017 058e 00E0     		b	.L119
 1018              	.L209:
 1019 0590 2E46     		mov	r6, r5
 1020              	.L119:
 1021 0592 2368     		ldr	r3, [r4]
 1022 0594 13F0040F 		tst	r3, #4
 1023 0598 21D0     		beq	.L125
 1024 059a D4F89030 		ldr	r3, [r4, #144]
 1025 059e 052B     		cmp	r3, #5
 1026 05a0 11D8     		bhi	.L210
 1027 05a2 DFE803F0 		tbb	[pc, r3]
 1028              	.L128:
 1029 05a6 11       		.byte	(.L126-.L128)/2
 1030 05a7 03       		.byte	(.L129-.L128)/2
 1031 05a8 09       		.byte	(.L130-.L128)/2
ARM GAS  C:\Users\xiaofei\AppData\Local\Temp\cciqkDQm.s 			page 19


 1032 05a9 11       		.byte	(.L126-.L128)/2
 1033 05aa 11       		.byte	(.L126-.L128)/2
 1034 05ab 11       		.byte	(.L126-.L128)/2
 1035              		.p2align 1
 1036              	.L129:
 1037 05ac 0121     		movs	r1, #1
 1038 05ae 201D     		adds	r0, r4, #4
 1039 05b0 FFF7FEFF 		bl	RCCEx_PLL2_Config
 1040 05b4 0546     		mov	r5, r0
 1041 05b6 07E0     		b	.L126
 1042              	.L130:
 1043 05b8 0121     		movs	r1, #1
 1044 05ba 04F12400 		add	r0, r4, #36
 1045 05be FFF7FEFF 		bl	RCCEx_PLL3_Config
 1046 05c2 0546     		mov	r5, r0
 1047 05c4 00E0     		b	.L126
 1048              	.L210:
 1049 05c6 0125     		movs	r5, #1
 1050              	.L126:
 1051 05c8 45B9     		cbnz	r5, .L211
 1052 05ca 9A49     		ldr	r1, .L239
 1053 05cc 8B6D     		ldr	r3, [r1, #88]
 1054 05ce 23F00702 		bic	r2, r3, #7
 1055 05d2 D4F89030 		ldr	r3, [r4, #144]
 1056 05d6 1343     		orrs	r3, r3, r2
 1057 05d8 8B65     		str	r3, [r1, #88]
 1058 05da 00E0     		b	.L125
 1059              	.L211:
 1060 05dc 2E46     		mov	r6, r5
 1061              	.L125:
 1062 05de 2368     		ldr	r3, [r4]
 1063 05e0 13F0200F 		tst	r3, #32
 1064 05e4 2DD0     		beq	.L131
 1065 05e6 D4F88C30 		ldr	r3, [r4, #140]
 1066 05ea B3F1005F 		cmp	r3, #536870912
 1067 05ee 15D0     		beq	.L133
 1068 05f0 04D8     		bhi	.L134
 1069 05f2 DBB1     		cbz	r3, .L132
 1070 05f4 B3F1805F 		cmp	r3, #268435456
 1071 05f8 0AD0     		beq	.L136
 1072 05fa 16E0     		b	.L212
 1073              	.L134:
 1074 05fc B3F1804F 		cmp	r3, #1073741824
 1075 0600 14D0     		beq	.L132
 1076 0602 B3F1A04F 		cmp	r3, #1342177280
 1077 0606 11D0     		beq	.L132
 1078 0608 B3F1405F 		cmp	r3, #805306368
 1079 060c 0DD1     		bne	.L212
 1080 060e 0DE0     		b	.L132
 1081              	.L136:
 1082 0610 0021     		movs	r1, #0
 1083 0612 201D     		adds	r0, r4, #4
 1084 0614 FFF7FEFF 		bl	RCCEx_PLL2_Config
 1085 0618 0546     		mov	r5, r0
 1086 061a 07E0     		b	.L132
 1087              	.L133:
 1088 061c 0221     		movs	r1, #2
ARM GAS  C:\Users\xiaofei\AppData\Local\Temp\cciqkDQm.s 			page 20


 1089 061e 04F12400 		add	r0, r4, #36
 1090 0622 FFF7FEFF 		bl	RCCEx_PLL3_Config
 1091 0626 0546     		mov	r5, r0
 1092 0628 00E0     		b	.L132
 1093              	.L212:
 1094 062a 0125     		movs	r5, #1
 1095              	.L132:
 1096 062c 45B9     		cbnz	r5, .L213
 1097 062e 8149     		ldr	r1, .L239
 1098 0630 4B6D     		ldr	r3, [r1, #84]
 1099 0632 23F0E042 		bic	r2, r3, #1879048192
 1100 0636 D4F88C30 		ldr	r3, [r4, #140]
 1101 063a 1343     		orrs	r3, r3, r2
 1102 063c 4B65     		str	r3, [r1, #84]
 1103 063e 00E0     		b	.L131
 1104              	.L213:
 1105 0640 2E46     		mov	r6, r5
 1106              	.L131:
 1107 0642 2368     		ldr	r3, [r4]
 1108 0644 13F0400F 		tst	r3, #64
 1109 0648 2DD0     		beq	.L137
 1110 064a D4F89830 		ldr	r3, [r4, #152]
 1111 064e B3F5006F 		cmp	r3, #2048
 1112 0652 15D0     		beq	.L139
 1113 0654 04D8     		bhi	.L140
 1114 0656 DBB1     		cbz	r3, .L138
 1115 0658 B3F5806F 		cmp	r3, #1024
 1116 065c 0AD0     		beq	.L142
 1117 065e 16E0     		b	.L214
 1118              	.L140:
 1119 0660 B3F5805F 		cmp	r3, #4096
 1120 0664 14D0     		beq	.L138
 1121 0666 B3F5A05F 		cmp	r3, #5120
 1122 066a 11D0     		beq	.L138
 1123 066c B3F5406F 		cmp	r3, #3072
 1124 0670 0DD1     		bne	.L214
 1125 0672 0DE0     		b	.L138
 1126              	.L142:
 1127 0674 0021     		movs	r1, #0
 1128 0676 201D     		adds	r0, r4, #4
 1129 0678 FFF7FEFF 		bl	RCCEx_PLL2_Config
 1130 067c 0546     		mov	r5, r0
 1131 067e 07E0     		b	.L138
 1132              	.L139:
 1133 0680 0221     		movs	r1, #2
 1134 0682 04F12400 		add	r0, r4, #36
 1135 0686 FFF7FEFF 		bl	RCCEx_PLL3_Config
 1136 068a 0546     		mov	r5, r0
 1137 068c 00E0     		b	.L138
 1138              	.L214:
 1139 068e 0125     		movs	r5, #1
 1140              	.L138:
 1141 0690 45B9     		cbnz	r5, .L215
 1142 0692 6849     		ldr	r1, .L239
 1143 0694 8B6D     		ldr	r3, [r1, #88]
 1144 0696 23F4E052 		bic	r2, r3, #7168
 1145 069a D4F89830 		ldr	r3, [r4, #152]
ARM GAS  C:\Users\xiaofei\AppData\Local\Temp\cciqkDQm.s 			page 21


 1146 069e 1343     		orrs	r3, r3, r2
 1147 06a0 8B65     		str	r3, [r1, #88]
 1148 06a2 00E0     		b	.L137
 1149              	.L215:
 1150 06a4 2E46     		mov	r6, r5
 1151              	.L137:
 1152 06a6 2368     		ldr	r3, [r4]
 1153 06a8 13F0800F 		tst	r3, #128
 1154 06ac 2DD0     		beq	.L143
 1155 06ae D4F89C30 		ldr	r3, [r4, #156]
 1156 06b2 B3F5804F 		cmp	r3, #16384
 1157 06b6 15D0     		beq	.L145
 1158 06b8 04D8     		bhi	.L146
 1159 06ba DBB1     		cbz	r3, .L144
 1160 06bc B3F5005F 		cmp	r3, #8192
 1161 06c0 0AD0     		beq	.L148
 1162 06c2 16E0     		b	.L216
 1163              	.L146:
 1164 06c4 B3F5004F 		cmp	r3, #32768
 1165 06c8 14D0     		beq	.L144
 1166 06ca B3F5204F 		cmp	r3, #40960
 1167 06ce 11D0     		beq	.L144
 1168 06d0 B3F5C04F 		cmp	r3, #24576
 1169 06d4 0DD1     		bne	.L216
 1170 06d6 0DE0     		b	.L144
 1171              	.L148:
 1172 06d8 0021     		movs	r1, #0
 1173 06da 201D     		adds	r0, r4, #4
 1174 06dc FFF7FEFF 		bl	RCCEx_PLL2_Config
 1175 06e0 0546     		mov	r5, r0
 1176 06e2 07E0     		b	.L144
 1177              	.L145:
 1178 06e4 0221     		movs	r1, #2
 1179 06e6 04F12400 		add	r0, r4, #36
 1180 06ea FFF7FEFF 		bl	RCCEx_PLL3_Config
 1181 06ee 0546     		mov	r5, r0
 1182 06f0 00E0     		b	.L144
 1183              	.L216:
 1184 06f2 0125     		movs	r5, #1
 1185              	.L144:
 1186 06f4 45B9     		cbnz	r5, .L217
 1187 06f6 4F49     		ldr	r1, .L239
 1188 06f8 8B6D     		ldr	r3, [r1, #88]
 1189 06fa 23F46042 		bic	r2, r3, #57344
 1190 06fe D4F89C30 		ldr	r3, [r4, #156]
 1191 0702 1343     		orrs	r3, r3, r2
 1192 0704 8B65     		str	r3, [r1, #88]
 1193 0706 00E0     		b	.L143
 1194              	.L217:
 1195 0708 2E46     		mov	r6, r5
 1196              	.L143:
 1197 070a 2368     		ldr	r3, [r4]
 1198 070c 13F0080F 		tst	r3, #8
 1199 0710 13D0     		beq	.L149
 1200 0712 D4F88030 		ldr	r3, [r4, #128]
 1201 0716 B3F5805F 		cmp	r3, #4096
 1202 071a 06D1     		bne	.L150
ARM GAS  C:\Users\xiaofei\AppData\Local\Temp\cciqkDQm.s 			page 22


 1203 071c 0221     		movs	r1, #2
 1204 071e 04F12400 		add	r0, r4, #36
 1205 0722 FFF7FEFF 		bl	RCCEx_PLL3_Config
 1206 0726 00B1     		cbz	r0, .L150
 1207 0728 0126     		movs	r6, #1
 1208              	.L150:
 1209 072a 4249     		ldr	r1, .L239
 1210 072c 4B6D     		ldr	r3, [r1, #84]
 1211 072e 23F44052 		bic	r2, r3, #12288
 1212 0732 D4F88030 		ldr	r3, [r4, #128]
 1213 0736 1343     		orrs	r3, r3, r2
 1214 0738 4B65     		str	r3, [r1, #84]
 1215              	.L149:
 1216 073a 2368     		ldr	r3, [r4]
 1217 073c 13F0100F 		tst	r3, #16
 1218 0740 13D0     		beq	.L151
 1219 0742 D4F89430 		ldr	r3, [r4, #148]
 1220 0746 B3F5807F 		cmp	r3, #256
 1221 074a 06D1     		bne	.L152
 1222 074c 0221     		movs	r1, #2
 1223 074e 04F12400 		add	r0, r4, #36
 1224 0752 FFF7FEFF 		bl	RCCEx_PLL3_Config
 1225 0756 00B1     		cbz	r0, .L152
 1226 0758 0126     		movs	r6, #1
 1227              	.L152:
 1228 075a 3649     		ldr	r1, .L239
 1229 075c 8B6D     		ldr	r3, [r1, #88]
 1230 075e 23F44072 		bic	r2, r3, #768
 1231 0762 D4F89430 		ldr	r3, [r4, #148]
 1232 0766 1343     		orrs	r3, r3, r2
 1233 0768 8B65     		str	r3, [r1, #88]
 1234              	.L151:
 1235 076a 2368     		ldr	r3, [r4]
 1236 076c 13F4002F 		tst	r3, #524288
 1237 0770 21D0     		beq	.L153
 1238 0772 D4F8A030 		ldr	r3, [r4, #160]
 1239 0776 B3F5803F 		cmp	r3, #65536
 1240 077a 09D0     		beq	.L155
 1241 077c B3F5003F 		cmp	r3, #131072
 1242 0780 0ED0     		beq	.L154
 1243 0782 63B9     		cbnz	r3, .L231
 1244 0784 0021     		movs	r1, #0
 1245 0786 201D     		adds	r0, r4, #4
 1246 0788 FFF7FEFF 		bl	RCCEx_PLL2_Config
 1247 078c 0546     		mov	r5, r0
 1248 078e 07E0     		b	.L154
 1249              	.L155:
 1250 0790 0221     		movs	r1, #2
 1251 0792 04F12400 		add	r0, r4, #36
 1252 0796 FFF7FEFF 		bl	RCCEx_PLL3_Config
 1253 079a 0546     		mov	r5, r0
 1254 079c 00E0     		b	.L154
 1255              	.L231:
 1256 079e 0125     		movs	r5, #1
 1257              	.L154:
 1258 07a0 45B9     		cbnz	r5, .L221
 1259 07a2 2449     		ldr	r1, .L239
ARM GAS  C:\Users\xiaofei\AppData\Local\Temp\cciqkDQm.s 			page 23


 1260 07a4 8B6D     		ldr	r3, [r1, #88]
 1261 07a6 23F44032 		bic	r2, r3, #196608
 1262 07aa D4F8A030 		ldr	r3, [r4, #160]
 1263 07ae 1343     		orrs	r3, r3, r2
 1264 07b0 8B65     		str	r3, [r1, #88]
 1265 07b2 00E0     		b	.L153
 1266              	.L221:
 1267 07b4 2E46     		mov	r6, r5
 1268              	.L153:
 1269 07b6 2368     		ldr	r3, [r4]
 1270 07b8 13F4802F 		tst	r3, #262144
 1271 07bc 23D0     		beq	.L158
 1272 07be D4F88430 		ldr	r3, [r4, #132]
 1273 07c2 B3F5001F 		cmp	r3, #2097152
 1274 07c6 0BD0     		beq	.L160
 1275 07c8 B3F5401F 		cmp	r3, #3145728
 1276 07cc 10D0     		beq	.L159
 1277 07ce B3F5801F 		cmp	r3, #1048576
 1278 07d2 0CD1     		bne	.L232
 1279 07d4 174A     		ldr	r2, .L239
 1280 07d6 D36A     		ldr	r3, [r2, #44]
 1281 07d8 43F40033 		orr	r3, r3, #131072
 1282 07dc D362     		str	r3, [r2, #44]
 1283 07de 07E0     		b	.L159
 1284              	.L160:
 1285 07e0 0121     		movs	r1, #1
 1286 07e2 04F12400 		add	r0, r4, #36
 1287 07e6 FFF7FEFF 		bl	RCCEx_PLL3_Config
 1288 07ea 0546     		mov	r5, r0
 1289 07ec 00E0     		b	.L159
 1290              	.L232:
 1291 07ee 0125     		movs	r5, #1
 1292              	.L159:
 1293 07f0 45B9     		cbnz	r5, .L223
 1294 07f2 1049     		ldr	r1, .L239
 1295 07f4 4B6D     		ldr	r3, [r1, #84]
 1296 07f6 23F44012 		bic	r2, r3, #3145728
 1297 07fa D4F88430 		ldr	r3, [r4, #132]
 1298 07fe 1343     		orrs	r3, r3, r2
 1299 0800 4B65     		str	r3, [r1, #84]
 1300 0802 00E0     		b	.L158
 1301              	.L223:
 1302 0804 2E46     		mov	r6, r5
 1303              	.L158:
 1304 0806 2368     		ldr	r3, [r4]
 1305 0808 13F4803F 		tst	r3, #65536
 1306 080c 1FD0     		beq	.L163
 1307 080e E36C     		ldr	r3, [r4, #76]
 1308 0810 1BB1     		cbz	r3, .L165
 1309 0812 B3F5803F 		cmp	r3, #65536
 1310 0816 06D0     		beq	.L166
 1311 0818 0EE0     		b	.L233
 1312              	.L165:
 1313 081a 064A     		ldr	r2, .L239
 1314 081c D36A     		ldr	r3, [r2, #44]
 1315 081e 43F40033 		orr	r3, r3, #131072
 1316 0822 D362     		str	r3, [r2, #44]
ARM GAS  C:\Users\xiaofei\AppData\Local\Temp\cciqkDQm.s 			page 24


 1317 0824 09E0     		b	.L164
 1318              	.L166:
 1319 0826 0221     		movs	r1, #2
 1320 0828 201D     		adds	r0, r4, #4
 1321 082a FFF7FEFF 		bl	RCCEx_PLL2_Config
 1322 082e 0546     		mov	r5, r0
 1323 0830 03E0     		b	.L164
 1324              	.L240:
 1325 0832 00BF     		.align	2
 1326              	.L239:
 1327 0834 00440258 		.word	1476543488
 1328              	.L233:
 1329 0838 0125     		movs	r5, #1
 1330              	.L164:
 1331 083a 3DB9     		cbnz	r5, .L225
 1332 083c 3A49     		ldr	r1, .L241
 1333 083e CB6C     		ldr	r3, [r1, #76]
 1334 0840 23F48032 		bic	r2, r3, #65536
 1335 0844 E36C     		ldr	r3, [r4, #76]
 1336 0846 1343     		orrs	r3, r3, r2
 1337 0848 CB64     		str	r3, [r1, #76]
 1338 084a 00E0     		b	.L163
 1339              	.L225:
 1340 084c 2E46     		mov	r6, r5
 1341              	.L163:
 1342 084e 2368     		ldr	r3, [r4]
 1343 0850 13F0005F 		tst	r3, #536870912
 1344 0854 06D0     		beq	.L167
 1345 0856 0221     		movs	r1, #2
 1346 0858 04F12400 		add	r0, r4, #36
 1347 085c FFF7FEFF 		bl	RCCEx_PLL3_Config
 1348 0860 00B1     		cbz	r0, .L167
 1349 0862 0126     		movs	r6, #1
 1350              	.L167:
 1351 0864 2368     		ldr	r3, [r4]
 1352 0866 13F4003F 		tst	r3, #131072
 1353 086a 1ED0     		beq	.L168
 1354 086c E36F     		ldr	r3, [r4, #124]
 1355 086e B3F5807F 		cmp	r3, #256
 1356 0872 09D0     		beq	.L170
 1357 0874 01D8     		bhi	.L171
 1358 0876 6BB9     		cbnz	r3, .L227
 1359 0878 0DE0     		b	.L169
 1360              	.L171:
 1361 087a B3F5007F 		cmp	r3, #512
 1362 087e 0AD0     		beq	.L169
 1363 0880 B3F5407F 		cmp	r3, #768
 1364 0884 06D1     		bne	.L227
 1365 0886 06E0     		b	.L169
 1366              	.L170:
 1367 0888 274A     		ldr	r2, .L241
 1368 088a D36A     		ldr	r3, [r2, #44]
 1369 088c 43F40033 		orr	r3, r3, #131072
 1370 0890 D362     		str	r3, [r2, #44]
 1371 0892 00E0     		b	.L169
 1372              	.L227:
 1373 0894 0125     		movs	r5, #1
ARM GAS  C:\Users\xiaofei\AppData\Local\Temp\cciqkDQm.s 			page 25


 1374              	.L169:
 1375 0896 3DB9     		cbnz	r5, .L228
 1376 0898 2349     		ldr	r1, .L241
 1377 089a 4B6D     		ldr	r3, [r1, #84]
 1378 089c 23F44072 		bic	r2, r3, #768
 1379 08a0 E36F     		ldr	r3, [r4, #124]
 1380 08a2 1343     		orrs	r3, r3, r2
 1381 08a4 4B65     		str	r3, [r1, #84]
 1382 08a6 00E0     		b	.L168
 1383              	.L228:
 1384 08a8 2E46     		mov	r6, r5
 1385              	.L168:
 1386 08aa 2368     		ldr	r3, [r4]
 1387 08ac 13F4801F 		tst	r3, #1048576
 1388 08b0 06D0     		beq	.L173
 1389 08b2 1D49     		ldr	r1, .L241
 1390 08b4 0B6D     		ldr	r3, [r1, #80]
 1391 08b6 23F00042 		bic	r2, r3, #-2147483648
 1392 08ba 236F     		ldr	r3, [r4, #112]
 1393 08bc 1343     		orrs	r3, r3, r2
 1394 08be 0B65     		str	r3, [r1, #80]
 1395              	.L173:
 1396 08c0 2368     		ldr	r3, [r4]
 1397 08c2 13F0805F 		tst	r3, #268435456
 1398 08c6 07D0     		beq	.L174
 1399 08c8 1749     		ldr	r1, .L241
 1400 08ca 0B69     		ldr	r3, [r1, #16]
 1401 08cc 23F48042 		bic	r2, r3, #16384
 1402 08d0 D4F8B430 		ldr	r3, [r4, #180]
 1403 08d4 1343     		orrs	r3, r3, r2
 1404 08d6 0B61     		str	r3, [r1, #16]
 1405              	.L174:
 1406 08d8 2368     		ldr	r3, [r4]
 1407 08da 13F4001F 		tst	r3, #2097152
 1408 08de 06D0     		beq	.L175
 1409 08e0 1149     		ldr	r1, .L241
 1410 08e2 0B6D     		ldr	r3, [r1, #80]
 1411 08e4 23F08072 		bic	r2, r3, #16777216
 1412 08e8 A36E     		ldr	r3, [r4, #104]
 1413 08ea 1343     		orrs	r3, r3, r2
 1414 08ec 0B65     		str	r3, [r1, #80]
 1415              	.L175:
 1416 08ee 2368     		ldr	r3, [r4]
 1417 08f0 13F0804F 		tst	r3, #1073741824
 1418 08f4 09D0     		beq	.L176
 1419 08f6 0C4B     		ldr	r3, .L241
 1420 08f8 1A69     		ldr	r2, [r3, #16]
 1421 08fa 22F40042 		bic	r2, r2, #32768
 1422 08fe 1A61     		str	r2, [r3, #16]
 1423 0900 1969     		ldr	r1, [r3, #16]
 1424 0902 D4F8B820 		ldr	r2, [r4, #184]
 1425 0906 0A43     		orrs	r2, r2, r1
 1426 0908 1A61     		str	r2, [r3, #16]
 1427              	.L176:
 1428 090a 2368     		ldr	r3, [r4]
 1429 090c 002B     		cmp	r3, #0
 1430 090e 06DA     		bge	.L177
ARM GAS  C:\Users\xiaofei\AppData\Local\Temp\cciqkDQm.s 			page 26


 1431 0910 0549     		ldr	r1, .L241
 1432 0912 CB6C     		ldr	r3, [r1, #76]
 1433 0914 23F04052 		bic	r2, r3, #805306368
 1434 0918 236D     		ldr	r3, [r4, #80]
 1435 091a 1343     		orrs	r3, r3, r2
 1436 091c CB64     		str	r3, [r1, #76]
 1437              	.L177:
 1438 091e 0EB9     		cbnz	r6, .L229
 1439 0920 0020     		movs	r0, #0
 1440 0922 F8BD     		pop	{r3, r4, r5, r6, r7, pc}
 1441              	.L229:
 1442 0924 0120     		movs	r0, #1
 1443 0926 F8BD     		pop	{r3, r4, r5, r6, r7, pc}
 1444              	.L242:
 1445              		.align	2
 1446              	.L241:
 1447 0928 00440258 		.word	1476543488
 1449              		.section	.text.HAL_RCCEx_GetPeriphCLKConfig,"ax",%progbits
 1450              		.align	2
 1451              		.global	HAL_RCCEx_GetPeriphCLKConfig
 1452              		.thumb
 1453              		.thumb_func
 1455              	HAL_RCCEx_GetPeriphCLKConfig:
 1456              		@ args = 0, pretend = 0, frame = 0
 1457              		@ frame_needed = 0, uses_anonymous_args = 0
 1458              		@ link register save eliminated.
 1459 0000 6FF08063 		mvn	r3, #67108864
 1460 0004 0360     		str	r3, [r0]
 1461 0006 654B     		ldr	r3, .L246
 1462 0008 9A6A     		ldr	r2, [r3, #40]
 1463 000a C2F30552 		ubfx	r2, r2, #20, #6
 1464 000e 4262     		str	r2, [r0, #36]
 1465 0010 1A6C     		ldr	r2, [r3, #64]
 1466 0012 C2F30802 		ubfx	r2, r2, #0, #9
 1467 0016 0132     		adds	r2, r2, #1
 1468 0018 8262     		str	r2, [r0, #40]
 1469 001a 1A6C     		ldr	r2, [r3, #64]
 1470 001c C2F30662 		ubfx	r2, r2, #24, #7
 1471 0020 0132     		adds	r2, r2, #1
 1472 0022 4263     		str	r2, [r0, #52]
 1473 0024 1A6C     		ldr	r2, [r3, #64]
 1474 0026 C2F34622 		ubfx	r2, r2, #9, #7
 1475 002a 0132     		adds	r2, r2, #1
 1476 002c C262     		str	r2, [r0, #44]
 1477 002e 1A6C     		ldr	r2, [r3, #64]
 1478 0030 C2F30642 		ubfx	r2, r2, #16, #7
 1479 0034 0132     		adds	r2, r2, #1
 1480 0036 0263     		str	r2, [r0, #48]
 1481 0038 DA6A     		ldr	r2, [r3, #44]
 1482 003a C2F38122 		ubfx	r2, r2, #10, #2
 1483 003e 8263     		str	r2, [r0, #56]
 1484 0040 DA6A     		ldr	r2, [r3, #44]
 1485 0042 C2F34022 		ubfx	r2, r2, #9, #1
 1486 0046 C263     		str	r2, [r0, #60]
 1487 0048 9A6A     		ldr	r2, [r3, #40]
 1488 004a C2F30532 		ubfx	r2, r2, #12, #6
 1489 004e 4260     		str	r2, [r0, #4]
ARM GAS  C:\Users\xiaofei\AppData\Local\Temp\cciqkDQm.s 			page 27


 1490 0050 9A6B     		ldr	r2, [r3, #56]
 1491 0052 C2F30802 		ubfx	r2, r2, #0, #9
 1492 0056 0132     		adds	r2, r2, #1
 1493 0058 8260     		str	r2, [r0, #8]
 1494 005a 9A6B     		ldr	r2, [r3, #56]
 1495 005c C2F30662 		ubfx	r2, r2, #24, #7
 1496 0060 0132     		adds	r2, r2, #1
 1497 0062 4261     		str	r2, [r0, #20]
 1498 0064 9A6B     		ldr	r2, [r3, #56]
 1499 0066 C2F34622 		ubfx	r2, r2, #9, #7
 1500 006a 0132     		adds	r2, r2, #1
 1501 006c C260     		str	r2, [r0, #12]
 1502 006e 9A6B     		ldr	r2, [r3, #56]
 1503 0070 C2F30642 		ubfx	r2, r2, #16, #7
 1504 0074 0132     		adds	r2, r2, #1
 1505 0076 0261     		str	r2, [r0, #16]
 1506 0078 DA6A     		ldr	r2, [r3, #44]
 1507 007a C2F38112 		ubfx	r2, r2, #6, #2
 1508 007e 8261     		str	r2, [r0, #24]
 1509 0080 DA6A     		ldr	r2, [r3, #44]
 1510 0082 C2F34012 		ubfx	r2, r2, #5, #1
 1511 0086 C261     		str	r2, [r0, #28]
 1512 0088 5A6D     		ldr	r2, [r3, #84]
 1513 008a 02F03802 		and	r2, r2, #56
 1514 008e 8267     		str	r2, [r0, #120]
 1515 0090 5A6D     		ldr	r2, [r3, #84]
 1516 0092 02F00702 		and	r2, r2, #7
 1517 0096 4267     		str	r2, [r0, #116]
 1518 0098 9A6D     		ldr	r2, [r3, #88]
 1519 009a 02F00702 		and	r2, r2, #7
 1520 009e C0F89020 		str	r2, [r0, #144]
 1521 00a2 5A6D     		ldr	r2, [r3, #84]
 1522 00a4 02F44052 		and	r2, r2, #12288
 1523 00a8 C0F88020 		str	r2, [r0, #128]
 1524 00ac 5A6D     		ldr	r2, [r3, #84]
 1525 00ae 02F0E042 		and	r2, r2, #1879048192
 1526 00b2 C0F88C20 		str	r2, [r0, #140]
 1527 00b6 9A6D     		ldr	r2, [r3, #88]
 1528 00b8 02F4E052 		and	r2, r2, #7168
 1529 00bc C0F89820 		str	r2, [r0, #152]
 1530 00c0 9A6D     		ldr	r2, [r3, #88]
 1531 00c2 02F46042 		and	r2, r2, #57344
 1532 00c6 C0F89C20 		str	r2, [r0, #156]
 1533 00ca 1A6D     		ldr	r2, [r3, #80]
 1534 00cc 02F00702 		and	r2, r2, #7
 1535 00d0 4265     		str	r2, [r0, #84]
 1536 00d2 1A6D     		ldr	r2, [r3, #80]
 1537 00d4 02F4E072 		and	r2, r2, #448
 1538 00d8 8265     		str	r2, [r0, #88]
 1539 00da 9A6D     		ldr	r2, [r3, #88]
 1540 00dc 02F46002 		and	r2, r2, #14680064
 1541 00e0 C0F8A420 		str	r2, [r0, #164]
 1542 00e4 9A6D     		ldr	r2, [r3, #88]
 1543 00e6 02F0E062 		and	r2, r2, #117440512
 1544 00ea C0F8A820 		str	r2, [r0, #168]
 1545 00ee 1A6F     		ldr	r2, [r3, #112]
 1546 00f0 02F44072 		and	r2, r2, #768
ARM GAS  C:\Users\xiaofei\AppData\Local\Temp\cciqkDQm.s 			page 28


 1547 00f4 C0F8B020 		str	r2, [r0, #176]
 1548 00f8 5A6D     		ldr	r2, [r3, #84]
 1549 00fa 02F44012 		and	r2, r2, #3145728
 1550 00fe C0F88420 		str	r2, [r0, #132]
 1551 0102 DA6C     		ldr	r2, [r3, #76]
 1552 0104 02F48032 		and	r2, r2, #65536
 1553 0108 C264     		str	r2, [r0, #76]
 1554 010a 5A6D     		ldr	r2, [r3, #84]
 1555 010c 02F44072 		and	r2, r2, #768
 1556 0110 C267     		str	r2, [r0, #124]
 1557 0112 1A69     		ldr	r2, [r3, #16]
 1558 0114 02F48042 		and	r2, r2, #16384
 1559 0118 C0F8B420 		str	r2, [r0, #180]
 1560 011c 9A6D     		ldr	r2, [r3, #88]
 1561 011e 02F44032 		and	r2, r2, #196608
 1562 0122 C0F8A020 		str	r2, [r0, #160]
 1563 0126 1A6D     		ldr	r2, [r3, #80]
 1564 0128 02F00042 		and	r2, r2, #-2147483648
 1565 012c 0267     		str	r2, [r0, #112]
 1566 012e 1A6D     		ldr	r2, [r3, #80]
 1567 0130 02F08072 		and	r2, r2, #16777216
 1568 0134 8266     		str	r2, [r0, #104]
 1569 0136 1A6D     		ldr	r2, [r3, #80]
 1570 0138 02F44012 		and	r2, r2, #3145728
 1571 013c 4266     		str	r2, [r0, #100]
 1572 013e 1A6D     		ldr	r2, [r3, #80]
 1573 0140 02F4E042 		and	r2, r2, #28672
 1574 0144 C265     		str	r2, [r0, #92]
 1575 0146 1A6D     		ldr	r2, [r3, #80]
 1576 0148 02F4E022 		and	r2, r2, #458752
 1577 014c 0266     		str	r2, [r0, #96]
 1578 014e 9A6D     		ldr	r2, [r3, #88]
 1579 0150 02F0E042 		and	r2, r2, #1879048192
 1580 0154 C0F8AC20 		str	r2, [r0, #172]
 1581 0158 1A6D     		ldr	r2, [r3, #80]
 1582 015a 02F04052 		and	r2, r2, #805306368
 1583 015e C266     		str	r2, [r0, #108]
 1584 0160 5A6D     		ldr	r2, [r3, #84]
 1585 0162 02F44002 		and	r2, r2, #12582912
 1586 0166 C0F88820 		str	r2, [r0, #136]
 1587 016a DA6C     		ldr	r2, [r3, #76]
 1588 016c 02F00302 		and	r2, r2, #3
 1589 0170 4264     		str	r2, [r0, #68]
 1590 0172 DA6C     		ldr	r2, [r3, #76]
 1591 0174 02F03002 		and	r2, r2, #48
 1592 0178 8264     		str	r2, [r0, #72]
 1593 017a DA6C     		ldr	r2, [r3, #76]
 1594 017c 02F04052 		and	r2, r2, #805306368
 1595 0180 0265     		str	r2, [r0, #80]
 1596 0182 1B69     		ldr	r3, [r3, #16]
 1597 0184 13F4004F 		tst	r3, #32768
 1598 0188 03D1     		bne	.L244
 1599 018a 0023     		movs	r3, #0
 1600 018c C0F8B830 		str	r3, [r0, #184]
 1601 0190 7047     		bx	lr
 1602              	.L244:
 1603 0192 4FF40043 		mov	r3, #32768
ARM GAS  C:\Users\xiaofei\AppData\Local\Temp\cciqkDQm.s 			page 29


 1604 0196 C0F8B830 		str	r3, [r0, #184]
 1605 019a 7047     		bx	lr
 1606              	.L247:
 1607              		.align	2
 1608              	.L246:
 1609 019c 00440258 		.word	1476543488
 1611              		.section	.text.HAL_RCCEx_GetD1PCLK1Freq,"ax",%progbits
 1612              		.align	2
 1613              		.global	HAL_RCCEx_GetD1PCLK1Freq
 1614              		.thumb
 1615              		.thumb_func
 1617              	HAL_RCCEx_GetD1PCLK1Freq:
 1618              		@ args = 0, pretend = 0, frame = 0
 1619              		@ frame_needed = 0, uses_anonymous_args = 0
 1620 0000 08B5     		push	{r3, lr}
 1621 0002 FFF7FEFF 		bl	HAL_RCC_GetHCLKFreq
 1622 0006 054B     		ldr	r3, .L250
 1623 0008 9B69     		ldr	r3, [r3, #24]
 1624 000a C3F30213 		ubfx	r3, r3, #4, #3
 1625 000e 044A     		ldr	r2, .L250+4
 1626 0010 D35C     		ldrb	r3, [r2, r3]	@ zero_extendqisi2
 1627 0012 03F01F03 		and	r3, r3, #31
 1628 0016 D840     		lsrs	r0, r0, r3
 1629 0018 08BD     		pop	{r3, pc}
 1630              	.L251:
 1631 001a 00BF     		.align	2
 1632              	.L250:
 1633 001c 00440258 		.word	1476543488
 1634 0020 00000000 		.word	D1CorePrescTable
 1636              		.section	.text.HAL_RCCEx_GetD3PCLK1Freq,"ax",%progbits
 1637              		.align	2
 1638              		.global	HAL_RCCEx_GetD3PCLK1Freq
 1639              		.thumb
 1640              		.thumb_func
 1642              	HAL_RCCEx_GetD3PCLK1Freq:
 1643              		@ args = 0, pretend = 0, frame = 0
 1644              		@ frame_needed = 0, uses_anonymous_args = 0
 1645 0000 08B5     		push	{r3, lr}
 1646 0002 FFF7FEFF 		bl	HAL_RCC_GetHCLKFreq
 1647 0006 054B     		ldr	r3, .L254
 1648 0008 1B6A     		ldr	r3, [r3, #32]
 1649 000a C3F30213 		ubfx	r3, r3, #4, #3
 1650 000e 044A     		ldr	r2, .L254+4
 1651 0010 D35C     		ldrb	r3, [r2, r3]	@ zero_extendqisi2
 1652 0012 03F01F03 		and	r3, r3, #31
 1653 0016 D840     		lsrs	r0, r0, r3
 1654 0018 08BD     		pop	{r3, pc}
 1655              	.L255:
 1656 001a 00BF     		.align	2
 1657              	.L254:
 1658 001c 00440258 		.word	1476543488
 1659 0020 00000000 		.word	D1CorePrescTable
 1661              		.section	.text.HAL_RCCEx_GetPLL2ClockFreq,"ax",%progbits
 1662              		.align	2
 1663              		.global	HAL_RCCEx_GetPLL2ClockFreq
 1664              		.thumb
 1665              		.thumb_func
ARM GAS  C:\Users\xiaofei\AppData\Local\Temp\cciqkDQm.s 			page 30


 1667              	HAL_RCCEx_GetPLL2ClockFreq:
 1668              		@ args = 0, pretend = 0, frame = 0
 1669              		@ frame_needed = 0, uses_anonymous_args = 0
 1670              		@ link register save eliminated.
 1671 0000 30B4     		push	{r4, r5}
 1672 0002 7749     		ldr	r1, .L267
 1673 0004 8C6A     		ldr	r4, [r1, #40]
 1674 0006 8A6A     		ldr	r2, [r1, #40]
 1675 0008 C2F30532 		ubfx	r2, r2, #12, #6
 1676 000c CB6A     		ldr	r3, [r1, #44]
 1677 000e C3F30015 		ubfx	r5, r3, #4, #1
 1678 0012 CB6B     		ldr	r3, [r1, #60]
 1679 0014 C3F3CC03 		ubfx	r3, r3, #3, #13
 1680 0018 03FB05F3 		mul	r3, r3, r5
 1681 001c 002A     		cmp	r2, #0
 1682 001e 00F0D980 		beq	.L257
 1683 0022 04F00304 		and	r4, r4, #3
 1684 0026 07EE903A 		vmov	s15, r3	@ int
 1685 002a F8EE677A 		vcvt.f32.u32	s15, s15
 1686 002e 012C     		cmp	r4, #1
 1687 0030 49D0     		beq	.L259
 1688 0032 14B1     		cbz	r4, .L260
 1689 0034 022C     		cmp	r4, #2
 1690 0036 63D0     		beq	.L261
 1691 0038 7FE0     		b	.L265
 1692              	.L260:
 1693 003a 694B     		ldr	r3, .L267
 1694 003c 1B68     		ldr	r3, [r3]
 1695 003e 13F0200F 		tst	r3, #32
 1696 0042 23D0     		beq	.L262
 1697 0044 664C     		ldr	r4, .L267
 1698 0046 2368     		ldr	r3, [r4]
 1699 0048 C3F3C101 		ubfx	r1, r3, #3, #2
 1700 004c 654B     		ldr	r3, .L267+4
 1701 004e CB40     		lsrs	r3, r3, r1
 1702 0050 07EE103A 		vmov	s14, r3	@ int
 1703 0054 F8EE476A 		vcvt.f32.u32	s13, s14
 1704 0058 07EE102A 		vmov	s14, r2	@ int
 1705 005c B8EE476A 		vcvt.f32.u32	s12, s14
 1706 0060 86EE867A 		vdiv.f32	s14, s13, s12
 1707 0064 A36B     		ldr	r3, [r4, #56]
 1708 0066 C3F30803 		ubfx	r3, r3, #0, #9
 1709 006a 06EE903A 		vmov	s13, r3	@ int
 1710 006e F8EE666A 		vcvt.f32.u32	s13, s13
 1711 0072 9FED5D6A 		vldr.32	s12, .L267+8
 1712 0076 67EE867A 		vmul.f32	s15, s15, s12
 1713 007a 76EEA77A 		vadd.f32	s15, s13, s15
 1714 007e F7EE006A 		vmov.f32	s13, #1.0e+0
 1715 0082 77EEA67A 		vadd.f32	s15, s15, s13
 1716 0086 67EE277A 		vmul.f32	s15, s14, s15
 1717 008a 72E0     		b	.L263
 1718              	.L262:
 1719 008c 07EE102A 		vmov	s14, r2	@ int
 1720 0090 F8EE476A 		vcvt.f32.u32	s13, s14
 1721 0094 9FED556A 		vldr.32	s12, .L267+12
 1722 0098 86EE267A 		vdiv.f32	s14, s12, s13
 1723 009c 504B     		ldr	r3, .L267
ARM GAS  C:\Users\xiaofei\AppData\Local\Temp\cciqkDQm.s 			page 31


 1724 009e 9B6B     		ldr	r3, [r3, #56]
 1725 00a0 C3F30803 		ubfx	r3, r3, #0, #9
 1726 00a4 06EE903A 		vmov	s13, r3	@ int
 1727 00a8 F8EE666A 		vcvt.f32.u32	s13, s13
 1728 00ac 9FED4E6A 		vldr.32	s12, .L267+8
 1729 00b0 67EE867A 		vmul.f32	s15, s15, s12
 1730 00b4 76EEA77A 		vadd.f32	s15, s13, s15
 1731 00b8 F7EE006A 		vmov.f32	s13, #1.0e+0
 1732 00bc 77EEA67A 		vadd.f32	s15, s15, s13
 1733 00c0 67EE277A 		vmul.f32	s15, s14, s15
 1734 00c4 55E0     		b	.L263
 1735              	.L259:
 1736 00c6 07EE102A 		vmov	s14, r2	@ int
 1737 00ca F8EE476A 		vcvt.f32.u32	s13, s14
 1738 00ce 9FED486A 		vldr.32	s12, .L267+16
 1739 00d2 86EE267A 		vdiv.f32	s14, s12, s13
 1740 00d6 424B     		ldr	r3, .L267
 1741 00d8 9B6B     		ldr	r3, [r3, #56]
 1742 00da C3F30803 		ubfx	r3, r3, #0, #9
 1743 00de 06EE903A 		vmov	s13, r3	@ int
 1744 00e2 F8EE666A 		vcvt.f32.u32	s13, s13
 1745 00e6 9FED406A 		vldr.32	s12, .L267+8
 1746 00ea 67EE867A 		vmul.f32	s15, s15, s12
 1747 00ee 76EEA77A 		vadd.f32	s15, s13, s15
 1748 00f2 F7EE006A 		vmov.f32	s13, #1.0e+0
 1749 00f6 77EEA67A 		vadd.f32	s15, s15, s13
 1750 00fa 67EE277A 		vmul.f32	s15, s14, s15
 1751 00fe 38E0     		b	.L263
 1752              	.L261:
 1753 0100 07EE102A 		vmov	s14, r2	@ int
 1754 0104 F8EE476A 		vcvt.f32.u32	s13, s14
 1755 0108 9FED3A6A 		vldr.32	s12, .L267+20
 1756 010c 86EE267A 		vdiv.f32	s14, s12, s13
 1757 0110 334B     		ldr	r3, .L267
 1758 0112 9B6B     		ldr	r3, [r3, #56]
 1759 0114 C3F30803 		ubfx	r3, r3, #0, #9
 1760 0118 06EE903A 		vmov	s13, r3	@ int
 1761 011c F8EE666A 		vcvt.f32.u32	s13, s13
 1762 0120 9FED316A 		vldr.32	s12, .L267+8
 1763 0124 67EE867A 		vmul.f32	s15, s15, s12
 1764 0128 76EEA77A 		vadd.f32	s15, s13, s15
 1765 012c F7EE006A 		vmov.f32	s13, #1.0e+0
 1766 0130 77EEA67A 		vadd.f32	s15, s15, s13
 1767 0134 67EE277A 		vmul.f32	s15, s14, s15
 1768 0138 1BE0     		b	.L263
 1769              	.L265:
 1770 013a 07EE102A 		vmov	s14, r2	@ int
 1771 013e F8EE476A 		vcvt.f32.u32	s13, s14
 1772 0142 9FED2B6A 		vldr.32	s12, .L267+16
 1773 0146 86EE267A 		vdiv.f32	s14, s12, s13
 1774 014a 254B     		ldr	r3, .L267
 1775 014c 9B6B     		ldr	r3, [r3, #56]
 1776 014e C3F30803 		ubfx	r3, r3, #0, #9
 1777 0152 06EE903A 		vmov	s13, r3	@ int
 1778 0156 F8EE666A 		vcvt.f32.u32	s13, s13
 1779 015a 9FED236A 		vldr.32	s12, .L267+8
 1780 015e 67EE867A 		vmul.f32	s15, s15, s12
ARM GAS  C:\Users\xiaofei\AppData\Local\Temp\cciqkDQm.s 			page 32


 1781 0162 76EEA77A 		vadd.f32	s15, s13, s15
 1782 0166 F7EE006A 		vmov.f32	s13, #1.0e+0
 1783 016a 77EEA67A 		vadd.f32	s15, s15, s13
 1784 016e 67EE277A 		vmul.f32	s15, s14, s15
 1785              	.L263:
 1786 0172 1B4A     		ldr	r2, .L267
 1787 0174 936B     		ldr	r3, [r2, #56]
 1788 0176 C3F34623 		ubfx	r3, r3, #9, #7
 1789 017a 06EE903A 		vmov	s13, r3	@ int
 1790 017e F8EE666A 		vcvt.f32.u32	s13, s13
 1791 0182 B7EE006A 		vmov.f32	s12, #1.0e+0
 1792 0186 76EE866A 		vadd.f32	s13, s13, s12
 1793 018a 87EEA67A 		vdiv.f32	s14, s15, s13
 1794 018e BCEEC77A 		vcvt.u32.f32	s14, s14
 1795 0192 80ED007A 		vstr.32	s14, [r0]	@ int
 1796 0196 936B     		ldr	r3, [r2, #56]
 1797 0198 C3F30643 		ubfx	r3, r3, #16, #7
 1798 019c 06EE903A 		vmov	s13, r3	@ int
 1799 01a0 F8EE666A 		vcvt.f32.u32	s13, s13
 1800 01a4 76EE866A 		vadd.f32	s13, s13, s12
 1801 01a8 87EEA67A 		vdiv.f32	s14, s15, s13
 1802 01ac BCEEC77A 		vcvt.u32.f32	s14, s14
 1803 01b0 80ED017A 		vstr.32	s14, [r0, #4]	@ int
 1804 01b4 936B     		ldr	r3, [r2, #56]
 1805 01b6 C3F30663 		ubfx	r3, r3, #24, #7
 1806 01ba 07EE103A 		vmov	s14, r3	@ int
 1807 01be B8EE477A 		vcvt.f32.u32	s14, s14
 1808 01c2 37EE067A 		vadd.f32	s14, s14, s12
 1809 01c6 C7EE876A 		vdiv.f32	s13, s15, s14
 1810 01ca FCEEE66A 		vcvt.u32.f32	s13, s13
 1811 01ce C0ED026A 		vstr.32	s13, [r0, #8]	@ int
 1812 01d2 03E0     		b	.L256
 1813              	.L257:
 1814 01d4 0023     		movs	r3, #0
 1815 01d6 0360     		str	r3, [r0]
 1816 01d8 4360     		str	r3, [r0, #4]
 1817 01da 8360     		str	r3, [r0, #8]
 1818              	.L256:
 1819 01dc 30BC     		pop	{r4, r5}
 1820 01de 7047     		bx	lr
 1821              	.L268:
 1822              		.align	2
 1823              	.L267:
 1824 01e0 00440258 		.word	1476543488
 1825 01e4 0090D003 		.word	64000000
 1826 01e8 00000039 		.word	956301312
 1827 01ec 0024744C 		.word	1282679808
 1828 01f0 0024744A 		.word	1249125376
 1829 01f4 20BCBE4B 		.word	1270791200
 1831              		.section	.text.HAL_RCCEx_GetPLL3ClockFreq,"ax",%progbits
 1832              		.align	2
 1833              		.global	HAL_RCCEx_GetPLL3ClockFreq
 1834              		.thumb
 1835              		.thumb_func
 1837              	HAL_RCCEx_GetPLL3ClockFreq:
 1838              		@ args = 0, pretend = 0, frame = 0
 1839              		@ frame_needed = 0, uses_anonymous_args = 0
ARM GAS  C:\Users\xiaofei\AppData\Local\Temp\cciqkDQm.s 			page 33


 1840              		@ link register save eliminated.
 1841 0000 30B4     		push	{r4, r5}
 1842 0002 7749     		ldr	r1, .L280
 1843 0004 8C6A     		ldr	r4, [r1, #40]
 1844 0006 8A6A     		ldr	r2, [r1, #40]
 1845 0008 C2F30552 		ubfx	r2, r2, #20, #6
 1846 000c CB6A     		ldr	r3, [r1, #44]
 1847 000e C3F30025 		ubfx	r5, r3, #8, #1
 1848 0012 4B6C     		ldr	r3, [r1, #68]
 1849 0014 C3F3CC03 		ubfx	r3, r3, #3, #13
 1850 0018 03FB05F3 		mul	r3, r3, r5
 1851 001c 002A     		cmp	r2, #0
 1852 001e 00F0D980 		beq	.L270
 1853 0022 04F00304 		and	r4, r4, #3
 1854 0026 07EE903A 		vmov	s15, r3	@ int
 1855 002a F8EE677A 		vcvt.f32.u32	s15, s15
 1856 002e 012C     		cmp	r4, #1
 1857 0030 49D0     		beq	.L272
 1858 0032 14B1     		cbz	r4, .L273
 1859 0034 022C     		cmp	r4, #2
 1860 0036 63D0     		beq	.L274
 1861 0038 7FE0     		b	.L278
 1862              	.L273:
 1863 003a 694B     		ldr	r3, .L280
 1864 003c 1B68     		ldr	r3, [r3]
 1865 003e 13F0200F 		tst	r3, #32
 1866 0042 23D0     		beq	.L275
 1867 0044 664C     		ldr	r4, .L280
 1868 0046 2368     		ldr	r3, [r4]
 1869 0048 C3F3C101 		ubfx	r1, r3, #3, #2
 1870 004c 654B     		ldr	r3, .L280+4
 1871 004e CB40     		lsrs	r3, r3, r1
 1872 0050 07EE103A 		vmov	s14, r3	@ int
 1873 0054 F8EE476A 		vcvt.f32.u32	s13, s14
 1874 0058 07EE102A 		vmov	s14, r2	@ int
 1875 005c B8EE476A 		vcvt.f32.u32	s12, s14
 1876 0060 86EE867A 		vdiv.f32	s14, s13, s12
 1877 0064 236C     		ldr	r3, [r4, #64]
 1878 0066 C3F30803 		ubfx	r3, r3, #0, #9
 1879 006a 06EE903A 		vmov	s13, r3	@ int
 1880 006e F8EE666A 		vcvt.f32.u32	s13, s13
 1881 0072 9FED5D6A 		vldr.32	s12, .L280+8
 1882 0076 67EE867A 		vmul.f32	s15, s15, s12
 1883 007a 76EEA77A 		vadd.f32	s15, s13, s15
 1884 007e F7EE006A 		vmov.f32	s13, #1.0e+0
 1885 0082 77EEA67A 		vadd.f32	s15, s15, s13
 1886 0086 67EE277A 		vmul.f32	s15, s14, s15
 1887 008a 72E0     		b	.L276
 1888              	.L275:
 1889 008c 07EE102A 		vmov	s14, r2	@ int
 1890 0090 F8EE476A 		vcvt.f32.u32	s13, s14
 1891 0094 9FED556A 		vldr.32	s12, .L280+12
 1892 0098 86EE267A 		vdiv.f32	s14, s12, s13
 1893 009c 504B     		ldr	r3, .L280
 1894 009e 1B6C     		ldr	r3, [r3, #64]
 1895 00a0 C3F30803 		ubfx	r3, r3, #0, #9
 1896 00a4 06EE903A 		vmov	s13, r3	@ int
ARM GAS  C:\Users\xiaofei\AppData\Local\Temp\cciqkDQm.s 			page 34


 1897 00a8 F8EE666A 		vcvt.f32.u32	s13, s13
 1898 00ac 9FED4E6A 		vldr.32	s12, .L280+8
 1899 00b0 67EE867A 		vmul.f32	s15, s15, s12
 1900 00b4 76EEA77A 		vadd.f32	s15, s13, s15
 1901 00b8 F7EE006A 		vmov.f32	s13, #1.0e+0
 1902 00bc 77EEA67A 		vadd.f32	s15, s15, s13
 1903 00c0 67EE277A 		vmul.f32	s15, s14, s15
 1904 00c4 55E0     		b	.L276
 1905              	.L272:
 1906 00c6 07EE102A 		vmov	s14, r2	@ int
 1907 00ca F8EE476A 		vcvt.f32.u32	s13, s14
 1908 00ce 9FED486A 		vldr.32	s12, .L280+16
 1909 00d2 86EE267A 		vdiv.f32	s14, s12, s13
 1910 00d6 424B     		ldr	r3, .L280
 1911 00d8 1B6C     		ldr	r3, [r3, #64]
 1912 00da C3F30803 		ubfx	r3, r3, #0, #9
 1913 00de 06EE903A 		vmov	s13, r3	@ int
 1914 00e2 F8EE666A 		vcvt.f32.u32	s13, s13
 1915 00e6 9FED406A 		vldr.32	s12, .L280+8
 1916 00ea 67EE867A 		vmul.f32	s15, s15, s12
 1917 00ee 76EEA77A 		vadd.f32	s15, s13, s15
 1918 00f2 F7EE006A 		vmov.f32	s13, #1.0e+0
 1919 00f6 77EEA67A 		vadd.f32	s15, s15, s13
 1920 00fa 67EE277A 		vmul.f32	s15, s14, s15
 1921 00fe 38E0     		b	.L276
 1922              	.L274:
 1923 0100 07EE102A 		vmov	s14, r2	@ int
 1924 0104 F8EE476A 		vcvt.f32.u32	s13, s14
 1925 0108 9FED3A6A 		vldr.32	s12, .L280+20
 1926 010c 86EE267A 		vdiv.f32	s14, s12, s13
 1927 0110 334B     		ldr	r3, .L280
 1928 0112 1B6C     		ldr	r3, [r3, #64]
 1929 0114 C3F30803 		ubfx	r3, r3, #0, #9
 1930 0118 06EE903A 		vmov	s13, r3	@ int
 1931 011c F8EE666A 		vcvt.f32.u32	s13, s13
 1932 0120 9FED316A 		vldr.32	s12, .L280+8
 1933 0124 67EE867A 		vmul.f32	s15, s15, s12
 1934 0128 76EEA77A 		vadd.f32	s15, s13, s15
 1935 012c F7EE006A 		vmov.f32	s13, #1.0e+0
 1936 0130 77EEA67A 		vadd.f32	s15, s15, s13
 1937 0134 67EE277A 		vmul.f32	s15, s14, s15
 1938 0138 1BE0     		b	.L276
 1939              	.L278:
 1940 013a 07EE102A 		vmov	s14, r2	@ int
 1941 013e F8EE476A 		vcvt.f32.u32	s13, s14
 1942 0142 9FED2B6A 		vldr.32	s12, .L280+16
 1943 0146 86EE267A 		vdiv.f32	s14, s12, s13
 1944 014a 254B     		ldr	r3, .L280
 1945 014c 1B6C     		ldr	r3, [r3, #64]
 1946 014e C3F30803 		ubfx	r3, r3, #0, #9
 1947 0152 06EE903A 		vmov	s13, r3	@ int
 1948 0156 F8EE666A 		vcvt.f32.u32	s13, s13
 1949 015a 9FED236A 		vldr.32	s12, .L280+8
 1950 015e 67EE867A 		vmul.f32	s15, s15, s12
 1951 0162 76EEA77A 		vadd.f32	s15, s13, s15
 1952 0166 F7EE006A 		vmov.f32	s13, #1.0e+0
 1953 016a 77EEA67A 		vadd.f32	s15, s15, s13
ARM GAS  C:\Users\xiaofei\AppData\Local\Temp\cciqkDQm.s 			page 35


 1954 016e 67EE277A 		vmul.f32	s15, s14, s15
 1955              	.L276:
 1956 0172 1B4A     		ldr	r2, .L280
 1957 0174 136C     		ldr	r3, [r2, #64]
 1958 0176 C3F34623 		ubfx	r3, r3, #9, #7
 1959 017a 06EE903A 		vmov	s13, r3	@ int
 1960 017e F8EE666A 		vcvt.f32.u32	s13, s13
 1961 0182 B7EE006A 		vmov.f32	s12, #1.0e+0
 1962 0186 76EE866A 		vadd.f32	s13, s13, s12
 1963 018a 87EEA67A 		vdiv.f32	s14, s15, s13
 1964 018e BCEEC77A 		vcvt.u32.f32	s14, s14
 1965 0192 80ED007A 		vstr.32	s14, [r0]	@ int
 1966 0196 136C     		ldr	r3, [r2, #64]
 1967 0198 C3F30643 		ubfx	r3, r3, #16, #7
 1968 019c 06EE903A 		vmov	s13, r3	@ int
 1969 01a0 F8EE666A 		vcvt.f32.u32	s13, s13
 1970 01a4 76EE866A 		vadd.f32	s13, s13, s12
 1971 01a8 87EEA67A 		vdiv.f32	s14, s15, s13
 1972 01ac BCEEC77A 		vcvt.u32.f32	s14, s14
 1973 01b0 80ED017A 		vstr.32	s14, [r0, #4]	@ int
 1974 01b4 136C     		ldr	r3, [r2, #64]
 1975 01b6 C3F30663 		ubfx	r3, r3, #24, #7
 1976 01ba 07EE103A 		vmov	s14, r3	@ int
 1977 01be B8EE477A 		vcvt.f32.u32	s14, s14
 1978 01c2 37EE067A 		vadd.f32	s14, s14, s12
 1979 01c6 C7EE876A 		vdiv.f32	s13, s15, s14
 1980 01ca FCEEE66A 		vcvt.u32.f32	s13, s13
 1981 01ce C0ED026A 		vstr.32	s13, [r0, #8]	@ int
 1982 01d2 03E0     		b	.L269
 1983              	.L270:
 1984 01d4 0023     		movs	r3, #0
 1985 01d6 0360     		str	r3, [r0]
 1986 01d8 4360     		str	r3, [r0, #4]
 1987 01da 8360     		str	r3, [r0, #8]
 1988              	.L269:
 1989 01dc 30BC     		pop	{r4, r5}
 1990 01de 7047     		bx	lr
 1991              	.L281:
 1992              		.align	2
 1993              	.L280:
 1994 01e0 00440258 		.word	1476543488
 1995 01e4 0090D003 		.word	64000000
 1996 01e8 00000039 		.word	956301312
 1997 01ec 0024744C 		.word	1282679808
 1998 01f0 0024744A 		.word	1249125376
 1999 01f4 20BCBE4B 		.word	1270791200
 2001              		.section	.text.HAL_RCCEx_GetPLL1ClockFreq,"ax",%progbits
 2002              		.align	2
 2003              		.global	HAL_RCCEx_GetPLL1ClockFreq
 2004              		.thumb
 2005              		.thumb_func
 2007              	HAL_RCCEx_GetPLL1ClockFreq:
 2008              		@ args = 0, pretend = 0, frame = 0
 2009              		@ frame_needed = 0, uses_anonymous_args = 0
 2010              		@ link register save eliminated.
 2011 0000 30B4     		push	{r4, r5}
 2012 0002 7749     		ldr	r1, .L293
ARM GAS  C:\Users\xiaofei\AppData\Local\Temp\cciqkDQm.s 			page 36


 2013 0004 8C6A     		ldr	r4, [r1, #40]
 2014 0006 8A6A     		ldr	r2, [r1, #40]
 2015 0008 C2F30512 		ubfx	r2, r2, #4, #6
 2016 000c CB6A     		ldr	r3, [r1, #44]
 2017 000e 03F00105 		and	r5, r3, #1
 2018 0012 4B6B     		ldr	r3, [r1, #52]
 2019 0014 C3F3CC03 		ubfx	r3, r3, #3, #13
 2020 0018 03FB05F3 		mul	r3, r3, r5
 2021 001c 002A     		cmp	r2, #0
 2022 001e 00F0D980 		beq	.L283
 2023 0022 04F00304 		and	r4, r4, #3
 2024 0026 07EE903A 		vmov	s15, r3	@ int
 2025 002a F8EE677A 		vcvt.f32.u32	s15, s15
 2026 002e 012C     		cmp	r4, #1
 2027 0030 49D0     		beq	.L285
 2028 0032 14B1     		cbz	r4, .L286
 2029 0034 022C     		cmp	r4, #2
 2030 0036 63D0     		beq	.L287
 2031 0038 7FE0     		b	.L291
 2032              	.L286:
 2033 003a 694B     		ldr	r3, .L293
 2034 003c 1B68     		ldr	r3, [r3]
 2035 003e 13F0200F 		tst	r3, #32
 2036 0042 23D0     		beq	.L288
 2037 0044 664C     		ldr	r4, .L293
 2038 0046 2368     		ldr	r3, [r4]
 2039 0048 C3F3C101 		ubfx	r1, r3, #3, #2
 2040 004c 654B     		ldr	r3, .L293+4
 2041 004e CB40     		lsrs	r3, r3, r1
 2042 0050 07EE103A 		vmov	s14, r3	@ int
 2043 0054 F8EE476A 		vcvt.f32.u32	s13, s14
 2044 0058 07EE102A 		vmov	s14, r2	@ int
 2045 005c B8EE476A 		vcvt.f32.u32	s12, s14
 2046 0060 86EE867A 		vdiv.f32	s14, s13, s12
 2047 0064 236B     		ldr	r3, [r4, #48]
 2048 0066 C3F30803 		ubfx	r3, r3, #0, #9
 2049 006a 06EE903A 		vmov	s13, r3	@ int
 2050 006e F8EE666A 		vcvt.f32.u32	s13, s13
 2051 0072 9FED5D6A 		vldr.32	s12, .L293+8
 2052 0076 67EE867A 		vmul.f32	s15, s15, s12
 2053 007a 76EEA77A 		vadd.f32	s15, s13, s15
 2054 007e F7EE006A 		vmov.f32	s13, #1.0e+0
 2055 0082 77EEA67A 		vadd.f32	s15, s15, s13
 2056 0086 67EE277A 		vmul.f32	s15, s14, s15
 2057 008a 72E0     		b	.L289
 2058              	.L288:
 2059 008c 07EE102A 		vmov	s14, r2	@ int
 2060 0090 F8EE476A 		vcvt.f32.u32	s13, s14
 2061 0094 9FED556A 		vldr.32	s12, .L293+12
 2062 0098 86EE267A 		vdiv.f32	s14, s12, s13
 2063 009c 504B     		ldr	r3, .L293
 2064 009e 1B6B     		ldr	r3, [r3, #48]
 2065 00a0 C3F30803 		ubfx	r3, r3, #0, #9
 2066 00a4 06EE903A 		vmov	s13, r3	@ int
 2067 00a8 F8EE666A 		vcvt.f32.u32	s13, s13
 2068 00ac 9FED4E6A 		vldr.32	s12, .L293+8
 2069 00b0 67EE867A 		vmul.f32	s15, s15, s12
ARM GAS  C:\Users\xiaofei\AppData\Local\Temp\cciqkDQm.s 			page 37


 2070 00b4 76EEA77A 		vadd.f32	s15, s13, s15
 2071 00b8 F7EE006A 		vmov.f32	s13, #1.0e+0
 2072 00bc 77EEA67A 		vadd.f32	s15, s15, s13
 2073 00c0 67EE277A 		vmul.f32	s15, s14, s15
 2074 00c4 55E0     		b	.L289
 2075              	.L285:
 2076 00c6 07EE102A 		vmov	s14, r2	@ int
 2077 00ca F8EE476A 		vcvt.f32.u32	s13, s14
 2078 00ce 9FED486A 		vldr.32	s12, .L293+16
 2079 00d2 86EE267A 		vdiv.f32	s14, s12, s13
 2080 00d6 424B     		ldr	r3, .L293
 2081 00d8 1B6B     		ldr	r3, [r3, #48]
 2082 00da C3F30803 		ubfx	r3, r3, #0, #9
 2083 00de 06EE903A 		vmov	s13, r3	@ int
 2084 00e2 F8EE666A 		vcvt.f32.u32	s13, s13
 2085 00e6 9FED406A 		vldr.32	s12, .L293+8
 2086 00ea 67EE867A 		vmul.f32	s15, s15, s12
 2087 00ee 76EEA77A 		vadd.f32	s15, s13, s15
 2088 00f2 F7EE006A 		vmov.f32	s13, #1.0e+0
 2089 00f6 77EEA67A 		vadd.f32	s15, s15, s13
 2090 00fa 67EE277A 		vmul.f32	s15, s14, s15
 2091 00fe 38E0     		b	.L289
 2092              	.L287:
 2093 0100 07EE102A 		vmov	s14, r2	@ int
 2094 0104 F8EE476A 		vcvt.f32.u32	s13, s14
 2095 0108 9FED3A6A 		vldr.32	s12, .L293+20
 2096 010c 86EE267A 		vdiv.f32	s14, s12, s13
 2097 0110 334B     		ldr	r3, .L293
 2098 0112 1B6B     		ldr	r3, [r3, #48]
 2099 0114 C3F30803 		ubfx	r3, r3, #0, #9
 2100 0118 06EE903A 		vmov	s13, r3	@ int
 2101 011c F8EE666A 		vcvt.f32.u32	s13, s13
 2102 0120 9FED316A 		vldr.32	s12, .L293+8
 2103 0124 67EE867A 		vmul.f32	s15, s15, s12
 2104 0128 76EEA77A 		vadd.f32	s15, s13, s15
 2105 012c F7EE006A 		vmov.f32	s13, #1.0e+0
 2106 0130 77EEA67A 		vadd.f32	s15, s15, s13
 2107 0134 67EE277A 		vmul.f32	s15, s14, s15
 2108 0138 1BE0     		b	.L289
 2109              	.L291:
 2110 013a 07EE102A 		vmov	s14, r2	@ int
 2111 013e F8EE476A 		vcvt.f32.u32	s13, s14
 2112 0142 9FED2B6A 		vldr.32	s12, .L293+16
 2113 0146 86EE267A 		vdiv.f32	s14, s12, s13
 2114 014a 254B     		ldr	r3, .L293
 2115 014c 1B6B     		ldr	r3, [r3, #48]
 2116 014e C3F30803 		ubfx	r3, r3, #0, #9
 2117 0152 06EE903A 		vmov	s13, r3	@ int
 2118 0156 F8EE666A 		vcvt.f32.u32	s13, s13
 2119 015a 9FED236A 		vldr.32	s12, .L293+8
 2120 015e 67EE867A 		vmul.f32	s15, s15, s12
 2121 0162 76EEA77A 		vadd.f32	s15, s13, s15
 2122 0166 F7EE006A 		vmov.f32	s13, #1.0e+0
 2123 016a 77EEA67A 		vadd.f32	s15, s15, s13
 2124 016e 67EE277A 		vmul.f32	s15, s14, s15
 2125              	.L289:
 2126 0172 1B4A     		ldr	r2, .L293
ARM GAS  C:\Users\xiaofei\AppData\Local\Temp\cciqkDQm.s 			page 38


 2127 0174 136B     		ldr	r3, [r2, #48]
 2128 0176 C3F34623 		ubfx	r3, r3, #9, #7
 2129 017a 06EE903A 		vmov	s13, r3	@ int
 2130 017e F8EE666A 		vcvt.f32.u32	s13, s13
 2131 0182 B7EE006A 		vmov.f32	s12, #1.0e+0
 2132 0186 76EE866A 		vadd.f32	s13, s13, s12
 2133 018a 87EEA67A 		vdiv.f32	s14, s15, s13
 2134 018e BCEEC77A 		vcvt.u32.f32	s14, s14
 2135 0192 80ED007A 		vstr.32	s14, [r0]	@ int
 2136 0196 136B     		ldr	r3, [r2, #48]
 2137 0198 C3F30643 		ubfx	r3, r3, #16, #7
 2138 019c 06EE903A 		vmov	s13, r3	@ int
 2139 01a0 F8EE666A 		vcvt.f32.u32	s13, s13
 2140 01a4 76EE866A 		vadd.f32	s13, s13, s12
 2141 01a8 87EEA67A 		vdiv.f32	s14, s15, s13
 2142 01ac BCEEC77A 		vcvt.u32.f32	s14, s14
 2143 01b0 80ED017A 		vstr.32	s14, [r0, #4]	@ int
 2144 01b4 136B     		ldr	r3, [r2, #48]
 2145 01b6 C3F30663 		ubfx	r3, r3, #24, #7
 2146 01ba 07EE103A 		vmov	s14, r3	@ int
 2147 01be B8EE477A 		vcvt.f32.u32	s14, s14
 2148 01c2 37EE067A 		vadd.f32	s14, s14, s12
 2149 01c6 C7EE876A 		vdiv.f32	s13, s15, s14
 2150 01ca FCEEE66A 		vcvt.u32.f32	s13, s13
 2151 01ce C0ED026A 		vstr.32	s13, [r0, #8]	@ int
 2152 01d2 03E0     		b	.L282
 2153              	.L283:
 2154 01d4 0023     		movs	r3, #0
 2155 01d6 0360     		str	r3, [r0]
 2156 01d8 4360     		str	r3, [r0, #4]
 2157 01da 8360     		str	r3, [r0, #8]
 2158              	.L282:
 2159 01dc 30BC     		pop	{r4, r5}
 2160 01de 7047     		bx	lr
 2161              	.L294:
 2162              		.align	2
 2163              	.L293:
 2164 01e0 00440258 		.word	1476543488
 2165 01e4 0090D003 		.word	64000000
 2166 01e8 00000039 		.word	956301312
 2167 01ec 0024744C 		.word	1282679808
 2168 01f0 0024744A 		.word	1249125376
 2169 01f4 20BCBE4B 		.word	1270791200
 2171              		.section	.text.HAL_RCCEx_GetPeriphCLKFreq,"ax",%progbits
 2172              		.align	2
 2173              		.global	HAL_RCCEx_GetPeriphCLKFreq
 2174              		.thumb
 2175              		.thumb_func
 2177              	HAL_RCCEx_GetPeriphCLKFreq:
 2178              		@ args = 0, pretend = 0, frame = 40
 2179              		@ frame_needed = 0, uses_anonymous_args = 0
 2180 0000 00B5     		push	{lr}
 2181 0002 8BB0     		sub	sp, sp, #44
 2182 0004 B0F5807F 		cmp	r0, #256
 2183 0008 2CD1     		bne	.L296
 2184 000a A24B     		ldr	r3, .L376
 2185 000c 1B6D     		ldr	r3, [r3, #80]
ARM GAS  C:\Users\xiaofei\AppData\Local\Temp\cciqkDQm.s 			page 39


 2186 000e 03F00703 		and	r3, r3, #7
 2187 0012 042B     		cmp	r3, #4
 2188 0014 00F27081 		bhi	.L346
 2189 0018 DFE803F0 		tbb	[pc, r3]
 2190              	.L299:
 2191 001c 05       		.byte	(.L298-.L299)/2
 2192 001d 0A       		.byte	(.L300-.L299)/2
 2193 001e 0F       		.byte	(.L301-.L299)/2
 2194 001f 03       		.byte	(.L302-.L299)/2
 2195 0020 14       		.byte	(.L303-.L299)/2
 2196 0021 00       		.p2align 1
 2197              	.L302:
 2198 0022 9D48     		ldr	r0, .L376+4
 2199 0024 9DE1     		b	.L297
 2200              	.L298:
 2201 0026 07A8     		add	r0, sp, #28
 2202 0028 FFF7FEFF 		bl	HAL_RCCEx_GetPLL1ClockFreq
 2203 002c 0898     		ldr	r0, [sp, #32]
 2204 002e 98E1     		b	.L297
 2205              	.L300:
 2206 0030 04A8     		add	r0, sp, #16
 2207 0032 FFF7FEFF 		bl	HAL_RCCEx_GetPLL2ClockFreq
 2208 0036 0498     		ldr	r0, [sp, #16]
 2209 0038 93E1     		b	.L297
 2210              	.L301:
 2211 003a 01A8     		add	r0, sp, #4
 2212 003c FFF7FEFF 		bl	HAL_RCCEx_GetPLL3ClockFreq
 2213 0040 0198     		ldr	r0, [sp, #4]
 2214 0042 8EE1     		b	.L297
 2215              	.L303:
 2216 0044 934B     		ldr	r3, .L376
 2217 0046 DB6C     		ldr	r3, [r3, #76]
 2218 0048 13F04053 		ands	r3, r3, #805306368
 2219 004c 00F05681 		beq	.L347
 2220 0050 B3F1805F 		cmp	r3, #268435456
 2221 0054 00F05481 		beq	.L348
 2222 0058 B3F1005F 		cmp	r3, #536870912
 2223 005c 40F05281 		bne	.L349
 2224 0060 8E48     		ldr	r0, .L376+8
 2225 0062 7EE1     		b	.L297
 2226              	.L296:
 2227 0064 B0F5007F 		cmp	r0, #512
 2228 0068 31D1     		bne	.L304
 2229 006a 8A4B     		ldr	r3, .L376
 2230 006c 1B6D     		ldr	r3, [r3, #80]
 2231 006e 03F4E073 		and	r3, r3, #448
 2232 0072 802B     		cmp	r3, #128
 2233 0074 16D0     		beq	.L305
 2234 0076 03D8     		bhi	.L306
 2235 0078 53B1     		cbz	r3, .L307
 2236 007a 402B     		cmp	r3, #64
 2237 007c 0DD0     		beq	.L308
 2238 007e 43E1     		b	.L350
 2239              	.L306:
 2240 0080 C02B     		cmp	r3, #192
 2241 0082 03D0     		beq	.L309
 2242 0084 B3F5807F 		cmp	r3, #256
ARM GAS  C:\Users\xiaofei\AppData\Local\Temp\cciqkDQm.s 			page 40


 2243 0088 11D0     		beq	.L310
 2244 008a 3DE1     		b	.L350
 2245              	.L309:
 2246 008c 8248     		ldr	r0, .L376+4
 2247 008e 68E1     		b	.L297
 2248              	.L307:
 2249 0090 07A8     		add	r0, sp, #28
 2250 0092 FFF7FEFF 		bl	HAL_RCCEx_GetPLL1ClockFreq
 2251 0096 0898     		ldr	r0, [sp, #32]
 2252 0098 63E1     		b	.L297
 2253              	.L308:
 2254 009a 04A8     		add	r0, sp, #16
 2255 009c FFF7FEFF 		bl	HAL_RCCEx_GetPLL2ClockFreq
 2256 00a0 0498     		ldr	r0, [sp, #16]
 2257 00a2 5EE1     		b	.L297
 2258              	.L305:
 2259 00a4 01A8     		add	r0, sp, #4
 2260 00a6 FFF7FEFF 		bl	HAL_RCCEx_GetPLL3ClockFreq
 2261 00aa 0198     		ldr	r0, [sp, #4]
 2262 00ac 59E1     		b	.L297
 2263              	.L310:
 2264 00ae 794B     		ldr	r3, .L376
 2265 00b0 DB6C     		ldr	r3, [r3, #76]
 2266 00b2 13F04053 		ands	r3, r3, #805306368
 2267 00b6 00F02981 		beq	.L351
 2268 00ba B3F1805F 		cmp	r3, #268435456
 2269 00be 00F02781 		beq	.L352
 2270 00c2 B3F1005F 		cmp	r3, #536870912
 2271 00c6 40F02581 		bne	.L353
 2272 00ca 7448     		ldr	r0, .L376+8
 2273 00cc 49E1     		b	.L297
 2274              	.L304:
 2275 00ce B0F5806F 		cmp	r0, #1024
 2276 00d2 34D1     		bne	.L311
 2277 00d4 6F4B     		ldr	r3, .L376
 2278 00d6 9B6D     		ldr	r3, [r3, #88]
 2279 00d8 03F46003 		and	r3, r3, #14680064
 2280 00dc B3F5800F 		cmp	r3, #4194304
 2281 00e0 18D0     		beq	.L312
 2282 00e2 04D8     		bhi	.L313
 2283 00e4 63B1     		cbz	r3, .L314
 2284 00e6 B3F5001F 		cmp	r3, #2097152
 2285 00ea 0ED0     		beq	.L315
 2286 00ec 14E1     		b	.L354
 2287              	.L313:
 2288 00ee B3F5C00F 		cmp	r3, #6291456
 2289 00f2 03D0     		beq	.L316
 2290 00f4 B3F5000F 		cmp	r3, #8388608
 2291 00f8 11D0     		beq	.L317
 2292 00fa 0DE1     		b	.L354
 2293              	.L316:
 2294 00fc 6648     		ldr	r0, .L376+4
 2295 00fe 30E1     		b	.L297
 2296              	.L314:
 2297 0100 07A8     		add	r0, sp, #28
 2298 0102 FFF7FEFF 		bl	HAL_RCCEx_GetPLL1ClockFreq
 2299 0106 0898     		ldr	r0, [sp, #32]
ARM GAS  C:\Users\xiaofei\AppData\Local\Temp\cciqkDQm.s 			page 41


 2300 0108 2BE1     		b	.L297
 2301              	.L315:
 2302 010a 04A8     		add	r0, sp, #16
 2303 010c FFF7FEFF 		bl	HAL_RCCEx_GetPLL2ClockFreq
 2304 0110 0498     		ldr	r0, [sp, #16]
 2305 0112 26E1     		b	.L297
 2306              	.L312:
 2307 0114 01A8     		add	r0, sp, #4
 2308 0116 FFF7FEFF 		bl	HAL_RCCEx_GetPLL3ClockFreq
 2309 011a 0198     		ldr	r0, [sp, #4]
 2310 011c 21E1     		b	.L297
 2311              	.L317:
 2312 011e 5D4B     		ldr	r3, .L376
 2313 0120 DB6C     		ldr	r3, [r3, #76]
 2314 0122 13F04053 		ands	r3, r3, #805306368
 2315 0126 00F0F980 		beq	.L355
 2316 012a B3F1805F 		cmp	r3, #268435456
 2317 012e 00F0F780 		beq	.L356
 2318 0132 B3F1005F 		cmp	r3, #536870912
 2319 0136 40F0F580 		bne	.L357
 2320 013a 5848     		ldr	r0, .L376+8
 2321 013c 11E1     		b	.L297
 2322              	.L311:
 2323 013e B0F5006F 		cmp	r0, #2048
 2324 0142 34D1     		bne	.L318
 2325 0144 534B     		ldr	r3, .L376
 2326 0146 9B6D     		ldr	r3, [r3, #88]
 2327 0148 03F0E063 		and	r3, r3, #117440512
 2328 014c B3F1007F 		cmp	r3, #33554432
 2329 0150 18D0     		beq	.L319
 2330 0152 04D8     		bhi	.L320
 2331 0154 63B1     		cbz	r3, .L321
 2332 0156 B3F1807F 		cmp	r3, #16777216
 2333 015a 0ED0     		beq	.L322
 2334 015c E4E0     		b	.L358
 2335              	.L320:
 2336 015e B3F1407F 		cmp	r3, #50331648
 2337 0162 03D0     		beq	.L323
 2338 0164 B3F1806F 		cmp	r3, #67108864
 2339 0168 11D0     		beq	.L324
 2340 016a DDE0     		b	.L358
 2341              	.L323:
 2342 016c 4A48     		ldr	r0, .L376+4
 2343 016e F8E0     		b	.L297
 2344              	.L321:
 2345 0170 07A8     		add	r0, sp, #28
 2346 0172 FFF7FEFF 		bl	HAL_RCCEx_GetPLL1ClockFreq
 2347 0176 0898     		ldr	r0, [sp, #32]
 2348 0178 F3E0     		b	.L297
 2349              	.L322:
 2350 017a 04A8     		add	r0, sp, #16
 2351 017c FFF7FEFF 		bl	HAL_RCCEx_GetPLL2ClockFreq
 2352 0180 0498     		ldr	r0, [sp, #16]
 2353 0182 EEE0     		b	.L297
 2354              	.L319:
 2355 0184 01A8     		add	r0, sp, #4
 2356 0186 FFF7FEFF 		bl	HAL_RCCEx_GetPLL3ClockFreq
ARM GAS  C:\Users\xiaofei\AppData\Local\Temp\cciqkDQm.s 			page 42


 2357 018a 0198     		ldr	r0, [sp, #4]
 2358 018c E9E0     		b	.L297
 2359              	.L324:
 2360 018e 414B     		ldr	r3, .L376
 2361 0190 DB6C     		ldr	r3, [r3, #76]
 2362 0192 13F04053 		ands	r3, r3, #805306368
 2363 0196 00F0C980 		beq	.L359
 2364 019a B3F1805F 		cmp	r3, #268435456
 2365 019e 00F0C780 		beq	.L360
 2366 01a2 B3F1005F 		cmp	r3, #536870912
 2367 01a6 40F0C580 		bne	.L361
 2368 01aa 3C48     		ldr	r0, .L376+8
 2369 01ac D9E0     		b	.L297
 2370              	.L318:
 2371 01ae B0F5805F 		cmp	r0, #4096
 2372 01b2 34D1     		bne	.L325
 2373 01b4 374B     		ldr	r3, .L376
 2374 01b6 1B6D     		ldr	r3, [r3, #80]
 2375 01b8 03F4E043 		and	r3, r3, #28672
 2376 01bc B3F5005F 		cmp	r3, #8192
 2377 01c0 18D0     		beq	.L326
 2378 01c2 04D8     		bhi	.L327
 2379 01c4 63B1     		cbz	r3, .L328
 2380 01c6 B3F5805F 		cmp	r3, #4096
 2381 01ca 0ED0     		beq	.L329
 2382 01cc B4E0     		b	.L362
 2383              	.L327:
 2384 01ce B3F5405F 		cmp	r3, #12288
 2385 01d2 03D0     		beq	.L330
 2386 01d4 B3F5804F 		cmp	r3, #16384
 2387 01d8 11D0     		beq	.L331
 2388 01da ADE0     		b	.L362
 2389              	.L330:
 2390 01dc 2E48     		ldr	r0, .L376+4
 2391 01de C0E0     		b	.L297
 2392              	.L328:
 2393 01e0 07A8     		add	r0, sp, #28
 2394 01e2 FFF7FEFF 		bl	HAL_RCCEx_GetPLL1ClockFreq
 2395 01e6 0898     		ldr	r0, [sp, #32]
 2396 01e8 BBE0     		b	.L297
 2397              	.L329:
 2398 01ea 04A8     		add	r0, sp, #16
 2399 01ec FFF7FEFF 		bl	HAL_RCCEx_GetPLL2ClockFreq
 2400 01f0 0498     		ldr	r0, [sp, #16]
 2401 01f2 B6E0     		b	.L297
 2402              	.L326:
 2403 01f4 01A8     		add	r0, sp, #4
 2404 01f6 FFF7FEFF 		bl	HAL_RCCEx_GetPLL3ClockFreq
 2405 01fa 0198     		ldr	r0, [sp, #4]
 2406 01fc B1E0     		b	.L297
 2407              	.L331:
 2408 01fe 254B     		ldr	r3, .L376
 2409 0200 DB6C     		ldr	r3, [r3, #76]
 2410 0202 13F04053 		ands	r3, r3, #805306368
 2411 0206 00F09980 		beq	.L363
 2412 020a B3F1805F 		cmp	r3, #268435456
 2413 020e 00F09780 		beq	.L364
ARM GAS  C:\Users\xiaofei\AppData\Local\Temp\cciqkDQm.s 			page 43


 2414 0212 B3F1005F 		cmp	r3, #536870912
 2415 0216 40F09580 		bne	.L365
 2416 021a 2048     		ldr	r0, .L376+8
 2417 021c A1E0     		b	.L297
 2418              	.L325:
 2419 021e B0F5002F 		cmp	r0, #524288
 2420 0222 23D1     		bne	.L332
 2421 0224 1B4B     		ldr	r3, .L376
 2422 0226 9B6D     		ldr	r3, [r3, #88]
 2423 0228 03F44033 		and	r3, r3, #196608
 2424 022c B3F5803F 		cmp	r3, #65536
 2425 0230 0AD0     		beq	.L333
 2426 0232 B3F5003F 		cmp	r3, #131072
 2427 0236 0CD0     		beq	.L334
 2428 0238 002B     		cmp	r3, #0
 2429 023a 40F08580 		bne	.L373
 2430 023e 04A8     		add	r0, sp, #16
 2431 0240 FFF7FEFF 		bl	HAL_RCCEx_GetPLL2ClockFreq
 2432 0244 0498     		ldr	r0, [sp, #16]
 2433 0246 8CE0     		b	.L297
 2434              	.L333:
 2435 0248 01A8     		add	r0, sp, #4
 2436 024a FFF7FEFF 		bl	HAL_RCCEx_GetPLL3ClockFreq
 2437 024e 0398     		ldr	r0, [sp, #12]
 2438 0250 87E0     		b	.L297
 2439              	.L334:
 2440 0252 104B     		ldr	r3, .L376
 2441 0254 DB6C     		ldr	r3, [r3, #76]
 2442 0256 13F04053 		ands	r3, r3, #805306368
 2443 025a 77D0     		beq	.L367
 2444 025c B3F1805F 		cmp	r3, #268435456
 2445 0260 76D0     		beq	.L368
 2446 0262 B3F1005F 		cmp	r3, #536870912
 2447 0266 75D1     		bne	.L369
 2448 0268 0C48     		ldr	r0, .L376+8
 2449 026a 7AE0     		b	.L297
 2450              	.L332:
 2451 026c B0F5803F 		cmp	r0, #65536
 2452 0270 16D1     		bne	.L336
 2453 0272 084B     		ldr	r3, .L376
 2454 0274 DB6C     		ldr	r3, [r3, #76]
 2455 0276 13F48033 		ands	r3, r3, #65536
 2456 027a 01D0     		beq	.L337
 2457 027c 2BB9     		cbnz	r3, .L338
 2458 027e 6BE0     		b	.L374
 2459              	.L337:
 2460 0280 07A8     		add	r0, sp, #28
 2461 0282 FFF7FEFF 		bl	HAL_RCCEx_GetPLL1ClockFreq
 2462 0286 0898     		ldr	r0, [sp, #32]
 2463 0288 6BE0     		b	.L297
 2464              	.L338:
 2465 028a 04A8     		add	r0, sp, #16
 2466 028c FFF7FEFF 		bl	HAL_RCCEx_GetPLL2ClockFreq
 2467 0290 0698     		ldr	r0, [sp, #24]
 2468 0292 66E0     		b	.L297
 2469              	.L377:
 2470              		.align	2
ARM GAS  C:\Users\xiaofei\AppData\Local\Temp\cciqkDQm.s 			page 44


 2471              	.L376:
 2472 0294 00440258 		.word	1476543488
 2473 0298 0080BB00 		.word	12288000
 2474 029c 40787D01 		.word	25000000
 2475              	.L336:
 2476 02a0 B0F5804F 		cmp	r0, #16384
 2477 02a4 5AD1     		bne	.L371
 2478 02a6 304B     		ldr	r3, .L378
 2479 02a8 9B6D     		ldr	r3, [r3, #88]
 2480 02aa 03F0E043 		and	r3, r3, #1879048192
 2481 02ae B3F1005F 		cmp	r3, #536870912
 2482 02b2 18D0     		beq	.L340
 2483 02b4 04D8     		bhi	.L341
 2484 02b6 73B1     		cbz	r3, .L342
 2485 02b8 B3F1805F 		cmp	r3, #268435456
 2486 02bc 0ED0     		beq	.L343
 2487 02be 19E0     		b	.L339
 2488              	.L341:
 2489 02c0 B3F1804F 		cmp	r3, #1073741824
 2490 02c4 4CD0     		beq	.L372
 2491 02c6 B3F1A04F 		cmp	r3, #1342177280
 2492 02ca 11D0     		beq	.L344
 2493 02cc B3F1405F 		cmp	r3, #805306368
 2494 02d0 10D1     		bne	.L339
 2495 02d2 2648     		ldr	r0, .L378+4
 2496 02d4 45E0     		b	.L297
 2497              	.L342:
 2498 02d6 FFF7FEFF 		bl	HAL_RCCEx_GetD3PCLK1Freq
 2499 02da 42E0     		b	.L297
 2500              	.L343:
 2501 02dc 04A8     		add	r0, sp, #16
 2502 02de FFF7FEFF 		bl	HAL_RCCEx_GetPLL2ClockFreq
 2503 02e2 0598     		ldr	r0, [sp, #20]
 2504 02e4 3DE0     		b	.L297
 2505              	.L340:
 2506 02e6 01A8     		add	r0, sp, #4
 2507 02e8 FFF7FEFF 		bl	HAL_RCCEx_GetPLL3ClockFreq
 2508 02ec 0298     		ldr	r0, [sp, #8]
 2509 02ee 38E0     		b	.L297
 2510              	.L344:
 2511 02f0 1F48     		ldr	r0, .L378+8
 2512 02f2 36E0     		b	.L297
 2513              	.L339:
 2514 02f4 0020     		movs	r0, #0
 2515 02f6 34E0     		b	.L297
 2516              	.L346:
 2517 02f8 0020     		movs	r0, #0
 2518 02fa 32E0     		b	.L297
 2519              	.L347:
 2520 02fc 1B48     		ldr	r0, .L378+4
 2521 02fe 30E0     		b	.L297
 2522              	.L348:
 2523 0300 1C48     		ldr	r0, .L378+12
 2524 0302 2EE0     		b	.L297
 2525              	.L349:
 2526 0304 0020     		movs	r0, #0
 2527 0306 2CE0     		b	.L297
ARM GAS  C:\Users\xiaofei\AppData\Local\Temp\cciqkDQm.s 			page 45


 2528              	.L350:
 2529 0308 0020     		movs	r0, #0
 2530 030a 2AE0     		b	.L297
 2531              	.L351:
 2532 030c 1748     		ldr	r0, .L378+4
 2533 030e 28E0     		b	.L297
 2534              	.L352:
 2535 0310 1848     		ldr	r0, .L378+12
 2536 0312 26E0     		b	.L297
 2537              	.L353:
 2538 0314 0020     		movs	r0, #0
 2539 0316 24E0     		b	.L297
 2540              	.L354:
 2541 0318 0020     		movs	r0, #0
 2542 031a 22E0     		b	.L297
 2543              	.L355:
 2544 031c 1348     		ldr	r0, .L378+4
 2545 031e 20E0     		b	.L297
 2546              	.L356:
 2547 0320 1448     		ldr	r0, .L378+12
 2548 0322 1EE0     		b	.L297
 2549              	.L357:
 2550 0324 0020     		movs	r0, #0
 2551 0326 1CE0     		b	.L297
 2552              	.L358:
 2553 0328 0020     		movs	r0, #0
 2554 032a 1AE0     		b	.L297
 2555              	.L359:
 2556 032c 0F48     		ldr	r0, .L378+4
 2557 032e 18E0     		b	.L297
 2558              	.L360:
 2559 0330 1048     		ldr	r0, .L378+12
 2560 0332 16E0     		b	.L297
 2561              	.L361:
 2562 0334 0020     		movs	r0, #0
 2563 0336 14E0     		b	.L297
 2564              	.L362:
 2565 0338 0020     		movs	r0, #0
 2566 033a 12E0     		b	.L297
 2567              	.L363:
 2568 033c 0B48     		ldr	r0, .L378+4
 2569 033e 10E0     		b	.L297
 2570              	.L364:
 2571 0340 0C48     		ldr	r0, .L378+12
 2572 0342 0EE0     		b	.L297
 2573              	.L365:
 2574 0344 0020     		movs	r0, #0
 2575 0346 0CE0     		b	.L297
 2576              	.L373:
 2577 0348 0020     		movs	r0, #0
 2578 034a 0AE0     		b	.L297
 2579              	.L367:
 2580 034c 0748     		ldr	r0, .L378+4
 2581 034e 08E0     		b	.L297
 2582              	.L368:
 2583 0350 0848     		ldr	r0, .L378+12
 2584 0352 06E0     		b	.L297
ARM GAS  C:\Users\xiaofei\AppData\Local\Temp\cciqkDQm.s 			page 46


 2585              	.L369:
 2586 0354 0020     		movs	r0, #0
 2587 0356 04E0     		b	.L297
 2588              	.L374:
 2589 0358 0020     		movs	r0, #0
 2590 035a 02E0     		b	.L297
 2591              	.L371:
 2592 035c 0020     		movs	r0, #0
 2593 035e 00E0     		b	.L297
 2594              	.L372:
 2595 0360 0448     		ldr	r0, .L378+12
 2596              	.L297:
 2597 0362 0BB0     		add	sp, sp, #44
 2598              		@ sp needed
 2599 0364 5DF804FB 		ldr	pc, [sp], #4
 2600              	.L379:
 2601              		.align	2
 2602              	.L378:
 2603 0368 00440258 		.word	1476543488
 2604 036c 0090D003 		.word	64000000
 2605 0370 40787D01 		.word	25000000
 2606 0374 00093D00 		.word	4000000
 2608              		.section	.text.HAL_RCCEx_GetD1SysClockFreq,"ax",%progbits
 2609              		.align	2
 2610              		.global	HAL_RCCEx_GetD1SysClockFreq
 2611              		.thumb
 2612              		.thumb_func
 2614              	HAL_RCCEx_GetD1SysClockFreq:
 2615              		@ args = 0, pretend = 0, frame = 0
 2616              		@ frame_needed = 0, uses_anonymous_args = 0
 2617 0000 08B5     		push	{r3, lr}
 2618 0002 FFF7FEFF 		bl	HAL_RCC_GetSysClockFreq
 2619 0006 0B49     		ldr	r1, .L382
 2620 0008 8B69     		ldr	r3, [r1, #24]
 2621 000a C3F30323 		ubfx	r3, r3, #8, #4
 2622 000e 0A4A     		ldr	r2, .L382+4
 2623 0010 D35C     		ldrb	r3, [r2, r3]	@ zero_extendqisi2
 2624 0012 03F01F03 		and	r3, r3, #31
 2625 0016 D840     		lsrs	r0, r0, r3
 2626 0018 8B69     		ldr	r3, [r1, #24]
 2627 001a 03F00F03 		and	r3, r3, #15
 2628 001e D35C     		ldrb	r3, [r2, r3]	@ zero_extendqisi2
 2629 0020 03F01F03 		and	r3, r3, #31
 2630 0024 20FA03F3 		lsr	r3, r0, r3
 2631 0028 044A     		ldr	r2, .L382+8
 2632 002a 1360     		str	r3, [r2]
 2633 002c 044B     		ldr	r3, .L382+12
 2634 002e 1860     		str	r0, [r3]
 2635 0030 08BD     		pop	{r3, pc}
 2636              	.L383:
 2637 0032 00BF     		.align	2
 2638              	.L382:
 2639 0034 00440258 		.word	1476543488
 2640 0038 00000000 		.word	D1CorePrescTable
 2641 003c 00000000 		.word	SystemD2Clock
 2642 0040 00000000 		.word	SystemCoreClock
 2644              		.section	.text.HAL_RCCEx_EnableLSECSS,"ax",%progbits
ARM GAS  C:\Users\xiaofei\AppData\Local\Temp\cciqkDQm.s 			page 47


 2645              		.align	2
 2646              		.global	HAL_RCCEx_EnableLSECSS
 2647              		.thumb
 2648              		.thumb_func
 2650              	HAL_RCCEx_EnableLSECSS:
 2651              		@ args = 0, pretend = 0, frame = 0
 2652              		@ frame_needed = 0, uses_anonymous_args = 0
 2653              		@ link register save eliminated.
 2654 0000 024A     		ldr	r2, .L385
 2655 0002 136F     		ldr	r3, [r2, #112]
 2656 0004 43F02003 		orr	r3, r3, #32
 2657 0008 1367     		str	r3, [r2, #112]
 2658 000a 7047     		bx	lr
 2659              	.L386:
 2660              		.align	2
 2661              	.L385:
 2662 000c 00440258 		.word	1476543488
 2664              		.section	.text.HAL_RCCEx_DisableLSECSS,"ax",%progbits
 2665              		.align	2
 2666              		.global	HAL_RCCEx_DisableLSECSS
 2667              		.thumb
 2668              		.thumb_func
 2670              	HAL_RCCEx_DisableLSECSS:
 2671              		@ args = 0, pretend = 0, frame = 0
 2672              		@ frame_needed = 0, uses_anonymous_args = 0
 2673              		@ link register save eliminated.
 2674 0000 044B     		ldr	r3, .L388
 2675 0002 1A6F     		ldr	r2, [r3, #112]
 2676 0004 22F02002 		bic	r2, r2, #32
 2677 0008 1A67     		str	r2, [r3, #112]
 2678 000a 1A6E     		ldr	r2, [r3, #96]
 2679 000c 22F40072 		bic	r2, r2, #512
 2680 0010 1A66     		str	r2, [r3, #96]
 2681 0012 7047     		bx	lr
 2682              	.L389:
 2683              		.align	2
 2684              	.L388:
 2685 0014 00440258 		.word	1476543488
 2687              		.section	.text.HAL_RCCEx_EnableLSECSS_IT,"ax",%progbits
 2688              		.align	2
 2689              		.global	HAL_RCCEx_EnableLSECSS_IT
 2690              		.thumb
 2691              		.thumb_func
 2693              	HAL_RCCEx_EnableLSECSS_IT:
 2694              		@ args = 0, pretend = 0, frame = 0
 2695              		@ frame_needed = 0, uses_anonymous_args = 0
 2696              		@ link register save eliminated.
 2697 0000 0A4B     		ldr	r3, .L391
 2698 0002 1A6F     		ldr	r2, [r3, #112]
 2699 0004 42F02002 		orr	r2, r2, #32
 2700 0008 1A67     		str	r2, [r3, #112]
 2701 000a 1A6E     		ldr	r2, [r3, #96]
 2702 000c 42F40072 		orr	r2, r2, #512
 2703 0010 1A66     		str	r2, [r3, #96]
 2704 0012 4FF0B043 		mov	r3, #1476395008
 2705 0016 D3F88020 		ldr	r2, [r3, #128]
 2706 001a 42F48022 		orr	r2, r2, #262144
ARM GAS  C:\Users\xiaofei\AppData\Local\Temp\cciqkDQm.s 			page 48


 2707 001e C3F88020 		str	r2, [r3, #128]
 2708 0022 1A68     		ldr	r2, [r3]
 2709 0024 42F48022 		orr	r2, r2, #262144
 2710 0028 1A60     		str	r2, [r3]
 2711 002a 7047     		bx	lr
 2712              	.L392:
 2713              		.align	2
 2714              	.L391:
 2715 002c 00440258 		.word	1476543488
 2717              		.section	.text.HAL_RCCEx_WakeUpStopCLKConfig,"ax",%progbits
 2718              		.align	2
 2719              		.global	HAL_RCCEx_WakeUpStopCLKConfig
 2720              		.thumb
 2721              		.thumb_func
 2723              	HAL_RCCEx_WakeUpStopCLKConfig:
 2724              		@ args = 0, pretend = 0, frame = 0
 2725              		@ frame_needed = 0, uses_anonymous_args = 0
 2726              		@ link register save eliminated.
 2727 0000 034A     		ldr	r2, .L394
 2728 0002 1369     		ldr	r3, [r2, #16]
 2729 0004 23F04003 		bic	r3, r3, #64
 2730 0008 1843     		orrs	r0, r0, r3
 2731 000a 1061     		str	r0, [r2, #16]
 2732 000c 7047     		bx	lr
 2733              	.L395:
 2734 000e 00BF     		.align	2
 2735              	.L394:
 2736 0010 00440258 		.word	1476543488
 2738              		.section	.text.HAL_RCCEx_KerWakeUpStopCLKConfig,"ax",%progbits
 2739              		.align	2
 2740              		.global	HAL_RCCEx_KerWakeUpStopCLKConfig
 2741              		.thumb
 2742              		.thumb_func
 2744              	HAL_RCCEx_KerWakeUpStopCLKConfig:
 2745              		@ args = 0, pretend = 0, frame = 0
 2746              		@ frame_needed = 0, uses_anonymous_args = 0
 2747              		@ link register save eliminated.
 2748 0000 034A     		ldr	r2, .L397
 2749 0002 1369     		ldr	r3, [r2, #16]
 2750 0004 23F08003 		bic	r3, r3, #128
 2751 0008 1843     		orrs	r0, r0, r3
 2752 000a 1061     		str	r0, [r2, #16]
 2753 000c 7047     		bx	lr
 2754              	.L398:
 2755 000e 00BF     		.align	2
 2756              	.L397:
 2757 0010 00440258 		.word	1476543488
 2759              		.section	.text.HAL_RCCEx_WWDGxSysResetConfig,"ax",%progbits
 2760              		.align	2
 2761              		.global	HAL_RCCEx_WWDGxSysResetConfig
 2762              		.thumb
 2763              		.thumb_func
 2765              	HAL_RCCEx_WWDGxSysResetConfig:
 2766              		@ args = 0, pretend = 0, frame = 0
 2767              		@ frame_needed = 0, uses_anonymous_args = 0
 2768              		@ link register save eliminated.
 2769 0000 034A     		ldr	r2, .L400
ARM GAS  C:\Users\xiaofei\AppData\Local\Temp\cciqkDQm.s 			page 49


 2770 0002 D2F8A030 		ldr	r3, [r2, #160]
 2771 0006 1843     		orrs	r0, r0, r3
 2772 0008 C2F8A000 		str	r0, [r2, #160]
 2773 000c 7047     		bx	lr
 2774              	.L401:
 2775 000e 00BF     		.align	2
 2776              	.L400:
 2777 0010 00440258 		.word	1476543488
 2779              		.section	.text.HAL_RCCEx_CRSConfig,"ax",%progbits
 2780              		.align	2
 2781              		.global	HAL_RCCEx_CRSConfig
 2782              		.thumb
 2783              		.thumb_func
 2785              	HAL_RCCEx_CRSConfig:
 2786              		@ args = 0, pretend = 0, frame = 0
 2787              		@ frame_needed = 0, uses_anonymous_args = 0
 2788 0000 10B5     		push	{r4, lr}
 2789 0002 0446     		mov	r4, r0
 2790 0004 194B     		ldr	r3, .L406
 2791 0006 D3F89420 		ldr	r2, [r3, #148]
 2792 000a 42F00202 		orr	r2, r2, #2
 2793 000e C3F89420 		str	r2, [r3, #148]
 2794 0012 D3F89420 		ldr	r2, [r3, #148]
 2795 0016 22F00202 		bic	r2, r2, #2
 2796 001a C3F89420 		str	r2, [r3, #148]
 2797 001e FFF7FEFF 		bl	HAL_GetREVID
 2798 0022 41F20303 		movw	r3, #4099
 2799 0026 9842     		cmp	r0, r3
 2800 0028 07D8     		bhi	.L403
 2801 002a 6368     		ldr	r3, [r4, #4]
 2802 002c B3F1405F 		cmp	r3, #805306368
 2803 0030 03D1     		bne	.L403
 2804 0032 2268     		ldr	r2, [r4]
 2805 0034 A368     		ldr	r3, [r4, #8]
 2806 0036 1A43     		orrs	r2, r2, r3
 2807 0038 05E0     		b	.L404
 2808              	.L403:
 2809 003a 2268     		ldr	r2, [r4]
 2810 003c 6368     		ldr	r3, [r4, #4]
 2811 003e 1343     		orrs	r3, r3, r2
 2812 0040 A168     		ldr	r1, [r4, #8]
 2813 0042 43EA0102 		orr	r2, r3, r1
 2814              	.L404:
 2815 0046 E368     		ldr	r3, [r4, #12]
 2816 0048 1343     		orrs	r3, r3, r2
 2817 004a 2269     		ldr	r2, [r4, #16]
 2818 004c 43EA0242 		orr	r2, r3, r2, lsl #16
 2819 0050 074B     		ldr	r3, .L406+4
 2820 0052 5A60     		str	r2, [r3, #4]
 2821 0054 1A68     		ldr	r2, [r3]
 2822 0056 22F47C52 		bic	r2, r2, #16128
 2823 005a 6169     		ldr	r1, [r4, #20]
 2824 005c 42EA0122 		orr	r2, r2, r1, lsl #8
 2825 0060 1A60     		str	r2, [r3]
 2826 0062 1A68     		ldr	r2, [r3]
 2827 0064 42F06002 		orr	r2, r2, #96
 2828 0068 1A60     		str	r2, [r3]
ARM GAS  C:\Users\xiaofei\AppData\Local\Temp\cciqkDQm.s 			page 50


 2829 006a 10BD     		pop	{r4, pc}
 2830              	.L407:
 2831              		.align	2
 2832              	.L406:
 2833 006c 00440258 		.word	1476543488
 2834 0070 00840040 		.word	1073775616
 2836              		.section	.text.HAL_RCCEx_CRSSoftwareSynchronizationGenerate,"ax",%progbits
 2837              		.align	2
 2838              		.global	HAL_RCCEx_CRSSoftwareSynchronizationGenerate
 2839              		.thumb
 2840              		.thumb_func
 2842              	HAL_RCCEx_CRSSoftwareSynchronizationGenerate:
 2843              		@ args = 0, pretend = 0, frame = 0
 2844              		@ frame_needed = 0, uses_anonymous_args = 0
 2845              		@ link register save eliminated.
 2846 0000 024A     		ldr	r2, .L409
 2847 0002 1368     		ldr	r3, [r2]
 2848 0004 43F08003 		orr	r3, r3, #128
 2849 0008 1360     		str	r3, [r2]
 2850 000a 7047     		bx	lr
 2851              	.L410:
 2852              		.align	2
 2853              	.L409:
 2854 000c 00840040 		.word	1073775616
 2856              		.section	.text.HAL_RCCEx_CRSGetSynchronizationInfo,"ax",%progbits
 2857              		.align	2
 2858              		.global	HAL_RCCEx_CRSGetSynchronizationInfo
 2859              		.thumb
 2860              		.thumb_func
 2862              	HAL_RCCEx_CRSGetSynchronizationInfo:
 2863              		@ args = 0, pretend = 0, frame = 0
 2864              		@ frame_needed = 0, uses_anonymous_args = 0
 2865              		@ link register save eliminated.
 2866 0000 074B     		ldr	r3, .L412
 2867 0002 5A68     		ldr	r2, [r3, #4]
 2868 0004 92B2     		uxth	r2, r2
 2869 0006 0260     		str	r2, [r0]
 2870 0008 1A68     		ldr	r2, [r3]
 2871 000a C2F30522 		ubfx	r2, r2, #8, #6
 2872 000e 4260     		str	r2, [r0, #4]
 2873 0010 9A68     		ldr	r2, [r3, #8]
 2874 0012 120C     		lsrs	r2, r2, #16
 2875 0014 8260     		str	r2, [r0, #8]
 2876 0016 9B68     		ldr	r3, [r3, #8]
 2877 0018 03F40043 		and	r3, r3, #32768
 2878 001c C360     		str	r3, [r0, #12]
 2879 001e 7047     		bx	lr
 2880              	.L413:
 2881              		.align	2
 2882              	.L412:
 2883 0020 00840040 		.word	1073775616
 2885              		.section	.text.HAL_RCCEx_CRSWaitSynchronization,"ax",%progbits
 2886              		.align	2
 2887              		.global	HAL_RCCEx_CRSWaitSynchronization
 2888              		.thumb
 2889              		.thumb_func
 2891              	HAL_RCCEx_CRSWaitSynchronization:
ARM GAS  C:\Users\xiaofei\AppData\Local\Temp\cciqkDQm.s 			page 51


 2892              		@ args = 0, pretend = 0, frame = 0
 2893              		@ frame_needed = 0, uses_anonymous_args = 0
 2894 0000 70B5     		push	{r4, r5, r6, lr}
 2895 0002 0546     		mov	r5, r0
 2896 0004 FFF7FEFF 		bl	HAL_GetTick
 2897 0008 0646     		mov	r6, r0
 2898 000a 0024     		movs	r4, #0
 2899              	.L422:
 2900 000c B5F1FF3F 		cmp	r5, #-1
 2901 0010 09D0     		beq	.L415
 2902 0012 FFF7FEFF 		bl	HAL_GetTick
 2903 0016 801B     		subs	r0, r0, r6
 2904 0018 8542     		cmp	r5, r0
 2905 001a 01D3     		bcc	.L423
 2906 001c 15B1     		cbz	r5, .L424
 2907 001e 02E0     		b	.L415
 2908              	.L423:
 2909 0020 0124     		movs	r4, #1
 2910 0022 00E0     		b	.L415
 2911              	.L424:
 2912 0024 0124     		movs	r4, #1
 2913              	.L415:
 2914 0026 1F4B     		ldr	r3, .L426
 2915 0028 9B68     		ldr	r3, [r3, #8]
 2916 002a 13F0010F 		tst	r3, #1
 2917 002e 04D0     		beq	.L416
 2918 0030 44F00204 		orr	r4, r4, #2
 2919 0034 0122     		movs	r2, #1
 2920 0036 1B4B     		ldr	r3, .L426
 2921 0038 DA60     		str	r2, [r3, #12]
 2922              	.L416:
 2923 003a 1A4B     		ldr	r3, .L426
 2924 003c 9B68     		ldr	r3, [r3, #8]
 2925 003e 13F0020F 		tst	r3, #2
 2926 0042 04D0     		beq	.L417
 2927 0044 44F00404 		orr	r4, r4, #4
 2928 0048 0222     		movs	r2, #2
 2929 004a 164B     		ldr	r3, .L426
 2930 004c DA60     		str	r2, [r3, #12]
 2931              	.L417:
 2932 004e 154B     		ldr	r3, .L426
 2933 0050 9B68     		ldr	r3, [r3, #8]
 2934 0052 13F4806F 		tst	r3, #1024
 2935 0056 04D0     		beq	.L418
 2936 0058 44F02004 		orr	r4, r4, #32
 2937 005c 0422     		movs	r2, #4
 2938 005e 114B     		ldr	r3, .L426
 2939 0060 DA60     		str	r2, [r3, #12]
 2940              	.L418:
 2941 0062 104B     		ldr	r3, .L426
 2942 0064 9B68     		ldr	r3, [r3, #8]
 2943 0066 13F4807F 		tst	r3, #256
 2944 006a 04D0     		beq	.L419
 2945 006c 44F00804 		orr	r4, r4, #8
 2946 0070 0422     		movs	r2, #4
 2947 0072 0C4B     		ldr	r3, .L426
 2948 0074 DA60     		str	r2, [r3, #12]
ARM GAS  C:\Users\xiaofei\AppData\Local\Temp\cciqkDQm.s 			page 52


 2949              	.L419:
 2950 0076 0B4B     		ldr	r3, .L426
 2951 0078 9B68     		ldr	r3, [r3, #8]
 2952 007a 13F4007F 		tst	r3, #512
 2953 007e 04D0     		beq	.L420
 2954 0080 44F01004 		orr	r4, r4, #16
 2955 0084 0422     		movs	r2, #4
 2956 0086 074B     		ldr	r3, .L426
 2957 0088 DA60     		str	r2, [r3, #12]
 2958              	.L420:
 2959 008a 064B     		ldr	r3, .L426
 2960 008c 9B68     		ldr	r3, [r3, #8]
 2961 008e 13F0080F 		tst	r3, #8
 2962 0092 02D0     		beq	.L421
 2963 0094 0822     		movs	r2, #8
 2964 0096 034B     		ldr	r3, .L426
 2965 0098 DA60     		str	r2, [r3, #12]
 2966              	.L421:
 2967 009a 002C     		cmp	r4, #0
 2968 009c B6D0     		beq	.L422
 2969 009e 2046     		mov	r0, r4
 2970 00a0 70BD     		pop	{r4, r5, r6, pc}
 2971              	.L427:
 2972 00a2 00BF     		.align	2
 2973              	.L426:
 2974 00a4 00840040 		.word	1073775616
 2976              		.section	.text.HAL_RCCEx_CRS_SyncOkCallback,"ax",%progbits
 2977              		.align	2
 2978              		.weak	HAL_RCCEx_CRS_SyncOkCallback
 2979              		.thumb
 2980              		.thumb_func
 2982              	HAL_RCCEx_CRS_SyncOkCallback:
 2983              		@ args = 0, pretend = 0, frame = 0
 2984              		@ frame_needed = 0, uses_anonymous_args = 0
 2985              		@ link register save eliminated.
 2986 0000 7047     		bx	lr
 2988 0002 00BF     		.section	.text.HAL_RCCEx_CRS_SyncWarnCallback,"ax",%progbits
 2989              		.align	2
 2990              		.weak	HAL_RCCEx_CRS_SyncWarnCallback
 2991              		.thumb
 2992              		.thumb_func
 2994              	HAL_RCCEx_CRS_SyncWarnCallback:
 2995              		@ args = 0, pretend = 0, frame = 0
 2996              		@ frame_needed = 0, uses_anonymous_args = 0
 2997              		@ link register save eliminated.
 2998 0000 7047     		bx	lr
 3000 0002 00BF     		.section	.text.HAL_RCCEx_CRS_ExpectedSyncCallback,"ax",%progbits
 3001              		.align	2
 3002              		.weak	HAL_RCCEx_CRS_ExpectedSyncCallback
 3003              		.thumb
 3004              		.thumb_func
 3006              	HAL_RCCEx_CRS_ExpectedSyncCallback:
 3007              		@ args = 0, pretend = 0, frame = 0
 3008              		@ frame_needed = 0, uses_anonymous_args = 0
 3009              		@ link register save eliminated.
 3010 0000 7047     		bx	lr
 3012 0002 00BF     		.section	.text.HAL_RCCEx_CRS_ErrorCallback,"ax",%progbits
ARM GAS  C:\Users\xiaofei\AppData\Local\Temp\cciqkDQm.s 			page 53


 3013              		.align	2
 3014              		.weak	HAL_RCCEx_CRS_ErrorCallback
 3015              		.thumb
 3016              		.thumb_func
 3018              	HAL_RCCEx_CRS_ErrorCallback:
 3019              		@ args = 0, pretend = 0, frame = 0
 3020              		@ frame_needed = 0, uses_anonymous_args = 0
 3021              		@ link register save eliminated.
 3022 0000 7047     		bx	lr
 3024 0002 00BF     		.section	.text.HAL_RCCEx_CRS_IRQHandler,"ax",%progbits
 3025              		.align	2
 3026              		.global	HAL_RCCEx_CRS_IRQHandler
 3027              		.thumb
 3028              		.thumb_func
 3030              	HAL_RCCEx_CRS_IRQHandler:
 3031              		@ args = 0, pretend = 0, frame = 0
 3032              		@ frame_needed = 0, uses_anonymous_args = 0
 3033 0000 08B5     		push	{r3, lr}
 3034 0002 214A     		ldr	r2, .L442
 3035 0004 9368     		ldr	r3, [r2, #8]
 3036 0006 1268     		ldr	r2, [r2]
 3037 0008 13F0010F 		tst	r3, #1
 3038 000c 08D0     		beq	.L433
 3039 000e 12F0010F 		tst	r2, #1
 3040 0012 05D0     		beq	.L433
 3041 0014 0122     		movs	r2, #1
 3042 0016 1C4B     		ldr	r3, .L442
 3043 0018 DA60     		str	r2, [r3, #12]
 3044 001a FFF7FEFF 		bl	HAL_RCCEx_CRS_SyncOkCallback
 3045 001e 08BD     		pop	{r3, pc}
 3046              	.L433:
 3047 0020 13F0020F 		tst	r3, #2
 3048 0024 08D0     		beq	.L435
 3049 0026 12F0020F 		tst	r2, #2
 3050 002a 05D0     		beq	.L435
 3051 002c 0222     		movs	r2, #2
 3052 002e 164B     		ldr	r3, .L442
 3053 0030 DA60     		str	r2, [r3, #12]
 3054 0032 FFF7FEFF 		bl	HAL_RCCEx_CRS_SyncWarnCallback
 3055 0036 08BD     		pop	{r3, pc}
 3056              	.L435:
 3057 0038 13F0080F 		tst	r3, #8
 3058 003c 08D0     		beq	.L436
 3059 003e 12F0080F 		tst	r2, #8
 3060 0042 05D0     		beq	.L436
 3061 0044 0822     		movs	r2, #8
 3062 0046 104B     		ldr	r3, .L442
 3063 0048 DA60     		str	r2, [r3, #12]
 3064 004a FFF7FEFF 		bl	HAL_RCCEx_CRS_ExpectedSyncCallback
 3065 004e 08BD     		pop	{r3, pc}
 3066              	.L436:
 3067 0050 13F0040F 		tst	r3, #4
 3068 0054 17D0     		beq	.L432
 3069 0056 12F0040F 		tst	r2, #4
 3070 005a 14D0     		beq	.L432
 3071 005c 13F4807F 		tst	r3, #256
 3072 0060 01D1     		bne	.L440
ARM GAS  C:\Users\xiaofei\AppData\Local\Temp\cciqkDQm.s 			page 54


 3073 0062 0020     		movs	r0, #0
 3074 0064 00E0     		b	.L437
 3075              	.L440:
 3076 0066 0820     		movs	r0, #8
 3077              	.L437:
 3078 0068 13F4007F 		tst	r3, #512
 3079 006c 01D0     		beq	.L438
 3080 006e 40F01000 		orr	r0, r0, #16
 3081              	.L438:
 3082 0072 13F4806F 		tst	r3, #1024
 3083 0076 01D0     		beq	.L439
 3084 0078 40F02000 		orr	r0, r0, #32
 3085              	.L439:
 3086 007c 0422     		movs	r2, #4
 3087 007e 024B     		ldr	r3, .L442
 3088 0080 DA60     		str	r2, [r3, #12]
 3089 0082 FFF7FEFF 		bl	HAL_RCCEx_CRS_ErrorCallback
 3090              	.L432:
 3091 0086 08BD     		pop	{r3, pc}
 3092              	.L443:
 3093              		.align	2
 3094              	.L442:
 3095 0088 00840040 		.word	1073775616
 3097              		.section	.text.HAL_RCCEx_LSECSS_Callback,"ax",%progbits
 3098              		.align	2
 3099              		.weak	HAL_RCCEx_LSECSS_Callback
 3100              		.thumb
 3101              		.thumb_func
 3103              	HAL_RCCEx_LSECSS_Callback:
 3104              		@ args = 0, pretend = 0, frame = 0
 3105              		@ frame_needed = 0, uses_anonymous_args = 0
 3106              		@ link register save eliminated.
 3107 0000 7047     		bx	lr
 3109 0002 00BF     		.section	.text.HAL_RCCEx_LSECSS_IRQHandler,"ax",%progbits
 3110              		.align	2
 3111              		.global	HAL_RCCEx_LSECSS_IRQHandler
 3112              		.thumb
 3113              		.thumb_func
 3115              	HAL_RCCEx_LSECSS_IRQHandler:
 3116              		@ args = 0, pretend = 0, frame = 0
 3117              		@ frame_needed = 0, uses_anonymous_args = 0
 3118 0000 08B5     		push	{r3, lr}
 3119 0002 064B     		ldr	r3, .L448
 3120 0004 5B6E     		ldr	r3, [r3, #100]
 3121 0006 13F4007F 		tst	r3, #512
 3122 000a 05D0     		beq	.L445
 3123 000c 4FF40072 		mov	r2, #512
 3124 0010 024B     		ldr	r3, .L448
 3125 0012 9A66     		str	r2, [r3, #104]
 3126 0014 FFF7FEFF 		bl	HAL_RCCEx_LSECSS_Callback
 3127              	.L445:
 3128 0018 08BD     		pop	{r3, pc}
 3129              	.L449:
 3130 001a 00BF     		.align	2
 3131              	.L448:
 3132 001c 00440258 		.word	1476543488
 3134              		.ident	"GCC: (GNU Tools for ARM Embedded Processors) 5.4.1 20160919 (release) [ARM/embedded-5-bran
ARM GAS  C:\Users\xiaofei\AppData\Local\Temp\cciqkDQm.s 			page 55


ARM GAS  C:\Users\xiaofei\AppData\Local\Temp\cciqkDQm.s 			page 56


DEFINED SYMBOLS
                            *ABS*:00000000 stm32h7xx_hal_rcc_ex.c
C:\Users\xiaofei\AppData\Local\Temp\cciqkDQm.s:18     .text.RCCEx_PLL2_Config:00000000 $t
C:\Users\xiaofei\AppData\Local\Temp\cciqkDQm.s:22     .text.RCCEx_PLL2_Config:00000000 RCCEx_PLL2_Config
C:\Users\xiaofei\AppData\Local\Temp\cciqkDQm.s:148    .text.RCCEx_PLL2_Config:0000010c $d
C:\Users\xiaofei\AppData\Local\Temp\cciqkDQm.s:152    .text.RCCEx_PLL3_Config:00000000 $t
C:\Users\xiaofei\AppData\Local\Temp\cciqkDQm.s:156    .text.RCCEx_PLL3_Config:00000000 RCCEx_PLL3_Config
C:\Users\xiaofei\AppData\Local\Temp\cciqkDQm.s:282    .text.RCCEx_PLL3_Config:0000010c $d
C:\Users\xiaofei\AppData\Local\Temp\cciqkDQm.s:286    .text.HAL_RCCEx_PeriphCLKConfig:00000000 $t
C:\Users\xiaofei\AppData\Local\Temp\cciqkDQm.s:291    .text.HAL_RCCEx_PeriphCLKConfig:00000000 HAL_RCCEx_PeriphCLKConfig
C:\Users\xiaofei\AppData\Local\Temp\cciqkDQm.s:358    .text.HAL_RCCEx_PeriphCLKConfig:00000080 $d
C:\Users\xiaofei\AppData\Local\Temp\cciqkDQm.s:633    .text.HAL_RCCEx_PeriphCLKConfig:000002a8 $d
C:\Users\xiaofei\AppData\Local\Temp\cciqkDQm.s:635    .text.HAL_RCCEx_PeriphCLKConfig:000002ac $t
C:\Users\xiaofei\AppData\Local\Temp\cciqkDQm.s:771    .text.HAL_RCCEx_PeriphCLKConfig:000003cc $d
C:\Users\xiaofei\AppData\Local\Temp\cciqkDQm.s:775    .text.HAL_RCCEx_PeriphCLKConfig:000003d0 $t
C:\Users\xiaofei\AppData\Local\Temp\cciqkDQm.s:906    .text.HAL_RCCEx_PeriphCLKConfig:000004e4 $d
C:\Users\xiaofei\AppData\Local\Temp\cciqkDQm.s:974    .text.HAL_RCCEx_PeriphCLKConfig:0000053c $d
C:\Users\xiaofei\AppData\Local\Temp\cciqkDQm.s:978    .text.HAL_RCCEx_PeriphCLKConfig:00000548 $t
C:\Users\xiaofei\AppData\Local\Temp\cciqkDQm.s:988    .text.HAL_RCCEx_PeriphCLKConfig:0000055c $d
C:\Users\xiaofei\AppData\Local\Temp\cciqkDQm.s:994    .text.HAL_RCCEx_PeriphCLKConfig:00000562 $t
C:\Users\xiaofei\AppData\Local\Temp\cciqkDQm.s:1029   .text.HAL_RCCEx_PeriphCLKConfig:000005a6 $d
C:\Users\xiaofei\AppData\Local\Temp\cciqkDQm.s:1035   .text.HAL_RCCEx_PeriphCLKConfig:000005ac $t
C:\Users\xiaofei\AppData\Local\Temp\cciqkDQm.s:1327   .text.HAL_RCCEx_PeriphCLKConfig:00000834 $d
C:\Users\xiaofei\AppData\Local\Temp\cciqkDQm.s:1329   .text.HAL_RCCEx_PeriphCLKConfig:00000838 $t
C:\Users\xiaofei\AppData\Local\Temp\cciqkDQm.s:1447   .text.HAL_RCCEx_PeriphCLKConfig:00000928 $d
C:\Users\xiaofei\AppData\Local\Temp\cciqkDQm.s:1450   .text.HAL_RCCEx_GetPeriphCLKConfig:00000000 $t
C:\Users\xiaofei\AppData\Local\Temp\cciqkDQm.s:1455   .text.HAL_RCCEx_GetPeriphCLKConfig:00000000 HAL_RCCEx_GetPeriphCLKConfig
C:\Users\xiaofei\AppData\Local\Temp\cciqkDQm.s:1609   .text.HAL_RCCEx_GetPeriphCLKConfig:0000019c $d
C:\Users\xiaofei\AppData\Local\Temp\cciqkDQm.s:1612   .text.HAL_RCCEx_GetD1PCLK1Freq:00000000 $t
C:\Users\xiaofei\AppData\Local\Temp\cciqkDQm.s:1617   .text.HAL_RCCEx_GetD1PCLK1Freq:00000000 HAL_RCCEx_GetD1PCLK1Freq
C:\Users\xiaofei\AppData\Local\Temp\cciqkDQm.s:1633   .text.HAL_RCCEx_GetD1PCLK1Freq:0000001c $d
C:\Users\xiaofei\AppData\Local\Temp\cciqkDQm.s:1637   .text.HAL_RCCEx_GetD3PCLK1Freq:00000000 $t
C:\Users\xiaofei\AppData\Local\Temp\cciqkDQm.s:1642   .text.HAL_RCCEx_GetD3PCLK1Freq:00000000 HAL_RCCEx_GetD3PCLK1Freq
C:\Users\xiaofei\AppData\Local\Temp\cciqkDQm.s:1658   .text.HAL_RCCEx_GetD3PCLK1Freq:0000001c $d
C:\Users\xiaofei\AppData\Local\Temp\cciqkDQm.s:1662   .text.HAL_RCCEx_GetPLL2ClockFreq:00000000 $t
C:\Users\xiaofei\AppData\Local\Temp\cciqkDQm.s:1667   .text.HAL_RCCEx_GetPLL2ClockFreq:00000000 HAL_RCCEx_GetPLL2ClockFreq
C:\Users\xiaofei\AppData\Local\Temp\cciqkDQm.s:1824   .text.HAL_RCCEx_GetPLL2ClockFreq:000001e0 $d
C:\Users\xiaofei\AppData\Local\Temp\cciqkDQm.s:1832   .text.HAL_RCCEx_GetPLL3ClockFreq:00000000 $t
C:\Users\xiaofei\AppData\Local\Temp\cciqkDQm.s:1837   .text.HAL_RCCEx_GetPLL3ClockFreq:00000000 HAL_RCCEx_GetPLL3ClockFreq
C:\Users\xiaofei\AppData\Local\Temp\cciqkDQm.s:1994   .text.HAL_RCCEx_GetPLL3ClockFreq:000001e0 $d
C:\Users\xiaofei\AppData\Local\Temp\cciqkDQm.s:2002   .text.HAL_RCCEx_GetPLL1ClockFreq:00000000 $t
C:\Users\xiaofei\AppData\Local\Temp\cciqkDQm.s:2007   .text.HAL_RCCEx_GetPLL1ClockFreq:00000000 HAL_RCCEx_GetPLL1ClockFreq
C:\Users\xiaofei\AppData\Local\Temp\cciqkDQm.s:2164   .text.HAL_RCCEx_GetPLL1ClockFreq:000001e0 $d
C:\Users\xiaofei\AppData\Local\Temp\cciqkDQm.s:2172   .text.HAL_RCCEx_GetPeriphCLKFreq:00000000 $t
C:\Users\xiaofei\AppData\Local\Temp\cciqkDQm.s:2177   .text.HAL_RCCEx_GetPeriphCLKFreq:00000000 HAL_RCCEx_GetPeriphCLKFreq
C:\Users\xiaofei\AppData\Local\Temp\cciqkDQm.s:2191   .text.HAL_RCCEx_GetPeriphCLKFreq:0000001c $d
C:\Users\xiaofei\AppData\Local\Temp\cciqkDQm.s:2472   .text.HAL_RCCEx_GetPeriphCLKFreq:00000294 $d
C:\Users\xiaofei\AppData\Local\Temp\cciqkDQm.s:2476   .text.HAL_RCCEx_GetPeriphCLKFreq:000002a0 $t
C:\Users\xiaofei\AppData\Local\Temp\cciqkDQm.s:2603   .text.HAL_RCCEx_GetPeriphCLKFreq:00000368 $d
C:\Users\xiaofei\AppData\Local\Temp\cciqkDQm.s:2609   .text.HAL_RCCEx_GetD1SysClockFreq:00000000 $t
C:\Users\xiaofei\AppData\Local\Temp\cciqkDQm.s:2614   .text.HAL_RCCEx_GetD1SysClockFreq:00000000 HAL_RCCEx_GetD1SysClockFreq
C:\Users\xiaofei\AppData\Local\Temp\cciqkDQm.s:2639   .text.HAL_RCCEx_GetD1SysClockFreq:00000034 $d
C:\Users\xiaofei\AppData\Local\Temp\cciqkDQm.s:2645   .text.HAL_RCCEx_EnableLSECSS:00000000 $t
C:\Users\xiaofei\AppData\Local\Temp\cciqkDQm.s:2650   .text.HAL_RCCEx_EnableLSECSS:00000000 HAL_RCCEx_EnableLSECSS
C:\Users\xiaofei\AppData\Local\Temp\cciqkDQm.s:2662   .text.HAL_RCCEx_EnableLSECSS:0000000c $d
C:\Users\xiaofei\AppData\Local\Temp\cciqkDQm.s:2665   .text.HAL_RCCEx_DisableLSECSS:00000000 $t
C:\Users\xiaofei\AppData\Local\Temp\cciqkDQm.s:2670   .text.HAL_RCCEx_DisableLSECSS:00000000 HAL_RCCEx_DisableLSECSS
ARM GAS  C:\Users\xiaofei\AppData\Local\Temp\cciqkDQm.s 			page 57


C:\Users\xiaofei\AppData\Local\Temp\cciqkDQm.s:2685   .text.HAL_RCCEx_DisableLSECSS:00000014 $d
C:\Users\xiaofei\AppData\Local\Temp\cciqkDQm.s:2688   .text.HAL_RCCEx_EnableLSECSS_IT:00000000 $t
C:\Users\xiaofei\AppData\Local\Temp\cciqkDQm.s:2693   .text.HAL_RCCEx_EnableLSECSS_IT:00000000 HAL_RCCEx_EnableLSECSS_IT
C:\Users\xiaofei\AppData\Local\Temp\cciqkDQm.s:2715   .text.HAL_RCCEx_EnableLSECSS_IT:0000002c $d
C:\Users\xiaofei\AppData\Local\Temp\cciqkDQm.s:2718   .text.HAL_RCCEx_WakeUpStopCLKConfig:00000000 $t
C:\Users\xiaofei\AppData\Local\Temp\cciqkDQm.s:2723   .text.HAL_RCCEx_WakeUpStopCLKConfig:00000000 HAL_RCCEx_WakeUpStopCLKConfig
C:\Users\xiaofei\AppData\Local\Temp\cciqkDQm.s:2736   .text.HAL_RCCEx_WakeUpStopCLKConfig:00000010 $d
C:\Users\xiaofei\AppData\Local\Temp\cciqkDQm.s:2739   .text.HAL_RCCEx_KerWakeUpStopCLKConfig:00000000 $t
C:\Users\xiaofei\AppData\Local\Temp\cciqkDQm.s:2744   .text.HAL_RCCEx_KerWakeUpStopCLKConfig:00000000 HAL_RCCEx_KerWakeUpStopCLKConfig
C:\Users\xiaofei\AppData\Local\Temp\cciqkDQm.s:2757   .text.HAL_RCCEx_KerWakeUpStopCLKConfig:00000010 $d
C:\Users\xiaofei\AppData\Local\Temp\cciqkDQm.s:2760   .text.HAL_RCCEx_WWDGxSysResetConfig:00000000 $t
C:\Users\xiaofei\AppData\Local\Temp\cciqkDQm.s:2765   .text.HAL_RCCEx_WWDGxSysResetConfig:00000000 HAL_RCCEx_WWDGxSysResetConfig
C:\Users\xiaofei\AppData\Local\Temp\cciqkDQm.s:2777   .text.HAL_RCCEx_WWDGxSysResetConfig:00000010 $d
C:\Users\xiaofei\AppData\Local\Temp\cciqkDQm.s:2780   .text.HAL_RCCEx_CRSConfig:00000000 $t
C:\Users\xiaofei\AppData\Local\Temp\cciqkDQm.s:2785   .text.HAL_RCCEx_CRSConfig:00000000 HAL_RCCEx_CRSConfig
C:\Users\xiaofei\AppData\Local\Temp\cciqkDQm.s:2833   .text.HAL_RCCEx_CRSConfig:0000006c $d
C:\Users\xiaofei\AppData\Local\Temp\cciqkDQm.s:2837   .text.HAL_RCCEx_CRSSoftwareSynchronizationGenerate:00000000 $t
C:\Users\xiaofei\AppData\Local\Temp\cciqkDQm.s:2842   .text.HAL_RCCEx_CRSSoftwareSynchronizationGenerate:00000000 HAL_RCCEx_CRSSoftwareSynchronizationGenerate
C:\Users\xiaofei\AppData\Local\Temp\cciqkDQm.s:2854   .text.HAL_RCCEx_CRSSoftwareSynchronizationGenerate:0000000c $d
C:\Users\xiaofei\AppData\Local\Temp\cciqkDQm.s:2857   .text.HAL_RCCEx_CRSGetSynchronizationInfo:00000000 $t
C:\Users\xiaofei\AppData\Local\Temp\cciqkDQm.s:2862   .text.HAL_RCCEx_CRSGetSynchronizationInfo:00000000 HAL_RCCEx_CRSGetSynchronizationInfo
C:\Users\xiaofei\AppData\Local\Temp\cciqkDQm.s:2883   .text.HAL_RCCEx_CRSGetSynchronizationInfo:00000020 $d
C:\Users\xiaofei\AppData\Local\Temp\cciqkDQm.s:2886   .text.HAL_RCCEx_CRSWaitSynchronization:00000000 $t
C:\Users\xiaofei\AppData\Local\Temp\cciqkDQm.s:2891   .text.HAL_RCCEx_CRSWaitSynchronization:00000000 HAL_RCCEx_CRSWaitSynchronization
C:\Users\xiaofei\AppData\Local\Temp\cciqkDQm.s:2974   .text.HAL_RCCEx_CRSWaitSynchronization:000000a4 $d
C:\Users\xiaofei\AppData\Local\Temp\cciqkDQm.s:2977   .text.HAL_RCCEx_CRS_SyncOkCallback:00000000 $t
C:\Users\xiaofei\AppData\Local\Temp\cciqkDQm.s:2982   .text.HAL_RCCEx_CRS_SyncOkCallback:00000000 HAL_RCCEx_CRS_SyncOkCallback
C:\Users\xiaofei\AppData\Local\Temp\cciqkDQm.s:2989   .text.HAL_RCCEx_CRS_SyncWarnCallback:00000000 $t
C:\Users\xiaofei\AppData\Local\Temp\cciqkDQm.s:2994   .text.HAL_RCCEx_CRS_SyncWarnCallback:00000000 HAL_RCCEx_CRS_SyncWarnCallback
C:\Users\xiaofei\AppData\Local\Temp\cciqkDQm.s:3001   .text.HAL_RCCEx_CRS_ExpectedSyncCallback:00000000 $t
C:\Users\xiaofei\AppData\Local\Temp\cciqkDQm.s:3006   .text.HAL_RCCEx_CRS_ExpectedSyncCallback:00000000 HAL_RCCEx_CRS_ExpectedSyncCallback
C:\Users\xiaofei\AppData\Local\Temp\cciqkDQm.s:3013   .text.HAL_RCCEx_CRS_ErrorCallback:00000000 $t
C:\Users\xiaofei\AppData\Local\Temp\cciqkDQm.s:3018   .text.HAL_RCCEx_CRS_ErrorCallback:00000000 HAL_RCCEx_CRS_ErrorCallback
C:\Users\xiaofei\AppData\Local\Temp\cciqkDQm.s:3025   .text.HAL_RCCEx_CRS_IRQHandler:00000000 $t
C:\Users\xiaofei\AppData\Local\Temp\cciqkDQm.s:3030   .text.HAL_RCCEx_CRS_IRQHandler:00000000 HAL_RCCEx_CRS_IRQHandler
C:\Users\xiaofei\AppData\Local\Temp\cciqkDQm.s:3095   .text.HAL_RCCEx_CRS_IRQHandler:00000088 $d
C:\Users\xiaofei\AppData\Local\Temp\cciqkDQm.s:3098   .text.HAL_RCCEx_LSECSS_Callback:00000000 $t
C:\Users\xiaofei\AppData\Local\Temp\cciqkDQm.s:3103   .text.HAL_RCCEx_LSECSS_Callback:00000000 HAL_RCCEx_LSECSS_Callback
C:\Users\xiaofei\AppData\Local\Temp\cciqkDQm.s:3110   .text.HAL_RCCEx_LSECSS_IRQHandler:00000000 $t
C:\Users\xiaofei\AppData\Local\Temp\cciqkDQm.s:3115   .text.HAL_RCCEx_LSECSS_IRQHandler:00000000 HAL_RCCEx_LSECSS_IRQHandler
C:\Users\xiaofei\AppData\Local\Temp\cciqkDQm.s:3132   .text.HAL_RCCEx_LSECSS_IRQHandler:0000001c $d
C:\Users\xiaofei\AppData\Local\Temp\cciqkDQm.s:363    .text.HAL_RCCEx_PeriphCLKConfig:00000085 $d
C:\Users\xiaofei\AppData\Local\Temp\cciqkDQm.s:363    .text.HAL_RCCEx_PeriphCLKConfig:00000086 $t
C:\Users\xiaofei\AppData\Local\Temp\cciqkDQm.s:947    .text.HAL_RCCEx_PeriphCLKConfig:0000050d $d
C:\Users\xiaofei\AppData\Local\Temp\cciqkDQm.s:947    .text.HAL_RCCEx_PeriphCLKConfig:0000050e $t
C:\Users\xiaofei\AppData\Local\Temp\cciqkDQm.s:2196   .text.HAL_RCCEx_GetPeriphCLKFreq:00000021 $d
C:\Users\xiaofei\AppData\Local\Temp\cciqkDQm.s:2196   .text.HAL_RCCEx_GetPeriphCLKFreq:00000022 $t

UNDEFINED SYMBOLS
HAL_GetTick
HAL_RCC_GetHCLKFreq
D1CorePrescTable
HAL_RCC_GetSysClockFreq
SystemD2Clock
SystemCoreClock
HAL_GetREVID
