ARM GAS  C:\Users\xiaofei\AppData\Local\Temp\ccEZCIhm.s 			page 1


   1              		.syntax unified
   2              		.cpu cortex-m7
   3              		.eabi_attribute 28, 1
   4              		.fpu fpv5-d16
   5              		.eabi_attribute 20, 1
   6              		.eabi_attribute 21, 1
   7              		.eabi_attribute 23, 3
   8              		.eabi_attribute 24, 1
   9              		.eabi_attribute 25, 1
  10              		.eabi_attribute 26, 1
  11              		.eabi_attribute 30, 1
  12              		.eabi_attribute 34, 1
  13              		.eabi_attribute 18, 4
  14              		.thumb
  15              		.syntax unified
  16              		.file	"stm32h7xx_hal_dma.c"
  17              		.section	.text.DMA_SetConfig,"ax",%progbits
  18              		.align	2
  19              		.thumb
  20              		.thumb_func
  22              	DMA_SetConfig:
  23              		@ args = 0, pretend = 0, frame = 0
  24              		@ frame_needed = 0, uses_anonymous_args = 0
  25 0000 F0B5     		push	{r4, r5, r6, r7, lr}
  26 0002 876D     		ldr	r7, [r0, #88]
  27 0004 0468     		ldr	r4, [r0]
  28 0006 944D     		ldr	r5, .L55
  29 0008 944E     		ldr	r6, .L55+4
  30 000a AC42     		cmp	r4, r5
  31 000c 18BF     		it	ne
  32 000e B442     		cmpne	r4, r6
  33 0010 44D0     		beq	.L10
  34 0012 1835     		adds	r5, r5, #24
  35 0014 AC42     		cmp	r4, r5
  36 0016 43D0     		beq	.L11
  37 0018 1835     		adds	r5, r5, #24
  38 001a AC42     		cmp	r4, r5
  39 001c 42D0     		beq	.L12
  40 001e 1835     		adds	r5, r5, #24
  41 0020 AC42     		cmp	r4, r5
  42 0022 41D0     		beq	.L13
  43 0024 1835     		adds	r5, r5, #24
  44 0026 AC42     		cmp	r4, r5
  45 0028 40D0     		beq	.L14
  46 002a 1835     		adds	r5, r5, #24
  47 002c AC42     		cmp	r4, r5
  48 002e 3FD0     		beq	.L15
  49 0030 1835     		adds	r5, r5, #24
  50 0032 AC42     		cmp	r4, r5
  51 0034 3ED0     		beq	.L16
  52 0036 05F55675 		add	r5, r5, #856
  53 003a AC42     		cmp	r4, r5
  54 003c 3CD0     		beq	.L17
  55 003e 1835     		adds	r5, r5, #24
  56 0040 AC42     		cmp	r4, r5
  57 0042 3BD0     		beq	.L18
  58 0044 1835     		adds	r5, r5, #24
ARM GAS  C:\Users\xiaofei\AppData\Local\Temp\ccEZCIhm.s 			page 2


  59 0046 AC42     		cmp	r4, r5
  60 0048 3AD0     		beq	.L19
  61 004a 1835     		adds	r5, r5, #24
  62 004c AC42     		cmp	r4, r5
  63 004e 39D0     		beq	.L20
  64 0050 1835     		adds	r5, r5, #24
  65 0052 AC42     		cmp	r4, r5
  66 0054 38D0     		beq	.L21
  67 0056 1835     		adds	r5, r5, #24
  68 0058 AC42     		cmp	r4, r5
  69 005a 37D0     		beq	.L22
  70 005c 1835     		adds	r5, r5, #24
  71 005e AC42     		cmp	r4, r5
  72 0060 36D0     		beq	.L23
  73 0062 1835     		adds	r5, r5, #24
  74 0064 AC42     		cmp	r4, r5
  75 0066 35D0     		beq	.L24
  76 0068 7D4D     		ldr	r5, .L55+8
  77 006a AC42     		cmp	r4, r5
  78 006c 34D0     		beq	.L25
  79 006e 1435     		adds	r5, r5, #20
  80 0070 AC42     		cmp	r4, r5
  81 0072 33D0     		beq	.L26
  82 0074 1435     		adds	r5, r5, #20
  83 0076 AC42     		cmp	r4, r5
  84 0078 32D0     		beq	.L27
  85 007a 1435     		adds	r5, r5, #20
  86 007c AC42     		cmp	r4, r5
  87 007e 31D0     		beq	.L28
  88 0080 1435     		adds	r5, r5, #20
  89 0082 AC42     		cmp	r4, r5
  90 0084 30D0     		beq	.L29
  91 0086 1435     		adds	r5, r5, #20
  92 0088 AC42     		cmp	r4, r5
  93 008a 2FD0     		beq	.L30
  94 008c 1435     		adds	r5, r5, #20
  95 008e AC42     		cmp	r4, r5
  96 0090 2ED0     		beq	.L31
  97 0092 1435     		adds	r5, r5, #20
  98 0094 AC42     		cmp	r4, r5
  99 0096 2DD1     		bne	.L32
 100 0098 0124     		movs	r4, #1
 101 009a 2CE0     		b	.L2
 102              	.L10:
 103 009c 0124     		movs	r4, #1
 104 009e 2AE0     		b	.L2
 105              	.L11:
 106 00a0 0124     		movs	r4, #1
 107 00a2 28E0     		b	.L2
 108              	.L12:
 109 00a4 0124     		movs	r4, #1
 110 00a6 26E0     		b	.L2
 111              	.L13:
 112 00a8 0124     		movs	r4, #1
 113 00aa 24E0     		b	.L2
 114              	.L14:
 115 00ac 0124     		movs	r4, #1
ARM GAS  C:\Users\xiaofei\AppData\Local\Temp\ccEZCIhm.s 			page 3


 116 00ae 22E0     		b	.L2
 117              	.L15:
 118 00b0 0124     		movs	r4, #1
 119 00b2 20E0     		b	.L2
 120              	.L16:
 121 00b4 0124     		movs	r4, #1
 122 00b6 1EE0     		b	.L2
 123              	.L17:
 124 00b8 0124     		movs	r4, #1
 125 00ba 1CE0     		b	.L2
 126              	.L18:
 127 00bc 0124     		movs	r4, #1
 128 00be 1AE0     		b	.L2
 129              	.L19:
 130 00c0 0124     		movs	r4, #1
 131 00c2 18E0     		b	.L2
 132              	.L20:
 133 00c4 0124     		movs	r4, #1
 134 00c6 16E0     		b	.L2
 135              	.L21:
 136 00c8 0124     		movs	r4, #1
 137 00ca 14E0     		b	.L2
 138              	.L22:
 139 00cc 0124     		movs	r4, #1
 140 00ce 12E0     		b	.L2
 141              	.L23:
 142 00d0 0124     		movs	r4, #1
 143 00d2 10E0     		b	.L2
 144              	.L24:
 145 00d4 0124     		movs	r4, #1
 146 00d6 0EE0     		b	.L2
 147              	.L25:
 148 00d8 0124     		movs	r4, #1
 149 00da 0CE0     		b	.L2
 150              	.L26:
 151 00dc 0124     		movs	r4, #1
 152 00de 0AE0     		b	.L2
 153              	.L27:
 154 00e0 0124     		movs	r4, #1
 155 00e2 08E0     		b	.L2
 156              	.L28:
 157 00e4 0124     		movs	r4, #1
 158 00e6 06E0     		b	.L2
 159              	.L29:
 160 00e8 0124     		movs	r4, #1
 161 00ea 04E0     		b	.L2
 162              	.L30:
 163 00ec 0124     		movs	r4, #1
 164 00ee 02E0     		b	.L2
 165              	.L31:
 166 00f0 0124     		movs	r4, #1
 167 00f2 00E0     		b	.L2
 168              	.L32:
 169 00f4 0024     		movs	r4, #0
 170              	.L2:
 171 00f6 3CB1     		cbz	r4, .L3
 172 00f8 446E     		ldr	r4, [r0, #100]
ARM GAS  C:\Users\xiaofei\AppData\Local\Temp\ccEZCIhm.s 			page 4


 173 00fa 856E     		ldr	r5, [r0, #104]
 174 00fc 6560     		str	r5, [r4, #4]
 175 00fe C46E     		ldr	r4, [r0, #108]
 176 0100 14B1     		cbz	r4, .L3
 177 0102 046F     		ldr	r4, [r0, #112]
 178 0104 456F     		ldr	r5, [r0, #116]
 179 0106 6560     		str	r5, [r4, #4]
 180              	.L3:
 181 0108 0468     		ldr	r4, [r0]
 182 010a 534D     		ldr	r5, .L55
 183 010c 534E     		ldr	r6, .L55+4
 184 010e AC42     		cmp	r4, r5
 185 0110 18BF     		it	ne
 186 0112 B442     		cmpne	r4, r6
 187 0114 2CD0     		beq	.L33
 188 0116 1835     		adds	r5, r5, #24
 189 0118 AC42     		cmp	r4, r5
 190 011a 2BD0     		beq	.L34
 191 011c 1835     		adds	r5, r5, #24
 192 011e AC42     		cmp	r4, r5
 193 0120 2AD0     		beq	.L35
 194 0122 1835     		adds	r5, r5, #24
 195 0124 AC42     		cmp	r4, r5
 196 0126 29D0     		beq	.L36
 197 0128 1835     		adds	r5, r5, #24
 198 012a AC42     		cmp	r4, r5
 199 012c 28D0     		beq	.L37
 200 012e 1835     		adds	r5, r5, #24
 201 0130 AC42     		cmp	r4, r5
 202 0132 27D0     		beq	.L38
 203 0134 1835     		adds	r5, r5, #24
 204 0136 AC42     		cmp	r4, r5
 205 0138 26D0     		beq	.L39
 206 013a 05F55675 		add	r5, r5, #856
 207 013e AC42     		cmp	r4, r5
 208 0140 24D0     		beq	.L40
 209 0142 1835     		adds	r5, r5, #24
 210 0144 AC42     		cmp	r4, r5
 211 0146 23D0     		beq	.L41
 212 0148 1835     		adds	r5, r5, #24
 213 014a AC42     		cmp	r4, r5
 214 014c 22D0     		beq	.L42
 215 014e 1835     		adds	r5, r5, #24
 216 0150 AC42     		cmp	r4, r5
 217 0152 21D0     		beq	.L43
 218 0154 1835     		adds	r5, r5, #24
 219 0156 AC42     		cmp	r4, r5
 220 0158 20D0     		beq	.L44
 221 015a 1835     		adds	r5, r5, #24
 222 015c AC42     		cmp	r4, r5
 223 015e 1FD0     		beq	.L45
 224 0160 1835     		adds	r5, r5, #24
 225 0162 AC42     		cmp	r4, r5
 226 0164 1ED0     		beq	.L46
 227 0166 1835     		adds	r5, r5, #24
 228 0168 AC42     		cmp	r4, r5
 229 016a 1DD1     		bne	.L47
ARM GAS  C:\Users\xiaofei\AppData\Local\Temp\ccEZCIhm.s 			page 5


 230 016c 0125     		movs	r5, #1
 231 016e 1CE0     		b	.L4
 232              	.L33:
 233 0170 0125     		movs	r5, #1
 234 0172 1AE0     		b	.L4
 235              	.L34:
 236 0174 0125     		movs	r5, #1
 237 0176 18E0     		b	.L4
 238              	.L35:
 239 0178 0125     		movs	r5, #1
 240 017a 16E0     		b	.L4
 241              	.L36:
 242 017c 0125     		movs	r5, #1
 243 017e 14E0     		b	.L4
 244              	.L37:
 245 0180 0125     		movs	r5, #1
 246 0182 12E0     		b	.L4
 247              	.L38:
 248 0184 0125     		movs	r5, #1
 249 0186 10E0     		b	.L4
 250              	.L39:
 251 0188 0125     		movs	r5, #1
 252 018a 0EE0     		b	.L4
 253              	.L40:
 254 018c 0125     		movs	r5, #1
 255 018e 0CE0     		b	.L4
 256              	.L41:
 257 0190 0125     		movs	r5, #1
 258 0192 0AE0     		b	.L4
 259              	.L42:
 260 0194 0125     		movs	r5, #1
 261 0196 08E0     		b	.L4
 262              	.L43:
 263 0198 0125     		movs	r5, #1
 264 019a 06E0     		b	.L4
 265              	.L44:
 266 019c 0125     		movs	r5, #1
 267 019e 04E0     		b	.L4
 268              	.L45:
 269 01a0 0125     		movs	r5, #1
 270 01a2 02E0     		b	.L4
 271              	.L46:
 272 01a4 0125     		movs	r5, #1
 273 01a6 00E0     		b	.L4
 274              	.L47:
 275 01a8 0025     		movs	r5, #0
 276              	.L4:
 277 01aa CDB1     		cbz	r5, .L5
 278 01ac C46D     		ldr	r4, [r0, #92]
 279 01ae 04F01F05 		and	r5, r4, #31
 280 01b2 3F24     		movs	r4, #63
 281 01b4 AC40     		lsls	r4, r4, r5
 282 01b6 BC60     		str	r4, [r7, #8]
 283 01b8 0568     		ldr	r5, [r0]
 284 01ba 2C68     		ldr	r4, [r5]
 285 01bc 24F48024 		bic	r4, r4, #262144
 286 01c0 2C60     		str	r4, [r5]
ARM GAS  C:\Users\xiaofei\AppData\Local\Temp\ccEZCIhm.s 			page 6


 287 01c2 0468     		ldr	r4, [r0]
 288 01c4 6360     		str	r3, [r4, #4]
 289 01c6 8368     		ldr	r3, [r0, #8]
 290 01c8 402B     		cmp	r3, #64
 291 01ca 04D1     		bne	.L6
 292 01cc 0368     		ldr	r3, [r0]
 293 01ce 9A60     		str	r2, [r3, #8]
 294 01d0 0368     		ldr	r3, [r0]
 295 01d2 D960     		str	r1, [r3, #12]
 296 01d4 F0BD     		pop	{r4, r5, r6, r7, pc}
 297              	.L6:
 298 01d6 0368     		ldr	r3, [r0]
 299 01d8 9960     		str	r1, [r3, #8]
 300 01da 0368     		ldr	r3, [r0]
 301 01dc DA60     		str	r2, [r3, #12]
 302 01de F0BD     		pop	{r4, r5, r6, r7, pc}
 303              	.L5:
 304 01e0 204E     		ldr	r6, .L55+12
 305 01e2 DFF87CE0 		ldr	lr, .L55+8
 306 01e6 B442     		cmp	r4, r6
 307 01e8 18BF     		it	ne
 308 01ea 7445     		cmpne	r4, lr
 309 01ec 13D0     		beq	.L48
 310 01ee 1436     		adds	r6, r6, #20
 311 01f0 B442     		cmp	r4, r6
 312 01f2 12D0     		beq	.L49
 313 01f4 1436     		adds	r6, r6, #20
 314 01f6 B442     		cmp	r4, r6
 315 01f8 11D0     		beq	.L50
 316 01fa 1436     		adds	r6, r6, #20
 317 01fc B442     		cmp	r4, r6
 318 01fe 10D0     		beq	.L51
 319 0200 1436     		adds	r6, r6, #20
 320 0202 B442     		cmp	r4, r6
 321 0204 0FD0     		beq	.L52
 322 0206 1436     		adds	r6, r6, #20
 323 0208 B442     		cmp	r4, r6
 324 020a 0ED0     		beq	.L53
 325 020c 1436     		adds	r6, r6, #20
 326 020e B442     		cmp	r4, r6
 327 0210 0CD1     		bne	.L8
 328 0212 0125     		movs	r5, #1
 329 0214 0AE0     		b	.L8
 330              	.L48:
 331 0216 0125     		movs	r5, #1
 332 0218 08E0     		b	.L8
 333              	.L49:
 334 021a 0125     		movs	r5, #1
 335 021c 06E0     		b	.L8
 336              	.L50:
 337 021e 0125     		movs	r5, #1
 338 0220 04E0     		b	.L8
 339              	.L51:
 340 0222 0125     		movs	r5, #1
 341 0224 02E0     		b	.L8
 342              	.L52:
 343 0226 0125     		movs	r5, #1
ARM GAS  C:\Users\xiaofei\AppData\Local\Temp\ccEZCIhm.s 			page 7


 344 0228 00E0     		b	.L8
 345              	.L53:
 346 022a 0125     		movs	r5, #1
 347              	.L8:
 348 022c 9DB1     		cbz	r5, .L1
 349 022e C46D     		ldr	r4, [r0, #92]
 350 0230 04F01F05 		and	r5, r4, #31
 351 0234 0124     		movs	r4, #1
 352 0236 AC40     		lsls	r4, r4, r5
 353 0238 7C60     		str	r4, [r7, #4]
 354 023a 0468     		ldr	r4, [r0]
 355 023c 6360     		str	r3, [r4, #4]
 356 023e 8368     		ldr	r3, [r0, #8]
 357 0240 402B     		cmp	r3, #64
 358 0242 04D1     		bne	.L9
 359 0244 0368     		ldr	r3, [r0]
 360 0246 9A60     		str	r2, [r3, #8]
 361 0248 0368     		ldr	r3, [r0]
 362 024a D960     		str	r1, [r3, #12]
 363 024c F0BD     		pop	{r4, r5, r6, r7, pc}
 364              	.L9:
 365 024e 0368     		ldr	r3, [r0]
 366 0250 9960     		str	r1, [r3, #8]
 367 0252 0368     		ldr	r3, [r0]
 368 0254 DA60     		str	r2, [r3, #12]
 369              	.L1:
 370 0256 F0BD     		pop	{r4, r5, r6, r7, pc}
 371              	.L56:
 372              		.align	2
 373              	.L55:
 374 0258 28000240 		.word	1073872936
 375 025c 10000240 		.word	1073872912
 376 0260 08540258 		.word	1476547592
 377 0264 1C540258 		.word	1476547612
 379              		.section	.text.DMA_CalcBaseAndBitshift,"ax",%progbits
 380              		.align	2
 381              		.thumb
 382              		.thumb_func
 384              	DMA_CalcBaseAndBitshift:
 385              		@ args = 0, pretend = 0, frame = 0
 386              		@ frame_needed = 0, uses_anonymous_args = 0
 387              		@ link register save eliminated.
 388 0000 0368     		ldr	r3, [r0]
 389 0002 384A     		ldr	r2, .L79
 390 0004 3849     		ldr	r1, .L79+4
 391 0006 9342     		cmp	r3, r2
 392 0008 18BF     		it	ne
 393 000a 8B42     		cmpne	r3, r1
 394 000c 2CD0     		beq	.L62
 395 000e 1832     		adds	r2, r2, #24
 396 0010 9342     		cmp	r3, r2
 397 0012 2BD0     		beq	.L63
 398 0014 1832     		adds	r2, r2, #24
 399 0016 9342     		cmp	r3, r2
 400 0018 2AD0     		beq	.L64
 401 001a 1832     		adds	r2, r2, #24
 402 001c 9342     		cmp	r3, r2
ARM GAS  C:\Users\xiaofei\AppData\Local\Temp\ccEZCIhm.s 			page 8


 403 001e 29D0     		beq	.L65
 404 0020 1832     		adds	r2, r2, #24
 405 0022 9342     		cmp	r3, r2
 406 0024 28D0     		beq	.L66
 407 0026 1832     		adds	r2, r2, #24
 408 0028 9342     		cmp	r3, r2
 409 002a 27D0     		beq	.L67
 410 002c 1832     		adds	r2, r2, #24
 411 002e 9342     		cmp	r3, r2
 412 0030 26D0     		beq	.L68
 413 0032 02F55672 		add	r2, r2, #856
 414 0036 9342     		cmp	r3, r2
 415 0038 24D0     		beq	.L69
 416 003a 1832     		adds	r2, r2, #24
 417 003c 9342     		cmp	r3, r2
 418 003e 23D0     		beq	.L70
 419 0040 1832     		adds	r2, r2, #24
 420 0042 9342     		cmp	r3, r2
 421 0044 22D0     		beq	.L71
 422 0046 1832     		adds	r2, r2, #24
 423 0048 9342     		cmp	r3, r2
 424 004a 21D0     		beq	.L72
 425 004c 1832     		adds	r2, r2, #24
 426 004e 9342     		cmp	r3, r2
 427 0050 20D0     		beq	.L73
 428 0052 1832     		adds	r2, r2, #24
 429 0054 9342     		cmp	r3, r2
 430 0056 1FD0     		beq	.L74
 431 0058 1832     		adds	r2, r2, #24
 432 005a 9342     		cmp	r3, r2
 433 005c 1ED0     		beq	.L75
 434 005e 1832     		adds	r2, r2, #24
 435 0060 9342     		cmp	r3, r2
 436 0062 1DD1     		bne	.L76
 437 0064 0122     		movs	r2, #1
 438 0066 1CE0     		b	.L58
 439              	.L62:
 440 0068 0122     		movs	r2, #1
 441 006a 1AE0     		b	.L58
 442              	.L63:
 443 006c 0122     		movs	r2, #1
 444 006e 18E0     		b	.L58
 445              	.L64:
 446 0070 0122     		movs	r2, #1
 447 0072 16E0     		b	.L58
 448              	.L65:
 449 0074 0122     		movs	r2, #1
 450 0076 14E0     		b	.L58
 451              	.L66:
 452 0078 0122     		movs	r2, #1
 453 007a 12E0     		b	.L58
 454              	.L67:
 455 007c 0122     		movs	r2, #1
 456 007e 10E0     		b	.L58
 457              	.L68:
 458 0080 0122     		movs	r2, #1
 459 0082 0EE0     		b	.L58
ARM GAS  C:\Users\xiaofei\AppData\Local\Temp\ccEZCIhm.s 			page 9


 460              	.L69:
 461 0084 0122     		movs	r2, #1
 462 0086 0CE0     		b	.L58
 463              	.L70:
 464 0088 0122     		movs	r2, #1
 465 008a 0AE0     		b	.L58
 466              	.L71:
 467 008c 0122     		movs	r2, #1
 468 008e 08E0     		b	.L58
 469              	.L72:
 470 0090 0122     		movs	r2, #1
 471 0092 06E0     		b	.L58
 472              	.L73:
 473 0094 0122     		movs	r2, #1
 474 0096 04E0     		b	.L58
 475              	.L74:
 476 0098 0122     		movs	r2, #1
 477 009a 02E0     		b	.L58
 478              	.L75:
 479 009c 0122     		movs	r2, #1
 480 009e 00E0     		b	.L58
 481              	.L76:
 482 00a0 0022     		movs	r2, #0
 483              	.L58:
 484 00a2 B2B1     		cbz	r2, .L59
 485 00a4 10B4     		push	{r4}
 486 00a6 DAB2     		uxtb	r2, r3
 487 00a8 103A     		subs	r2, r2, #16
 488 00aa 1049     		ldr	r1, .L79+8
 489 00ac A1FB0212 		umull	r1, r2, r1, r2
 490 00b0 1209     		lsrs	r2, r2, #4
 491 00b2 02F00701 		and	r1, r2, #7
 492 00b6 0E4C     		ldr	r4, .L79+12
 493 00b8 615C     		ldrb	r1, [r4, r1]	@ zero_extendqisi2
 494 00ba C165     		str	r1, [r0, #92]
 495 00bc 032A     		cmp	r2, #3
 496 00be 04D9     		bls	.L60
 497 00c0 0C4A     		ldr	r2, .L79+16
 498 00c2 1A40     		ands	r2, r2, r3
 499 00c4 0432     		adds	r2, r2, #4
 500 00c6 8265     		str	r2, [r0, #88]
 501 00c8 08E0     		b	.L61
 502              	.L60:
 503 00ca 0A4A     		ldr	r2, .L79+16
 504 00cc 1A40     		ands	r2, r2, r3
 505 00ce 8265     		str	r2, [r0, #88]
 506 00d0 04E0     		b	.L61
 507              	.L59:
 508 00d2 23F0FF03 		bic	r3, r3, #255
 509 00d6 8365     		str	r3, [r0, #88]
 510 00d8 806D     		ldr	r0, [r0, #88]
 511 00da 7047     		bx	lr
 512              	.L61:
 513 00dc 806D     		ldr	r0, [r0, #88]
 514 00de 5DF8044B 		ldr	r4, [sp], #4
 515 00e2 7047     		bx	lr
 516              	.L80:
ARM GAS  C:\Users\xiaofei\AppData\Local\Temp\ccEZCIhm.s 			page 10


 517              		.align	2
 518              	.L79:
 519 00e4 28000240 		.word	1073872936
 520 00e8 10000240 		.word	1073872912
 521 00ec ABAAAAAA 		.word	-1431655765
 522 00f0 00000000 		.word	.LANCHOR0
 523 00f4 00FCFFFF 		.word	-1024
 525              		.section	.text.DMA_CheckFifoParam,"ax",%progbits
 526              		.align	2
 527              		.thumb
 528              		.thumb_func
 530              	DMA_CheckFifoParam:
 531              		@ args = 0, pretend = 0, frame = 0
 532              		@ frame_needed = 0, uses_anonymous_args = 0
 533              		@ link register save eliminated.
 534 0000 8369     		ldr	r3, [r0, #24]
 535 0002 8BB9     		cbnz	r3, .L82
 536 0004 836A     		ldr	r3, [r0, #40]
 537 0006 012B     		cmp	r3, #1
 538 0008 08D0     		beq	.L84
 539 000a 0BB1     		cbz	r3, .L85
 540 000c 022B     		cmp	r3, #2
 541 000e 30D1     		bne	.L101
 542              	.L85:
 543 0010 C36A     		ldr	r3, [r0, #44]
 544 0012 13F0807F 		tst	r3, #16777216
 545 0016 2ED1     		bne	.L94
 546 0018 0020     		movs	r0, #0
 547 001a 7047     		bx	lr
 548              	.L84:
 549 001c C36A     		ldr	r3, [r0, #44]
 550 001e B3F1C07F 		cmp	r3, #25165824
 551 0022 2AD0     		beq	.L95
 552 0024 0020     		movs	r0, #0
 553 0026 7047     		bx	lr
 554              	.L82:
 555 0028 B3F5005F 		cmp	r3, #8192
 556 002c 14D1     		bne	.L86
 557 002e 836A     		ldr	r3, [r0, #40]
 558 0030 032B     		cmp	r3, #3
 559 0032 03D8     		bhi	.L87
 560 0034 DFE803F0 		tbb	[pc, r3]
 561              	.L88:
 562 0038 23       		.byte	(.L96-.L88)/2
 563 0039 04       		.byte	(.L89-.L88)/2
 564 003a 23       		.byte	(.L96-.L88)/2
 565 003b 0A       		.byte	(.L90-.L88)/2
 566              		.p2align 1
 567              	.L87:
 568 003c 0020     		movs	r0, #0
 569 003e 7047     		bx	lr
 570              	.L89:
 571 0040 C36A     		ldr	r3, [r0, #44]
 572 0042 13F0807F 		tst	r3, #16777216
 573 0046 1CD1     		bne	.L97
 574 0048 0020     		movs	r0, #0
 575 004a 7047     		bx	lr
ARM GAS  C:\Users\xiaofei\AppData\Local\Temp\ccEZCIhm.s 			page 11


 576              	.L90:
 577 004c C36A     		ldr	r3, [r0, #44]
 578 004e B3F1C07F 		cmp	r3, #25165824
 579 0052 18D0     		beq	.L98
 580 0054 0020     		movs	r0, #0
 581 0056 7047     		bx	lr
 582              	.L86:
 583 0058 836A     		ldr	r3, [r0, #40]
 584 005a 022B     		cmp	r3, #2
 585 005c 15D9     		bls	.L99
 586 005e 032B     		cmp	r3, #3
 587 0060 01D0     		beq	.L92
 588 0062 0020     		movs	r0, #0
 589 0064 7047     		bx	lr
 590              	.L92:
 591 0066 C36A     		ldr	r3, [r0, #44]
 592 0068 13F0807F 		tst	r3, #16777216
 593 006c 0FD1     		bne	.L100
 594 006e 0020     		movs	r0, #0
 595 0070 7047     		bx	lr
 596              	.L101:
 597 0072 0020     		movs	r0, #0
 598 0074 7047     		bx	lr
 599              	.L94:
 600 0076 0120     		movs	r0, #1
 601 0078 7047     		bx	lr
 602              	.L95:
 603 007a 0120     		movs	r0, #1
 604 007c 7047     		bx	lr
 605              	.L96:
 606 007e 0120     		movs	r0, #1
 607 0080 7047     		bx	lr
 608              	.L97:
 609 0082 0120     		movs	r0, #1
 610 0084 7047     		bx	lr
 611              	.L98:
 612 0086 0120     		movs	r0, #1
 613 0088 7047     		bx	lr
 614              	.L99:
 615 008a 0120     		movs	r0, #1
 616 008c 7047     		bx	lr
 617              	.L100:
 618 008e 0120     		movs	r0, #1
 619 0090 7047     		bx	lr
 621 0092 00BF     		.section	.text.DMA_CalcDMAMUXChannelBaseAndMask,"ax",%progbits
 622              		.align	2
 623              		.thumb
 624              		.thumb_func
 626              	DMA_CalcDMAMUXChannelBaseAndMask:
 627              		@ args = 0, pretend = 0, frame = 0
 628              		@ frame_needed = 0, uses_anonymous_args = 0
 629              		@ link register save eliminated.
 630 0000 0368     		ldr	r3, [r0]
 631 0002 294A     		ldr	r2, .L114
 632 0004 2949     		ldr	r1, .L114+4
 633 0006 9342     		cmp	r3, r2
 634 0008 18BF     		it	ne
ARM GAS  C:\Users\xiaofei\AppData\Local\Temp\ccEZCIhm.s 			page 12


 635 000a 8B42     		cmpne	r3, r1
 636 000c 13D0     		beq	.L107
 637 000e 1432     		adds	r2, r2, #20
 638 0010 9342     		cmp	r3, r2
 639 0012 12D0     		beq	.L108
 640 0014 1432     		adds	r2, r2, #20
 641 0016 9342     		cmp	r3, r2
 642 0018 11D0     		beq	.L109
 643 001a 1432     		adds	r2, r2, #20
 644 001c 9342     		cmp	r3, r2
 645 001e 10D0     		beq	.L110
 646 0020 1432     		adds	r2, r2, #20
 647 0022 9342     		cmp	r3, r2
 648 0024 0FD0     		beq	.L111
 649 0026 1432     		adds	r2, r2, #20
 650 0028 9342     		cmp	r3, r2
 651 002a 0ED0     		beq	.L112
 652 002c 1432     		adds	r2, r2, #20
 653 002e 9342     		cmp	r3, r2
 654 0030 0DD1     		bne	.L113
 655 0032 0122     		movs	r2, #1
 656 0034 0CE0     		b	.L103
 657              	.L107:
 658 0036 0122     		movs	r2, #1
 659 0038 0AE0     		b	.L103
 660              	.L108:
 661 003a 0122     		movs	r2, #1
 662 003c 08E0     		b	.L103
 663              	.L109:
 664 003e 0122     		movs	r2, #1
 665 0040 06E0     		b	.L103
 666              	.L110:
 667 0042 0122     		movs	r2, #1
 668 0044 04E0     		b	.L103
 669              	.L111:
 670 0046 0122     		movs	r2, #1
 671 0048 02E0     		b	.L103
 672              	.L112:
 673 004a 0122     		movs	r2, #1
 674 004c 00E0     		b	.L103
 675              	.L113:
 676 004e 0022     		movs	r2, #0
 677              	.L103:
 678 0050 92B1     		cbz	r2, .L104
 679 0052 DBB2     		uxtb	r3, r3
 680 0054 083B     		subs	r3, r3, #8
 681 0056 164A     		ldr	r2, .L114+8
 682 0058 A2FB0323 		umull	r2, r3, r2, r3
 683 005c 1B09     		lsrs	r3, r3, #4
 684 005e 154A     		ldr	r2, .L114+12
 685 0060 1A44     		add	r2, r2, r3
 686 0062 9200     		lsls	r2, r2, #2
 687 0064 0266     		str	r2, [r0, #96]
 688 0066 144A     		ldr	r2, .L114+16
 689 0068 4266     		str	r2, [r0, #100]
 690 006a 03F01F03 		and	r3, r3, #31
 691 006e 0122     		movs	r2, #1
ARM GAS  C:\Users\xiaofei\AppData\Local\Temp\ccEZCIhm.s 			page 13


 692 0070 02FA03F3 		lsl	r3, r2, r3
 693 0074 8366     		str	r3, [r0, #104]
 694 0076 7047     		bx	lr
 695              	.L104:
 696 0078 DAB2     		uxtb	r2, r3
 697 007a 103A     		subs	r2, r2, #16
 698 007c 0F49     		ldr	r1, .L114+20
 699 007e A1FB0212 		umull	r1, r2, r1, r2
 700 0082 1209     		lsrs	r2, r2, #4
 701 0084 0E49     		ldr	r1, .L114+24
 702 0086 1944     		add	r1, r1, r3
 703 0088 A829     		cmp	r1, #168
 704 008a 00D8     		bhi	.L106
 705 008c 0832     		adds	r2, r2, #8
 706              	.L106:
 707 008e 0D4B     		ldr	r3, .L114+28
 708 0090 1344     		add	r3, r3, r2
 709 0092 9B00     		lsls	r3, r3, #2
 710 0094 0366     		str	r3, [r0, #96]
 711 0096 0C4B     		ldr	r3, .L114+32
 712 0098 4366     		str	r3, [r0, #100]
 713 009a 02F01F02 		and	r2, r2, #31
 714 009e 0123     		movs	r3, #1
 715 00a0 03FA02F2 		lsl	r2, r3, r2
 716 00a4 8266     		str	r2, [r0, #104]
 717 00a6 7047     		bx	lr
 718              	.L115:
 719              		.align	2
 720              	.L114:
 721 00a8 1C540258 		.word	1476547612
 722 00ac 08540258 		.word	1476547592
 723 00b0 CDCCCCCC 		.word	-858993459
 724 00b4 00960016 		.word	369137152
 725 00b8 80580258 		.word	1476548736
 726 00bc ABAAAAAA 		.word	-1431655765
 727 00c0 F0FBFDBF 		.word	-1073873936
 728 00c4 00820010 		.word	268468736
 729 00c8 80080240 		.word	1073875072
 731              		.section	.text.DMA_CalcDMAMUXRequestGenBaseAndMask,"ax",%progbits
 732              		.align	2
 733              		.thumb
 734              		.thumb_func
 736              	DMA_CalcDMAMUXRequestGenBaseAndMask:
 737              		@ args = 0, pretend = 0, frame = 0
 738              		@ frame_needed = 0, uses_anonymous_args = 0
 739              		@ link register save eliminated.
 740 0000 0179     		ldrb	r1, [r0, #4]	@ zero_extendqisi2
 741 0002 4A1E     		subs	r2, r1, #1
 742 0004 072A     		cmp	r2, #7
 743 0006 3BD8     		bhi	.L130
 744 0008 30B4     		push	{r4, r5}
 745 000a 0368     		ldr	r3, [r0]
 746 000c 1D4C     		ldr	r4, .L131
 747 000e 1E4D     		ldr	r5, .L131+4
 748 0010 A342     		cmp	r3, r4
 749 0012 18BF     		it	ne
 750 0014 AB42     		cmpne	r3, r5
ARM GAS  C:\Users\xiaofei\AppData\Local\Temp\ccEZCIhm.s 			page 14


 751 0016 13D0     		beq	.L121
 752 0018 1434     		adds	r4, r4, #20
 753 001a A342     		cmp	r3, r4
 754 001c 12D0     		beq	.L122
 755 001e 1434     		adds	r4, r4, #20
 756 0020 A342     		cmp	r3, r4
 757 0022 11D0     		beq	.L123
 758 0024 1434     		adds	r4, r4, #20
 759 0026 A342     		cmp	r3, r4
 760 0028 10D0     		beq	.L124
 761 002a 1434     		adds	r4, r4, #20
 762 002c A342     		cmp	r3, r4
 763 002e 0FD0     		beq	.L125
 764 0030 1434     		adds	r4, r4, #20
 765 0032 A342     		cmp	r3, r4
 766 0034 0ED0     		beq	.L126
 767 0036 1434     		adds	r4, r4, #20
 768 0038 A342     		cmp	r3, r4
 769 003a 0DD1     		bne	.L127
 770 003c 0123     		movs	r3, #1
 771 003e 0CE0     		b	.L118
 772              	.L121:
 773 0040 0123     		movs	r3, #1
 774 0042 0AE0     		b	.L118
 775              	.L122:
 776 0044 0123     		movs	r3, #1
 777 0046 08E0     		b	.L118
 778              	.L123:
 779 0048 0123     		movs	r3, #1
 780 004a 06E0     		b	.L118
 781              	.L124:
 782 004c 0123     		movs	r3, #1
 783 004e 04E0     		b	.L118
 784              	.L125:
 785 0050 0123     		movs	r3, #1
 786 0052 02E0     		b	.L118
 787              	.L126:
 788 0054 0123     		movs	r3, #1
 789 0056 00E0     		b	.L118
 790              	.L127:
 791 0058 0023     		movs	r3, #0
 792              	.L118:
 793 005a 33B1     		cbz	r3, .L119
 794 005c 0B4B     		ldr	r3, .L131+8
 795 005e 0B44     		add	r3, r3, r1
 796 0060 9B00     		lsls	r3, r3, #2
 797 0062 C366     		str	r3, [r0, #108]
 798 0064 0A4B     		ldr	r3, .L131+12
 799 0066 0367     		str	r3, [r0, #112]
 800 0068 05E0     		b	.L120
 801              	.L119:
 802 006a 0A4B     		ldr	r3, .L131+16
 803 006c 0B44     		add	r3, r3, r1
 804 006e 9B00     		lsls	r3, r3, #2
 805 0070 C366     		str	r3, [r0, #108]
 806 0072 094B     		ldr	r3, .L131+20
 807 0074 0367     		str	r3, [r0, #112]
ARM GAS  C:\Users\xiaofei\AppData\Local\Temp\ccEZCIhm.s 			page 15


 808              	.L120:
 809 0076 0123     		movs	r3, #1
 810 0078 03FA02F2 		lsl	r2, r3, r2
 811 007c 4267     		str	r2, [r0, #116]
 812 007e 30BC     		pop	{r4, r5}
 813              	.L130:
 814 0080 7047     		bx	lr
 815              	.L132:
 816 0082 00BF     		.align	2
 817              	.L131:
 818 0084 1C540258 		.word	1476547612
 819 0088 08540258 		.word	1476547592
 820 008c 3F960016 		.word	369137215
 821 0090 40590258 		.word	1476548928
 822 0094 3F820010 		.word	268468799
 823 0098 40090240 		.word	1073875264
 825              		.section	.text.HAL_DMA_Init,"ax",%progbits
 826              		.align	2
 827              		.global	HAL_DMA_Init
 828              		.thumb
 829              		.thumb_func
 831              	HAL_DMA_Init:
 832              		@ args = 0, pretend = 0, frame = 0
 833              		@ frame_needed = 0, uses_anonymous_args = 0
 834 0000 70B5     		push	{r4, r5, r6, lr}
 835 0002 0446     		mov	r4, r0
 836 0004 FFF7FEFF 		bl	HAL_GetTick
 837 0008 002C     		cmp	r4, #0
 838 000a 00F02082 		beq	.L154
 839 000e 0546     		mov	r5, r0
 840 0010 2368     		ldr	r3, [r4]
 841 0012 B049     		ldr	r1, .L205
 842 0014 B04A     		ldr	r2, .L205+4
 843 0016 9342     		cmp	r3, r2
 844 0018 18BF     		it	ne
 845 001a 8B42     		cmpne	r3, r1
 846 001c 0CBF     		ite	eq
 847 001e 0122     		moveq	r2, #1
 848 0020 0022     		movne	r2, #0
 849 0022 2CD0     		beq	.L155
 850 0024 3031     		adds	r1, r1, #48
 851 0026 8B42     		cmp	r3, r1
 852 0028 2BD0     		beq	.L156
 853 002a 1831     		adds	r1, r1, #24
 854 002c 8B42     		cmp	r3, r1
 855 002e 2AD0     		beq	.L157
 856 0030 1831     		adds	r1, r1, #24
 857 0032 8B42     		cmp	r3, r1
 858 0034 29D0     		beq	.L158
 859 0036 1831     		adds	r1, r1, #24
 860 0038 8B42     		cmp	r3, r1
 861 003a 28D0     		beq	.L159
 862 003c 1831     		adds	r1, r1, #24
 863 003e 8B42     		cmp	r3, r1
 864 0040 27D0     		beq	.L160
 865 0042 1831     		adds	r1, r1, #24
 866 0044 8B42     		cmp	r3, r1
ARM GAS  C:\Users\xiaofei\AppData\Local\Temp\ccEZCIhm.s 			page 16


 867 0046 26D0     		beq	.L161
 868 0048 01F55671 		add	r1, r1, #856
 869 004c 8B42     		cmp	r3, r1
 870 004e 24D0     		beq	.L162
 871 0050 1831     		adds	r1, r1, #24
 872 0052 8B42     		cmp	r3, r1
 873 0054 23D0     		beq	.L163
 874 0056 1831     		adds	r1, r1, #24
 875 0058 8B42     		cmp	r3, r1
 876 005a 22D0     		beq	.L164
 877 005c 1831     		adds	r1, r1, #24
 878 005e 8B42     		cmp	r3, r1
 879 0060 21D0     		beq	.L165
 880 0062 1831     		adds	r1, r1, #24
 881 0064 8B42     		cmp	r3, r1
 882 0066 20D0     		beq	.L166
 883 0068 1831     		adds	r1, r1, #24
 884 006a 8B42     		cmp	r3, r1
 885 006c 1FD0     		beq	.L167
 886 006e 1831     		adds	r1, r1, #24
 887 0070 8B42     		cmp	r3, r1
 888 0072 1ED0     		beq	.L168
 889 0074 1831     		adds	r1, r1, #24
 890 0076 8B42     		cmp	r3, r1
 891 0078 1DD1     		bne	.L169
 892 007a 0121     		movs	r1, #1
 893 007c 1CE0     		b	.L135
 894              	.L155:
 895 007e 0121     		movs	r1, #1
 896 0080 1AE0     		b	.L135
 897              	.L156:
 898 0082 0121     		movs	r1, #1
 899 0084 18E0     		b	.L135
 900              	.L157:
 901 0086 0121     		movs	r1, #1
 902 0088 16E0     		b	.L135
 903              	.L158:
 904 008a 0121     		movs	r1, #1
 905 008c 14E0     		b	.L135
 906              	.L159:
 907 008e 0121     		movs	r1, #1
 908 0090 12E0     		b	.L135
 909              	.L160:
 910 0092 0121     		movs	r1, #1
 911 0094 10E0     		b	.L135
 912              	.L161:
 913 0096 0121     		movs	r1, #1
 914 0098 0EE0     		b	.L135
 915              	.L162:
 916 009a 0121     		movs	r1, #1
 917 009c 0CE0     		b	.L135
 918              	.L163:
 919 009e 0121     		movs	r1, #1
 920 00a0 0AE0     		b	.L135
 921              	.L164:
 922 00a2 0121     		movs	r1, #1
 923 00a4 08E0     		b	.L135
ARM GAS  C:\Users\xiaofei\AppData\Local\Temp\ccEZCIhm.s 			page 17


 924              	.L165:
 925 00a6 0121     		movs	r1, #1
 926 00a8 06E0     		b	.L135
 927              	.L166:
 928 00aa 0121     		movs	r1, #1
 929 00ac 04E0     		b	.L135
 930              	.L167:
 931 00ae 0121     		movs	r1, #1
 932 00b0 02E0     		b	.L135
 933              	.L168:
 934 00b2 0121     		movs	r1, #1
 935 00b4 00E0     		b	.L135
 936              	.L169:
 937 00b6 0021     		movs	r1, #0
 938              	.L135:
 939 00b8 0029     		cmp	r1, #0
 940 00ba 00F0A980 		beq	.L136
 941 00be 0021     		movs	r1, #0
 942 00c0 84F83410 		strb	r1, [r4, #52]
 943 00c4 0221     		movs	r1, #2
 944 00c6 84F83510 		strb	r1, [r4, #53]
 945 00ca 52BB     		cbnz	r2, .L137
 946 00cc 834A     		ldr	r2, .L205+8
 947 00ce 9342     		cmp	r3, r2
 948 00d0 27D0     		beq	.L137
 949 00d2 1832     		adds	r2, r2, #24
 950 00d4 9342     		cmp	r3, r2
 951 00d6 24D0     		beq	.L137
 952 00d8 1832     		adds	r2, r2, #24
 953 00da 9342     		cmp	r3, r2
 954 00dc 21D0     		beq	.L137
 955 00de 1832     		adds	r2, r2, #24
 956 00e0 9342     		cmp	r3, r2
 957 00e2 1ED0     		beq	.L137
 958 00e4 1832     		adds	r2, r2, #24
 959 00e6 9342     		cmp	r3, r2
 960 00e8 1BD0     		beq	.L137
 961 00ea 1832     		adds	r2, r2, #24
 962 00ec 9342     		cmp	r3, r2
 963 00ee 18D0     		beq	.L137
 964 00f0 02F55672 		add	r2, r2, #856
 965 00f4 9342     		cmp	r3, r2
 966 00f6 14D0     		beq	.L137
 967 00f8 1832     		adds	r2, r2, #24
 968 00fa 9342     		cmp	r3, r2
 969 00fc 11D0     		beq	.L137
 970 00fe 1832     		adds	r2, r2, #24
 971 0100 9342     		cmp	r3, r2
 972 0102 0ED0     		beq	.L137
 973 0104 1832     		adds	r2, r2, #24
 974 0106 9342     		cmp	r3, r2
 975 0108 0BD0     		beq	.L137
 976 010a 1832     		adds	r2, r2, #24
 977 010c 9342     		cmp	r3, r2
 978 010e 08D0     		beq	.L137
 979 0110 1832     		adds	r2, r2, #24
 980 0112 9342     		cmp	r3, r2
ARM GAS  C:\Users\xiaofei\AppData\Local\Temp\ccEZCIhm.s 			page 18


 981 0114 05D0     		beq	.L137
 982 0116 1832     		adds	r2, r2, #24
 983 0118 9342     		cmp	r3, r2
 984 011a 02D0     		beq	.L137
 985 011c 1832     		adds	r2, r2, #24
 986 011e 9342     		cmp	r3, r2
 987 0120 04D1     		bne	.L138
 988              	.L137:
 989 0122 1A68     		ldr	r2, [r3]
 990 0124 22F00102 		bic	r2, r2, #1
 991 0128 1A60     		str	r2, [r3]
 992 012a 10E0     		b	.L140
 993              	.L138:
 994 012c 1A68     		ldr	r2, [r3]
 995 012e 22F00102 		bic	r2, r2, #1
 996 0132 1A60     		str	r2, [r3]
 997 0134 0BE0     		b	.L140
 998              	.L141:
 999 0136 FFF7FEFF 		bl	HAL_GetTick
 1000 013a 401B     		subs	r0, r0, r5
 1001 013c 0528     		cmp	r0, #5
 1002 013e 06D9     		bls	.L140
 1003 0140 2023     		movs	r3, #32
 1004 0142 6365     		str	r3, [r4, #84]
 1005 0144 0323     		movs	r3, #3
 1006 0146 84F83530 		strb	r3, [r4, #53]
 1007 014a 0120     		movs	r0, #1
 1008 014c 70BD     		pop	{r4, r5, r6, pc}
 1009              	.L140:
 1010 014e 2368     		ldr	r3, [r4]
 1011 0150 1A68     		ldr	r2, [r3]
 1012 0152 12F0010F 		tst	r2, #1
 1013 0156 EED1     		bne	.L141
 1014 0158 1A68     		ldr	r2, [r3]
 1015 015a 6148     		ldr	r0, .L205+12
 1016 015c 1040     		ands	r0, r0, r2
 1017 015e A168     		ldr	r1, [r4, #8]
 1018 0160 E268     		ldr	r2, [r4, #12]
 1019 0162 1143     		orrs	r1, r1, r2
 1020 0164 2269     		ldr	r2, [r4, #16]
 1021 0166 1143     		orrs	r1, r1, r2
 1022 0168 6269     		ldr	r2, [r4, #20]
 1023 016a 1143     		orrs	r1, r1, r2
 1024 016c A269     		ldr	r2, [r4, #24]
 1025 016e 1143     		orrs	r1, r1, r2
 1026 0170 E269     		ldr	r2, [r4, #28]
 1027 0172 0A43     		orrs	r2, r2, r1
 1028 0174 216A     		ldr	r1, [r4, #32]
 1029 0176 1143     		orrs	r1, r1, r2
 1030 0178 40EA0102 		orr	r2, r0, r1
 1031 017c 616A     		ldr	r1, [r4, #36]
 1032 017e 0429     		cmp	r1, #4
 1033 0180 03D1     		bne	.L142
 1034 0182 E06A     		ldr	r0, [r4, #44]
 1035 0184 216B     		ldr	r1, [r4, #48]
 1036 0186 0143     		orrs	r1, r1, r0
 1037 0188 0A43     		orrs	r2, r2, r1
ARM GAS  C:\Users\xiaofei\AppData\Local\Temp\ccEZCIhm.s 			page 19


 1038              	.L142:
 1039 018a 5649     		ldr	r1, .L205+16
 1040 018c 0868     		ldr	r0, [r1]
 1041 018e 5649     		ldr	r1, .L205+20
 1042 0190 0140     		ands	r1, r1, r0
 1043 0192 B1F1005F 		cmp	r1, #536870912
 1044 0196 19D3     		bcc	.L143
 1045 0198 6168     		ldr	r1, [r4, #4]
 1046 019a A1F12905 		sub	r5, r1, #41
 1047 019e A1F13F00 		sub	r0, r1, #63
 1048 01a2 0328     		cmp	r0, #3
 1049 01a4 88BF     		it	hi
 1050 01a6 052D     		cmphi	r5, #5
 1051 01a8 08D9     		bls	.L170
 1052 01aa A1F14700 		sub	r0, r1, #71
 1053 01ae 0128     		cmp	r0, #1
 1054 01b0 06D9     		bls	.L171
 1055 01b2 4F39     		subs	r1, r1, #79
 1056 01b4 0329     		cmp	r1, #3
 1057 01b6 05D8     		bhi	.L172
 1058 01b8 0121     		movs	r1, #1
 1059 01ba 04E0     		b	.L144
 1060              	.L170:
 1061 01bc 0121     		movs	r1, #1
 1062 01be 02E0     		b	.L144
 1063              	.L171:
 1064 01c0 0121     		movs	r1, #1
 1065 01c2 00E0     		b	.L144
 1066              	.L172:
 1067 01c4 0021     		movs	r1, #0
 1068              	.L144:
 1069 01c6 09B1     		cbz	r1, .L143
 1070 01c8 42F48012 		orr	r2, r2, #1048576
 1071              	.L143:
 1072 01cc 1A60     		str	r2, [r3]
 1073 01ce 2668     		ldr	r6, [r4]
 1074 01d0 7569     		ldr	r5, [r6, #20]
 1075 01d2 25F00705 		bic	r5, r5, #7
 1076 01d6 636A     		ldr	r3, [r4, #36]
 1077 01d8 1D43     		orrs	r5, r5, r3
 1078 01da 042B     		cmp	r3, #4
 1079 01dc 0DD1     		bne	.L145
 1080 01de A36A     		ldr	r3, [r4, #40]
 1081 01e0 1D43     		orrs	r5, r5, r3
 1082 01e2 E36A     		ldr	r3, [r4, #44]
 1083 01e4 4BB1     		cbz	r3, .L145
 1084 01e6 2046     		mov	r0, r4
 1085 01e8 FFF7FEFF 		bl	DMA_CheckFifoParam
 1086 01ec 28B1     		cbz	r0, .L145
 1087 01ee 4023     		movs	r3, #64
 1088 01f0 6365     		str	r3, [r4, #84]
 1089 01f2 0120     		movs	r0, #1
 1090 01f4 84F83500 		strb	r0, [r4, #53]
 1091 01f8 70BD     		pop	{r4, r5, r6, pc}
 1092              	.L145:
 1093 01fa 7561     		str	r5, [r6, #20]
 1094 01fc 2046     		mov	r0, r4
ARM GAS  C:\Users\xiaofei\AppData\Local\Temp\ccEZCIhm.s 			page 20


 1095 01fe FFF7FEFF 		bl	DMA_CalcBaseAndBitshift
 1096 0202 E36D     		ldr	r3, [r4, #92]
 1097 0204 03F01F02 		and	r2, r3, #31
 1098 0208 3F23     		movs	r3, #63
 1099 020a 9340     		lsls	r3, r3, r2
 1100 020c 8360     		str	r3, [r0, #8]
 1101 020e 7EE0     		b	.L146
 1102              	.L136:
 1103 0210 364A     		ldr	r2, .L205+24
 1104 0212 3748     		ldr	r0, .L205+28
 1105 0214 9342     		cmp	r3, r2
 1106 0216 18BF     		it	ne
 1107 0218 8342     		cmpne	r3, r0
 1108 021a 13D0     		beq	.L173
 1109 021c 1432     		adds	r2, r2, #20
 1110 021e 9342     		cmp	r3, r2
 1111 0220 12D0     		beq	.L174
 1112 0222 1432     		adds	r2, r2, #20
 1113 0224 9342     		cmp	r3, r2
 1114 0226 11D0     		beq	.L175
 1115 0228 1432     		adds	r2, r2, #20
 1116 022a 9342     		cmp	r3, r2
 1117 022c 10D0     		beq	.L176
 1118 022e 1432     		adds	r2, r2, #20
 1119 0230 9342     		cmp	r3, r2
 1120 0232 0FD0     		beq	.L177
 1121 0234 1432     		adds	r2, r2, #20
 1122 0236 9342     		cmp	r3, r2
 1123 0238 0ED0     		beq	.L178
 1124 023a 1432     		adds	r2, r2, #20
 1125 023c 9342     		cmp	r3, r2
 1126 023e 0CD1     		bne	.L147
 1127 0240 0121     		movs	r1, #1
 1128 0242 0AE0     		b	.L147
 1129              	.L173:
 1130 0244 0121     		movs	r1, #1
 1131 0246 08E0     		b	.L147
 1132              	.L174:
 1133 0248 0121     		movs	r1, #1
 1134 024a 06E0     		b	.L147
 1135              	.L175:
 1136 024c 0121     		movs	r1, #1
 1137 024e 04E0     		b	.L147
 1138              	.L176:
 1139 0250 0121     		movs	r1, #1
 1140 0252 02E0     		b	.L147
 1141              	.L177:
 1142 0254 0121     		movs	r1, #1
 1143 0256 00E0     		b	.L147
 1144              	.L178:
 1145 0258 0121     		movs	r1, #1
 1146              	.L147:
 1147 025a 0029     		cmp	r1, #0
 1148 025c 50D0     		beq	.L148
 1149 025e 0022     		movs	r2, #0
 1150 0260 84F83420 		strb	r2, [r4, #52]
 1151 0264 0222     		movs	r2, #2
ARM GAS  C:\Users\xiaofei\AppData\Local\Temp\ccEZCIhm.s 			page 21


 1152 0266 84F83520 		strb	r2, [r4, #53]
 1153 026a 1A68     		ldr	r2, [r3]
 1154 026c 2148     		ldr	r0, .L205+32
 1155 026e 1040     		ands	r0, r0, r2
 1156 0270 A268     		ldr	r2, [r4, #8]
 1157 0272 402A     		cmp	r2, #64
 1158 0274 04D0     		beq	.L179
 1159 0276 802A     		cmp	r2, #128
 1160 0278 04D1     		bne	.L180
 1161 027a 4FF48041 		mov	r1, #16384
 1162 027e 02E0     		b	.L149
 1163              	.L179:
 1164 0280 1021     		movs	r1, #16
 1165 0282 00E0     		b	.L149
 1166              	.L180:
 1167 0284 0021     		movs	r1, #0
 1168              	.L149:
 1169 0286 E268     		ldr	r2, [r4, #12]
 1170 0288 41EAD201 		orr	r1, r1, r2, lsr #3
 1171 028c 2269     		ldr	r2, [r4, #16]
 1172 028e 41EAD201 		orr	r1, r1, r2, lsr #3
 1173 0292 6269     		ldr	r2, [r4, #20]
 1174 0294 41EAD201 		orr	r1, r1, r2, lsr #3
 1175 0298 A269     		ldr	r2, [r4, #24]
 1176 029a 41EAD201 		orr	r1, r1, r2, lsr #3
 1177 029e E269     		ldr	r2, [r4, #28]
 1178 02a0 41EAD201 		orr	r1, r1, r2, lsr #3
 1179 02a4 226A     		ldr	r2, [r4, #32]
 1180 02a6 41EA1212 		orr	r2, r1, r2, lsr #4
 1181 02aa 0243     		orrs	r2, r2, r0
 1182 02ac 1A60     		str	r2, [r3]
 1183 02ae 2268     		ldr	r2, [r4]
 1184 02b0 114B     		ldr	r3, .L205+36
 1185 02b2 1344     		add	r3, r3, r2
 1186 02b4 114A     		ldr	r2, .L205+40
 1187 02b6 A2FB0323 		umull	r2, r3, r2, r3
 1188 02ba 1B09     		lsrs	r3, r3, #4
 1189 02bc 9B00     		lsls	r3, r3, #2
 1190 02be E365     		str	r3, [r4, #92]
 1191 02c0 2046     		mov	r0, r4
 1192 02c2 FFF7FEFF 		bl	DMA_CalcBaseAndBitshift
 1193 02c6 E36D     		ldr	r3, [r4, #92]
 1194 02c8 03F01F02 		and	r2, r3, #31
 1195 02cc 0123     		movs	r3, #1
 1196 02ce 9340     		lsls	r3, r3, r2
 1197 02d0 4360     		str	r3, [r0, #4]
 1198 02d2 1CE0     		b	.L146
 1199              	.L206:
 1200              		.align	2
 1201              	.L205:
 1202 02d4 10000240 		.word	1073872912
 1203 02d8 28000240 		.word	1073872936
 1204 02dc 40000240 		.word	1073872960
 1205 02e0 3F8010FE 		.word	-32473025
 1206 02e4 0010005C 		.word	1543507968
 1207 02e8 0000FFFF 		.word	-65536
 1208 02ec 1C540258 		.word	1476547612
ARM GAS  C:\Users\xiaofei\AppData\Local\Temp\ccEZCIhm.s 			page 22


 1209 02f0 08540258 		.word	1476547592
 1210 02f4 0F00FEFF 		.word	-131057
 1211 02f8 F8ABFDA7 		.word	-1476547592
 1212 02fc CDCCCCCC 		.word	-858993459
 1213              	.L148:
 1214 0300 4023     		movs	r3, #64
 1215 0302 6365     		str	r3, [r4, #84]
 1216 0304 0323     		movs	r3, #3
 1217 0306 84F83530 		strb	r3, [r4, #53]
 1218 030a 0120     		movs	r0, #1
 1219 030c 70BD     		pop	{r4, r5, r6, pc}
 1220              	.L146:
 1221 030e 2368     		ldr	r3, [r4]
 1222 0310 504A     		ldr	r2, .L207
 1223 0312 5149     		ldr	r1, .L207+4
 1224 0314 9342     		cmp	r3, r2
 1225 0316 18BF     		it	ne
 1226 0318 8B42     		cmpne	r3, r1
 1227 031a 44D0     		beq	.L181
 1228 031c 1832     		adds	r2, r2, #24
 1229 031e 9342     		cmp	r3, r2
 1230 0320 43D0     		beq	.L182
 1231 0322 1832     		adds	r2, r2, #24
 1232 0324 9342     		cmp	r3, r2
 1233 0326 42D0     		beq	.L183
 1234 0328 1832     		adds	r2, r2, #24
 1235 032a 9342     		cmp	r3, r2
 1236 032c 41D0     		beq	.L184
 1237 032e 1832     		adds	r2, r2, #24
 1238 0330 9342     		cmp	r3, r2
 1239 0332 40D0     		beq	.L185
 1240 0334 1832     		adds	r2, r2, #24
 1241 0336 9342     		cmp	r3, r2
 1242 0338 3FD0     		beq	.L186
 1243 033a 1832     		adds	r2, r2, #24
 1244 033c 9342     		cmp	r3, r2
 1245 033e 3ED0     		beq	.L187
 1246 0340 02F55672 		add	r2, r2, #856
 1247 0344 9342     		cmp	r3, r2
 1248 0346 3CD0     		beq	.L188
 1249 0348 1832     		adds	r2, r2, #24
 1250 034a 9342     		cmp	r3, r2
 1251 034c 3BD0     		beq	.L189
 1252 034e 1832     		adds	r2, r2, #24
 1253 0350 9342     		cmp	r3, r2
 1254 0352 3AD0     		beq	.L190
 1255 0354 1832     		adds	r2, r2, #24
 1256 0356 9342     		cmp	r3, r2
 1257 0358 39D0     		beq	.L191
 1258 035a 1832     		adds	r2, r2, #24
 1259 035c 9342     		cmp	r3, r2
 1260 035e 38D0     		beq	.L192
 1261 0360 1832     		adds	r2, r2, #24
 1262 0362 9342     		cmp	r3, r2
 1263 0364 37D0     		beq	.L193
 1264 0366 1832     		adds	r2, r2, #24
 1265 0368 9342     		cmp	r3, r2
ARM GAS  C:\Users\xiaofei\AppData\Local\Temp\ccEZCIhm.s 			page 23


 1266 036a 36D0     		beq	.L194
 1267 036c 1832     		adds	r2, r2, #24
 1268 036e 9342     		cmp	r3, r2
 1269 0370 35D0     		beq	.L195
 1270 0372 3A4A     		ldr	r2, .L207+8
 1271 0374 9342     		cmp	r3, r2
 1272 0376 34D0     		beq	.L196
 1273 0378 1432     		adds	r2, r2, #20
 1274 037a 9342     		cmp	r3, r2
 1275 037c 33D0     		beq	.L197
 1276 037e 1432     		adds	r2, r2, #20
 1277 0380 9342     		cmp	r3, r2
 1278 0382 32D0     		beq	.L198
 1279 0384 1432     		adds	r2, r2, #20
 1280 0386 9342     		cmp	r3, r2
 1281 0388 31D0     		beq	.L199
 1282 038a 1432     		adds	r2, r2, #20
 1283 038c 9342     		cmp	r3, r2
 1284 038e 30D0     		beq	.L200
 1285 0390 1432     		adds	r2, r2, #20
 1286 0392 9342     		cmp	r3, r2
 1287 0394 2FD0     		beq	.L201
 1288 0396 1432     		adds	r2, r2, #20
 1289 0398 9342     		cmp	r3, r2
 1290 039a 2ED0     		beq	.L202
 1291 039c 1432     		adds	r2, r2, #20
 1292 039e 9342     		cmp	r3, r2
 1293 03a0 2DD1     		bne	.L203
 1294 03a2 0123     		movs	r3, #1
 1295 03a4 2CE0     		b	.L150
 1296              	.L181:
 1297 03a6 0123     		movs	r3, #1
 1298 03a8 2AE0     		b	.L150
 1299              	.L182:
 1300 03aa 0123     		movs	r3, #1
 1301 03ac 28E0     		b	.L150
 1302              	.L183:
 1303 03ae 0123     		movs	r3, #1
 1304 03b0 26E0     		b	.L150
 1305              	.L184:
 1306 03b2 0123     		movs	r3, #1
 1307 03b4 24E0     		b	.L150
 1308              	.L185:
 1309 03b6 0123     		movs	r3, #1
 1310 03b8 22E0     		b	.L150
 1311              	.L186:
 1312 03ba 0123     		movs	r3, #1
 1313 03bc 20E0     		b	.L150
 1314              	.L187:
 1315 03be 0123     		movs	r3, #1
 1316 03c0 1EE0     		b	.L150
 1317              	.L188:
 1318 03c2 0123     		movs	r3, #1
 1319 03c4 1CE0     		b	.L150
 1320              	.L189:
 1321 03c6 0123     		movs	r3, #1
 1322 03c8 1AE0     		b	.L150
ARM GAS  C:\Users\xiaofei\AppData\Local\Temp\ccEZCIhm.s 			page 24


 1323              	.L190:
 1324 03ca 0123     		movs	r3, #1
 1325 03cc 18E0     		b	.L150
 1326              	.L191:
 1327 03ce 0123     		movs	r3, #1
 1328 03d0 16E0     		b	.L150
 1329              	.L192:
 1330 03d2 0123     		movs	r3, #1
 1331 03d4 14E0     		b	.L150
 1332              	.L193:
 1333 03d6 0123     		movs	r3, #1
 1334 03d8 12E0     		b	.L150
 1335              	.L194:
 1336 03da 0123     		movs	r3, #1
 1337 03dc 10E0     		b	.L150
 1338              	.L195:
 1339 03de 0123     		movs	r3, #1
 1340 03e0 0EE0     		b	.L150
 1341              	.L196:
 1342 03e2 0123     		movs	r3, #1
 1343 03e4 0CE0     		b	.L150
 1344              	.L197:
 1345 03e6 0123     		movs	r3, #1
 1346 03e8 0AE0     		b	.L150
 1347              	.L198:
 1348 03ea 0123     		movs	r3, #1
 1349 03ec 08E0     		b	.L150
 1350              	.L199:
 1351 03ee 0123     		movs	r3, #1
 1352 03f0 06E0     		b	.L150
 1353              	.L200:
 1354 03f2 0123     		movs	r3, #1
 1355 03f4 04E0     		b	.L150
 1356              	.L201:
 1357 03f6 0123     		movs	r3, #1
 1358 03f8 02E0     		b	.L150
 1359              	.L202:
 1360 03fa 0123     		movs	r3, #1
 1361 03fc 00E0     		b	.L150
 1362              	.L203:
 1363 03fe 0023     		movs	r3, #0
 1364              	.L150:
 1365 0400 FBB1     		cbz	r3, .L151
 1366 0402 2046     		mov	r0, r4
 1367 0404 FFF7FEFF 		bl	DMA_CalcDMAMUXChannelBaseAndMask
 1368 0408 A368     		ldr	r3, [r4, #8]
 1369 040a 802B     		cmp	r3, #128
 1370 040c 01D1     		bne	.L152
 1371 040e 0023     		movs	r3, #0
 1372 0410 6360     		str	r3, [r4, #4]
 1373              	.L152:
 1374 0412 236E     		ldr	r3, [r4, #96]
 1375 0414 2279     		ldrb	r2, [r4, #4]	@ zero_extendqisi2
 1376 0416 1A60     		str	r2, [r3]
 1377 0418 636E     		ldr	r3, [r4, #100]
 1378 041a A26E     		ldr	r2, [r4, #104]
 1379 041c 5A60     		str	r2, [r3, #4]
ARM GAS  C:\Users\xiaofei\AppData\Local\Temp\ccEZCIhm.s 			page 25


 1380 041e 6368     		ldr	r3, [r4, #4]
 1381 0420 013B     		subs	r3, r3, #1
 1382 0422 072B     		cmp	r3, #7
 1383 0424 09D8     		bhi	.L153
 1384 0426 2046     		mov	r0, r4
 1385 0428 FFF7FEFF 		bl	DMA_CalcDMAMUXRequestGenBaseAndMask
 1386 042c E36E     		ldr	r3, [r4, #108]
 1387 042e 0022     		movs	r2, #0
 1388 0430 1A60     		str	r2, [r3]
 1389 0432 236F     		ldr	r3, [r4, #112]
 1390 0434 626F     		ldr	r2, [r4, #116]
 1391 0436 5A60     		str	r2, [r3, #4]
 1392 0438 03E0     		b	.L151
 1393              	.L153:
 1394 043a 0023     		movs	r3, #0
 1395 043c E366     		str	r3, [r4, #108]
 1396 043e 2367     		str	r3, [r4, #112]
 1397 0440 6367     		str	r3, [r4, #116]
 1398              	.L151:
 1399 0442 0020     		movs	r0, #0
 1400 0444 6065     		str	r0, [r4, #84]
 1401 0446 0123     		movs	r3, #1
 1402 0448 84F83530 		strb	r3, [r4, #53]
 1403 044c 70BD     		pop	{r4, r5, r6, pc}
 1404              	.L154:
 1405 044e 0120     		movs	r0, #1
 1406 0450 70BD     		pop	{r4, r5, r6, pc}
 1407              	.L208:
 1408 0452 00BF     		.align	2
 1409              	.L207:
 1410 0454 28000240 		.word	1073872936
 1411 0458 10000240 		.word	1073872912
 1412 045c 08540258 		.word	1476547592
 1414              		.section	.text.HAL_DMA_DeInit,"ax",%progbits
 1415              		.align	2
 1416              		.global	HAL_DMA_DeInit
 1417              		.thumb
 1418              		.thumb_func
 1420              	HAL_DMA_DeInit:
 1421              		@ args = 0, pretend = 0, frame = 0
 1422              		@ frame_needed = 0, uses_anonymous_args = 0
 1423 0000 0028     		cmp	r0, #0
 1424 0002 00F00781 		beq	.L220
 1425 0006 10B5     		push	{r4, lr}
 1426 0008 0446     		mov	r4, r0
 1427 000a 0368     		ldr	r3, [r0]
 1428 000c 834A     		ldr	r2, .L244
 1429 000e 8449     		ldr	r1, .L244+4
 1430 0010 9342     		cmp	r3, r2
 1431 0012 18BF     		it	ne
 1432 0014 8B42     		cmpne	r3, r1
 1433 0016 2AD0     		beq	.L211
 1434 0018 1832     		adds	r2, r2, #24
 1435 001a 9342     		cmp	r3, r2
 1436 001c 27D0     		beq	.L211
 1437 001e 1832     		adds	r2, r2, #24
 1438 0020 9342     		cmp	r3, r2
ARM GAS  C:\Users\xiaofei\AppData\Local\Temp\ccEZCIhm.s 			page 26


 1439 0022 24D0     		beq	.L211
 1440 0024 1832     		adds	r2, r2, #24
 1441 0026 9342     		cmp	r3, r2
 1442 0028 21D0     		beq	.L211
 1443 002a 1832     		adds	r2, r2, #24
 1444 002c 9342     		cmp	r3, r2
 1445 002e 1ED0     		beq	.L211
 1446 0030 1832     		adds	r2, r2, #24
 1447 0032 9342     		cmp	r3, r2
 1448 0034 1BD0     		beq	.L211
 1449 0036 1832     		adds	r2, r2, #24
 1450 0038 9342     		cmp	r3, r2
 1451 003a 18D0     		beq	.L211
 1452 003c 02F55672 		add	r2, r2, #856
 1453 0040 9342     		cmp	r3, r2
 1454 0042 14D0     		beq	.L211
 1455 0044 1832     		adds	r2, r2, #24
 1456 0046 9342     		cmp	r3, r2
 1457 0048 11D0     		beq	.L211
 1458 004a 1832     		adds	r2, r2, #24
 1459 004c 9342     		cmp	r3, r2
 1460 004e 0ED0     		beq	.L211
 1461 0050 1832     		adds	r2, r2, #24
 1462 0052 9342     		cmp	r3, r2
 1463 0054 0BD0     		beq	.L211
 1464 0056 1832     		adds	r2, r2, #24
 1465 0058 9342     		cmp	r3, r2
 1466 005a 08D0     		beq	.L211
 1467 005c 1832     		adds	r2, r2, #24
 1468 005e 9342     		cmp	r3, r2
 1469 0060 05D0     		beq	.L211
 1470 0062 1832     		adds	r2, r2, #24
 1471 0064 9342     		cmp	r3, r2
 1472 0066 02D0     		beq	.L211
 1473 0068 1832     		adds	r2, r2, #24
 1474 006a 9342     		cmp	r3, r2
 1475 006c 04D1     		bne	.L212
 1476              	.L211:
 1477 006e 1A68     		ldr	r2, [r3]
 1478 0070 22F00102 		bic	r2, r2, #1
 1479 0074 1A60     		str	r2, [r3]
 1480 0076 03E0     		b	.L213
 1481              	.L212:
 1482 0078 1A68     		ldr	r2, [r3]
 1483 007a 22F00102 		bic	r2, r2, #1
 1484 007e 1A60     		str	r2, [r3]
 1485              	.L213:
 1486 0080 2368     		ldr	r3, [r4]
 1487 0082 664A     		ldr	r2, .L244
 1488 0084 6649     		ldr	r1, .L244+4
 1489 0086 9342     		cmp	r3, r2
 1490 0088 18BF     		it	ne
 1491 008a 8B42     		cmpne	r3, r1
 1492 008c 2CD0     		beq	.L221
 1493 008e 1832     		adds	r2, r2, #24
 1494 0090 9342     		cmp	r3, r2
 1495 0092 2BD0     		beq	.L222
ARM GAS  C:\Users\xiaofei\AppData\Local\Temp\ccEZCIhm.s 			page 27


 1496 0094 1832     		adds	r2, r2, #24
 1497 0096 9342     		cmp	r3, r2
 1498 0098 2AD0     		beq	.L223
 1499 009a 1832     		adds	r2, r2, #24
 1500 009c 9342     		cmp	r3, r2
 1501 009e 29D0     		beq	.L224
 1502 00a0 1832     		adds	r2, r2, #24
 1503 00a2 9342     		cmp	r3, r2
 1504 00a4 28D0     		beq	.L225
 1505 00a6 1832     		adds	r2, r2, #24
 1506 00a8 9342     		cmp	r3, r2
 1507 00aa 27D0     		beq	.L226
 1508 00ac 1832     		adds	r2, r2, #24
 1509 00ae 9342     		cmp	r3, r2
 1510 00b0 26D0     		beq	.L227
 1511 00b2 02F55672 		add	r2, r2, #856
 1512 00b6 9342     		cmp	r3, r2
 1513 00b8 24D0     		beq	.L228
 1514 00ba 1832     		adds	r2, r2, #24
 1515 00bc 9342     		cmp	r3, r2
 1516 00be 23D0     		beq	.L229
 1517 00c0 1832     		adds	r2, r2, #24
 1518 00c2 9342     		cmp	r3, r2
 1519 00c4 22D0     		beq	.L230
 1520 00c6 1832     		adds	r2, r2, #24
 1521 00c8 9342     		cmp	r3, r2
 1522 00ca 21D0     		beq	.L231
 1523 00cc 1832     		adds	r2, r2, #24
 1524 00ce 9342     		cmp	r3, r2
 1525 00d0 20D0     		beq	.L232
 1526 00d2 1832     		adds	r2, r2, #24
 1527 00d4 9342     		cmp	r3, r2
 1528 00d6 1FD0     		beq	.L233
 1529 00d8 1832     		adds	r2, r2, #24
 1530 00da 9342     		cmp	r3, r2
 1531 00dc 1ED0     		beq	.L234
 1532 00de 1832     		adds	r2, r2, #24
 1533 00e0 9342     		cmp	r3, r2
 1534 00e2 1DD1     		bne	.L235
 1535 00e4 0122     		movs	r2, #1
 1536 00e6 1CE0     		b	.L214
 1537              	.L221:
 1538 00e8 0122     		movs	r2, #1
 1539 00ea 1AE0     		b	.L214
 1540              	.L222:
 1541 00ec 0122     		movs	r2, #1
 1542 00ee 18E0     		b	.L214
 1543              	.L223:
 1544 00f0 0122     		movs	r2, #1
 1545 00f2 16E0     		b	.L214
 1546              	.L224:
 1547 00f4 0122     		movs	r2, #1
 1548 00f6 14E0     		b	.L214
 1549              	.L225:
 1550 00f8 0122     		movs	r2, #1
 1551 00fa 12E0     		b	.L214
 1552              	.L226:
ARM GAS  C:\Users\xiaofei\AppData\Local\Temp\ccEZCIhm.s 			page 28


 1553 00fc 0122     		movs	r2, #1
 1554 00fe 10E0     		b	.L214
 1555              	.L227:
 1556 0100 0122     		movs	r2, #1
 1557 0102 0EE0     		b	.L214
 1558              	.L228:
 1559 0104 0122     		movs	r2, #1
 1560 0106 0CE0     		b	.L214
 1561              	.L229:
 1562 0108 0122     		movs	r2, #1
 1563 010a 0AE0     		b	.L214
 1564              	.L230:
 1565 010c 0122     		movs	r2, #1
 1566 010e 08E0     		b	.L214
 1567              	.L231:
 1568 0110 0122     		movs	r2, #1
 1569 0112 06E0     		b	.L214
 1570              	.L232:
 1571 0114 0122     		movs	r2, #1
 1572 0116 04E0     		b	.L214
 1573              	.L233:
 1574 0118 0122     		movs	r2, #1
 1575 011a 02E0     		b	.L214
 1576              	.L234:
 1577 011c 0122     		movs	r2, #1
 1578 011e 00E0     		b	.L214
 1579              	.L235:
 1580 0120 0022     		movs	r2, #0
 1581              	.L214:
 1582 0122 B2B1     		cbz	r2, .L215
 1583 0124 0022     		movs	r2, #0
 1584 0126 1A60     		str	r2, [r3]
 1585 0128 2368     		ldr	r3, [r4]
 1586 012a 5A60     		str	r2, [r3, #4]
 1587 012c 2368     		ldr	r3, [r4]
 1588 012e 9A60     		str	r2, [r3, #8]
 1589 0130 2368     		ldr	r3, [r4]
 1590 0132 DA60     		str	r2, [r3, #12]
 1591 0134 2368     		ldr	r3, [r4]
 1592 0136 1A61     		str	r2, [r3, #16]
 1593 0138 2368     		ldr	r3, [r4]
 1594 013a 2122     		movs	r2, #33
 1595 013c 5A61     		str	r2, [r3, #20]
 1596 013e 2046     		mov	r0, r4
 1597 0140 FFF7FEFF 		bl	DMA_CalcBaseAndBitshift
 1598 0144 E36D     		ldr	r3, [r4, #92]
 1599 0146 03F01F02 		and	r2, r3, #31
 1600 014a 3F23     		movs	r3, #63
 1601 014c 9340     		lsls	r3, r3, r2
 1602 014e 8360     		str	r3, [r0, #8]
 1603 0150 39E0     		b	.L216
 1604              	.L215:
 1605 0152 3449     		ldr	r1, .L244+8
 1606 0154 3448     		ldr	r0, .L244+12
 1607 0156 8B42     		cmp	r3, r1
 1608 0158 18BF     		it	ne
 1609 015a 8342     		cmpne	r3, r0
ARM GAS  C:\Users\xiaofei\AppData\Local\Temp\ccEZCIhm.s 			page 29


 1610 015c 13D0     		beq	.L236
 1611 015e 1431     		adds	r1, r1, #20
 1612 0160 8B42     		cmp	r3, r1
 1613 0162 12D0     		beq	.L237
 1614 0164 1431     		adds	r1, r1, #20
 1615 0166 8B42     		cmp	r3, r1
 1616 0168 11D0     		beq	.L238
 1617 016a 1431     		adds	r1, r1, #20
 1618 016c 8B42     		cmp	r3, r1
 1619 016e 10D0     		beq	.L239
 1620 0170 1431     		adds	r1, r1, #20
 1621 0172 8B42     		cmp	r3, r1
 1622 0174 0FD0     		beq	.L240
 1623 0176 1431     		adds	r1, r1, #20
 1624 0178 8B42     		cmp	r3, r1
 1625 017a 0ED0     		beq	.L241
 1626 017c 1431     		adds	r1, r1, #20
 1627 017e 8B42     		cmp	r3, r1
 1628 0180 0CD1     		bne	.L217
 1629 0182 0122     		movs	r2, #1
 1630 0184 0AE0     		b	.L217
 1631              	.L236:
 1632 0186 0122     		movs	r2, #1
 1633 0188 08E0     		b	.L217
 1634              	.L237:
 1635 018a 0122     		movs	r2, #1
 1636 018c 06E0     		b	.L217
 1637              	.L238:
 1638 018e 0122     		movs	r2, #1
 1639 0190 04E0     		b	.L217
 1640              	.L239:
 1641 0192 0122     		movs	r2, #1
 1642 0194 02E0     		b	.L217
 1643              	.L240:
 1644 0196 0122     		movs	r2, #1
 1645 0198 00E0     		b	.L217
 1646              	.L241:
 1647 019a 0122     		movs	r2, #1
 1648              	.L217:
 1649 019c 002A     		cmp	r2, #0
 1650 019e 3BD0     		beq	.L242
 1651 01a0 0022     		movs	r2, #0
 1652 01a2 1A60     		str	r2, [r3]
 1653 01a4 2368     		ldr	r3, [r4]
 1654 01a6 5A60     		str	r2, [r3, #4]
 1655 01a8 2368     		ldr	r3, [r4]
 1656 01aa 9A60     		str	r2, [r3, #8]
 1657 01ac 2368     		ldr	r3, [r4]
 1658 01ae DA60     		str	r2, [r3, #12]
 1659 01b0 2368     		ldr	r3, [r4]
 1660 01b2 1A61     		str	r2, [r3, #16]
 1661 01b4 2046     		mov	r0, r4
 1662 01b6 FFF7FEFF 		bl	DMA_CalcBaseAndBitshift
 1663 01ba E36D     		ldr	r3, [r4, #92]
 1664 01bc 03F01F02 		and	r2, r3, #31
 1665 01c0 0123     		movs	r3, #1
 1666 01c2 9340     		lsls	r3, r3, r2
ARM GAS  C:\Users\xiaofei\AppData\Local\Temp\ccEZCIhm.s 			page 30


 1667 01c4 4360     		str	r3, [r0, #4]
 1668              	.L216:
 1669 01c6 2046     		mov	r0, r4
 1670 01c8 FFF7FEFF 		bl	DMA_CalcDMAMUXChannelBaseAndMask
 1671 01cc 236E     		ldr	r3, [r4, #96]
 1672 01ce 23B1     		cbz	r3, .L218
 1673 01d0 0022     		movs	r2, #0
 1674 01d2 1A60     		str	r2, [r3]
 1675 01d4 636E     		ldr	r3, [r4, #100]
 1676 01d6 A26E     		ldr	r2, [r4, #104]
 1677 01d8 5A60     		str	r2, [r3, #4]
 1678              	.L218:
 1679 01da 6368     		ldr	r3, [r4, #4]
 1680 01dc 013B     		subs	r3, r3, #1
 1681 01de 072B     		cmp	r3, #7
 1682 01e0 08D8     		bhi	.L219
 1683 01e2 2046     		mov	r0, r4
 1684 01e4 FFF7FEFF 		bl	DMA_CalcDMAMUXRequestGenBaseAndMask
 1685 01e8 E36E     		ldr	r3, [r4, #108]
 1686 01ea 0022     		movs	r2, #0
 1687 01ec 1A60     		str	r2, [r3]
 1688 01ee 236F     		ldr	r3, [r4, #112]
 1689 01f0 626F     		ldr	r2, [r4, #116]
 1690 01f2 5A60     		str	r2, [r3, #4]
 1691              	.L219:
 1692 01f4 0020     		movs	r0, #0
 1693 01f6 E066     		str	r0, [r4, #108]
 1694 01f8 2067     		str	r0, [r4, #112]
 1695 01fa 6067     		str	r0, [r4, #116]
 1696 01fc E063     		str	r0, [r4, #60]
 1697 01fe 2064     		str	r0, [r4, #64]
 1698 0200 6064     		str	r0, [r4, #68]
 1699 0202 A064     		str	r0, [r4, #72]
 1700 0204 E064     		str	r0, [r4, #76]
 1701 0206 2065     		str	r0, [r4, #80]
 1702 0208 6065     		str	r0, [r4, #84]
 1703 020a 84F83500 		strb	r0, [r4, #53]
 1704 020e 84F83400 		strb	r0, [r4, #52]
 1705 0212 10BD     		pop	{r4, pc}
 1706              	.L220:
 1707 0214 0120     		movs	r0, #1
 1708 0216 7047     		bx	lr
 1709              	.L242:
 1710 0218 0120     		movs	r0, #1
 1711 021a 10BD     		pop	{r4, pc}
 1712              	.L245:
 1713              		.align	2
 1714              	.L244:
 1715 021c 28000240 		.word	1073872936
 1716 0220 10000240 		.word	1073872912
 1717 0224 1C540258 		.word	1476547612
 1718 0228 08540258 		.word	1476547592
 1720              		.section	.text.HAL_DMA_Start,"ax",%progbits
 1721              		.align	2
 1722              		.global	HAL_DMA_Start
 1723              		.thumb
 1724              		.thumb_func
ARM GAS  C:\Users\xiaofei\AppData\Local\Temp\ccEZCIhm.s 			page 31


 1726              	HAL_DMA_Start:
 1727              		@ args = 0, pretend = 0, frame = 0
 1728              		@ frame_needed = 0, uses_anonymous_args = 0
 1729 0000 0028     		cmp	r0, #0
 1730 0002 00F09980 		beq	.L254
 1731 0006 70B5     		push	{r4, r5, r6, lr}
 1732 0008 0446     		mov	r4, r0
 1733 000a 90F83400 		ldrb	r0, [r0, #52]	@ zero_extendqisi2
 1734 000e 0128     		cmp	r0, #1
 1735 0010 00F09480 		beq	.L255
 1736 0014 0120     		movs	r0, #1
 1737 0016 84F83400 		strb	r0, [r4, #52]
 1738 001a 94F83500 		ldrb	r0, [r4, #53]	@ zero_extendqisi2
 1739 001e C0B2     		uxtb	r0, r0
 1740 0020 0128     		cmp	r0, #1
 1741 0022 40F08180 		bne	.L248
 1742 0026 0220     		movs	r0, #2
 1743 0028 84F83500 		strb	r0, [r4, #53]
 1744 002c 0020     		movs	r0, #0
 1745 002e 6065     		str	r0, [r4, #84]
 1746 0030 2068     		ldr	r0, [r4]
 1747 0032 434D     		ldr	r5, .L257
 1748 0034 434E     		ldr	r6, .L257+4
 1749 0036 A842     		cmp	r0, r5
 1750 0038 18BF     		it	ne
 1751 003a B042     		cmpne	r0, r6
 1752 003c 2AD0     		beq	.L249
 1753 003e 1835     		adds	r5, r5, #24
 1754 0040 A842     		cmp	r0, r5
 1755 0042 27D0     		beq	.L249
 1756 0044 1835     		adds	r5, r5, #24
 1757 0046 A842     		cmp	r0, r5
 1758 0048 24D0     		beq	.L249
 1759 004a 1835     		adds	r5, r5, #24
 1760 004c A842     		cmp	r0, r5
 1761 004e 21D0     		beq	.L249
 1762 0050 1835     		adds	r5, r5, #24
 1763 0052 A842     		cmp	r0, r5
 1764 0054 1ED0     		beq	.L249
 1765 0056 1835     		adds	r5, r5, #24
 1766 0058 A842     		cmp	r0, r5
 1767 005a 1BD0     		beq	.L249
 1768 005c 1835     		adds	r5, r5, #24
 1769 005e A842     		cmp	r0, r5
 1770 0060 18D0     		beq	.L249
 1771 0062 05F55675 		add	r5, r5, #856
 1772 0066 A842     		cmp	r0, r5
 1773 0068 14D0     		beq	.L249
 1774 006a 1835     		adds	r5, r5, #24
 1775 006c A842     		cmp	r0, r5
 1776 006e 11D0     		beq	.L249
 1777 0070 1835     		adds	r5, r5, #24
 1778 0072 A842     		cmp	r0, r5
 1779 0074 0ED0     		beq	.L249
 1780 0076 1835     		adds	r5, r5, #24
 1781 0078 A842     		cmp	r0, r5
 1782 007a 0BD0     		beq	.L249
ARM GAS  C:\Users\xiaofei\AppData\Local\Temp\ccEZCIhm.s 			page 32


 1783 007c 1835     		adds	r5, r5, #24
 1784 007e A842     		cmp	r0, r5
 1785 0080 08D0     		beq	.L249
 1786 0082 1835     		adds	r5, r5, #24
 1787 0084 A842     		cmp	r0, r5
 1788 0086 05D0     		beq	.L249
 1789 0088 1835     		adds	r5, r5, #24
 1790 008a A842     		cmp	r0, r5
 1791 008c 02D0     		beq	.L249
 1792 008e 1835     		adds	r5, r5, #24
 1793 0090 A842     		cmp	r0, r5
 1794 0092 04D1     		bne	.L250
 1795              	.L249:
 1796 0094 0568     		ldr	r5, [r0]
 1797 0096 25F00105 		bic	r5, r5, #1
 1798 009a 0560     		str	r5, [r0]
 1799 009c 03E0     		b	.L251
 1800              	.L250:
 1801 009e 0568     		ldr	r5, [r0]
 1802 00a0 25F00105 		bic	r5, r5, #1
 1803 00a4 0560     		str	r5, [r0]
 1804              	.L251:
 1805 00a6 2046     		mov	r0, r4
 1806 00a8 FFF7FEFF 		bl	DMA_SetConfig
 1807 00ac 2368     		ldr	r3, [r4]
 1808 00ae 244A     		ldr	r2, .L257
 1809 00b0 2449     		ldr	r1, .L257+4
 1810 00b2 9342     		cmp	r3, r2
 1811 00b4 18BF     		it	ne
 1812 00b6 8B42     		cmpne	r3, r1
 1813 00b8 2AD0     		beq	.L252
 1814 00ba 1832     		adds	r2, r2, #24
 1815 00bc 9342     		cmp	r3, r2
 1816 00be 27D0     		beq	.L252
 1817 00c0 1832     		adds	r2, r2, #24
 1818 00c2 9342     		cmp	r3, r2
 1819 00c4 24D0     		beq	.L252
 1820 00c6 1832     		adds	r2, r2, #24
 1821 00c8 9342     		cmp	r3, r2
 1822 00ca 21D0     		beq	.L252
 1823 00cc 1832     		adds	r2, r2, #24
 1824 00ce 9342     		cmp	r3, r2
 1825 00d0 1ED0     		beq	.L252
 1826 00d2 1832     		adds	r2, r2, #24
 1827 00d4 9342     		cmp	r3, r2
 1828 00d6 1BD0     		beq	.L252
 1829 00d8 1832     		adds	r2, r2, #24
 1830 00da 9342     		cmp	r3, r2
 1831 00dc 18D0     		beq	.L252
 1832 00de 02F55672 		add	r2, r2, #856
 1833 00e2 9342     		cmp	r3, r2
 1834 00e4 14D0     		beq	.L252
 1835 00e6 1832     		adds	r2, r2, #24
 1836 00e8 9342     		cmp	r3, r2
 1837 00ea 11D0     		beq	.L252
 1838 00ec 1832     		adds	r2, r2, #24
 1839 00ee 9342     		cmp	r3, r2
ARM GAS  C:\Users\xiaofei\AppData\Local\Temp\ccEZCIhm.s 			page 33


 1840 00f0 0ED0     		beq	.L252
 1841 00f2 1832     		adds	r2, r2, #24
 1842 00f4 9342     		cmp	r3, r2
 1843 00f6 0BD0     		beq	.L252
 1844 00f8 1832     		adds	r2, r2, #24
 1845 00fa 9342     		cmp	r3, r2
 1846 00fc 08D0     		beq	.L252
 1847 00fe 1832     		adds	r2, r2, #24
 1848 0100 9342     		cmp	r3, r2
 1849 0102 05D0     		beq	.L252
 1850 0104 1832     		adds	r2, r2, #24
 1851 0106 9342     		cmp	r3, r2
 1852 0108 02D0     		beq	.L252
 1853 010a 1832     		adds	r2, r2, #24
 1854 010c 9342     		cmp	r3, r2
 1855 010e 05D1     		bne	.L253
 1856              	.L252:
 1857 0110 1A68     		ldr	r2, [r3]
 1858 0112 42F00102 		orr	r2, r2, #1
 1859 0116 1A60     		str	r2, [r3]
 1860 0118 0020     		movs	r0, #0
 1861 011a 70BD     		pop	{r4, r5, r6, pc}
 1862              	.L253:
 1863 011c 1A68     		ldr	r2, [r3]
 1864 011e 42F00102 		orr	r2, r2, #1
 1865 0122 1A60     		str	r2, [r3]
 1866 0124 0020     		movs	r0, #0
 1867 0126 70BD     		pop	{r4, r5, r6, pc}
 1868              	.L248:
 1869 0128 0023     		movs	r3, #0
 1870 012a 84F83430 		strb	r3, [r4, #52]
 1871 012e 4FF40063 		mov	r3, #2048
 1872 0132 6365     		str	r3, [r4, #84]
 1873 0134 0120     		movs	r0, #1
 1874 0136 70BD     		pop	{r4, r5, r6, pc}
 1875              	.L254:
 1876 0138 0120     		movs	r0, #1
 1877 013a 7047     		bx	lr
 1878              	.L255:
 1879 013c 0220     		movs	r0, #2
 1880 013e 70BD     		pop	{r4, r5, r6, pc}
 1881              	.L258:
 1882              		.align	2
 1883              	.L257:
 1884 0140 28000240 		.word	1073872936
 1885 0144 10000240 		.word	1073872912
 1887              		.section	.text.HAL_DMA_Start_IT,"ax",%progbits
 1888              		.align	2
 1889              		.global	HAL_DMA_Start_IT
 1890              		.thumb
 1891              		.thumb_func
 1893              	HAL_DMA_Start_IT:
 1894              		@ args = 0, pretend = 0, frame = 0
 1895              		@ frame_needed = 0, uses_anonymous_args = 0
 1896 0000 0028     		cmp	r0, #0
 1897 0002 00F09681 		beq	.L273
 1898 0006 70B5     		push	{r4, r5, r6, lr}
ARM GAS  C:\Users\xiaofei\AppData\Local\Temp\ccEZCIhm.s 			page 34


 1899 0008 0446     		mov	r4, r0
 1900 000a 90F83400 		ldrb	r0, [r0, #52]	@ zero_extendqisi2
 1901 000e 0128     		cmp	r0, #1
 1902 0010 00F09181 		beq	.L274
 1903 0014 0120     		movs	r0, #1
 1904 0016 84F83400 		strb	r0, [r4, #52]
 1905 001a 94F83500 		ldrb	r0, [r4, #53]	@ zero_extendqisi2
 1906 001e C0B2     		uxtb	r0, r0
 1907 0020 0128     		cmp	r0, #1
 1908 0022 40F07E81 		bne	.L261
 1909 0026 0220     		movs	r0, #2
 1910 0028 84F83500 		strb	r0, [r4, #53]
 1911 002c 0020     		movs	r0, #0
 1912 002e 6065     		str	r0, [r4, #84]
 1913 0030 2068     		ldr	r0, [r4]
 1914 0032 914D     		ldr	r5, .L314
 1915 0034 914E     		ldr	r6, .L314+4
 1916 0036 A842     		cmp	r0, r5
 1917 0038 18BF     		it	ne
 1918 003a B042     		cmpne	r0, r6
 1919 003c 2AD0     		beq	.L262
 1920 003e 1835     		adds	r5, r5, #24
 1921 0040 A842     		cmp	r0, r5
 1922 0042 27D0     		beq	.L262
 1923 0044 1835     		adds	r5, r5, #24
 1924 0046 A842     		cmp	r0, r5
 1925 0048 24D0     		beq	.L262
 1926 004a 1835     		adds	r5, r5, #24
 1927 004c A842     		cmp	r0, r5
 1928 004e 21D0     		beq	.L262
 1929 0050 1835     		adds	r5, r5, #24
 1930 0052 A842     		cmp	r0, r5
 1931 0054 1ED0     		beq	.L262
 1932 0056 1835     		adds	r5, r5, #24
 1933 0058 A842     		cmp	r0, r5
 1934 005a 1BD0     		beq	.L262
 1935 005c 1835     		adds	r5, r5, #24
 1936 005e A842     		cmp	r0, r5
 1937 0060 18D0     		beq	.L262
 1938 0062 05F55675 		add	r5, r5, #856
 1939 0066 A842     		cmp	r0, r5
 1940 0068 14D0     		beq	.L262
 1941 006a 1835     		adds	r5, r5, #24
 1942 006c A842     		cmp	r0, r5
 1943 006e 11D0     		beq	.L262
 1944 0070 1835     		adds	r5, r5, #24
 1945 0072 A842     		cmp	r0, r5
 1946 0074 0ED0     		beq	.L262
 1947 0076 1835     		adds	r5, r5, #24
 1948 0078 A842     		cmp	r0, r5
 1949 007a 0BD0     		beq	.L262
 1950 007c 1835     		adds	r5, r5, #24
 1951 007e A842     		cmp	r0, r5
 1952 0080 08D0     		beq	.L262
 1953 0082 1835     		adds	r5, r5, #24
 1954 0084 A842     		cmp	r0, r5
 1955 0086 05D0     		beq	.L262
ARM GAS  C:\Users\xiaofei\AppData\Local\Temp\ccEZCIhm.s 			page 35


 1956 0088 1835     		adds	r5, r5, #24
 1957 008a A842     		cmp	r0, r5
 1958 008c 02D0     		beq	.L262
 1959 008e 1835     		adds	r5, r5, #24
 1960 0090 A842     		cmp	r0, r5
 1961 0092 04D1     		bne	.L263
 1962              	.L262:
 1963 0094 0568     		ldr	r5, [r0]
 1964 0096 25F00105 		bic	r5, r5, #1
 1965 009a 0560     		str	r5, [r0]
 1966 009c 03E0     		b	.L264
 1967              	.L263:
 1968 009e 0568     		ldr	r5, [r0]
 1969 00a0 25F00105 		bic	r5, r5, #1
 1970 00a4 0560     		str	r5, [r0]
 1971              	.L264:
 1972 00a6 2046     		mov	r0, r4
 1973 00a8 FFF7FEFF 		bl	DMA_SetConfig
 1974 00ac 2368     		ldr	r3, [r4]
 1975 00ae 724A     		ldr	r2, .L314
 1976 00b0 7249     		ldr	r1, .L314+4
 1977 00b2 9342     		cmp	r3, r2
 1978 00b4 18BF     		it	ne
 1979 00b6 8B42     		cmpne	r3, r1
 1980 00b8 2CD0     		beq	.L275
 1981 00ba 1832     		adds	r2, r2, #24
 1982 00bc 9342     		cmp	r3, r2
 1983 00be 2BD0     		beq	.L276
 1984 00c0 1832     		adds	r2, r2, #24
 1985 00c2 9342     		cmp	r3, r2
 1986 00c4 2AD0     		beq	.L277
 1987 00c6 1832     		adds	r2, r2, #24
 1988 00c8 9342     		cmp	r3, r2
 1989 00ca 29D0     		beq	.L278
 1990 00cc 1832     		adds	r2, r2, #24
 1991 00ce 9342     		cmp	r3, r2
 1992 00d0 28D0     		beq	.L279
 1993 00d2 1832     		adds	r2, r2, #24
 1994 00d4 9342     		cmp	r3, r2
 1995 00d6 27D0     		beq	.L280
 1996 00d8 1832     		adds	r2, r2, #24
 1997 00da 9342     		cmp	r3, r2
 1998 00dc 26D0     		beq	.L281
 1999 00de 02F55672 		add	r2, r2, #856
 2000 00e2 9342     		cmp	r3, r2
 2001 00e4 24D0     		beq	.L282
 2002 00e6 1832     		adds	r2, r2, #24
 2003 00e8 9342     		cmp	r3, r2
 2004 00ea 23D0     		beq	.L283
 2005 00ec 1832     		adds	r2, r2, #24
 2006 00ee 9342     		cmp	r3, r2
 2007 00f0 22D0     		beq	.L284
 2008 00f2 1832     		adds	r2, r2, #24
 2009 00f4 9342     		cmp	r3, r2
 2010 00f6 21D0     		beq	.L285
 2011 00f8 1832     		adds	r2, r2, #24
 2012 00fa 9342     		cmp	r3, r2
ARM GAS  C:\Users\xiaofei\AppData\Local\Temp\ccEZCIhm.s 			page 36


 2013 00fc 20D0     		beq	.L286
 2014 00fe 1832     		adds	r2, r2, #24
 2015 0100 9342     		cmp	r3, r2
 2016 0102 1FD0     		beq	.L287
 2017 0104 1832     		adds	r2, r2, #24
 2018 0106 9342     		cmp	r3, r2
 2019 0108 1ED0     		beq	.L288
 2020 010a 1832     		adds	r2, r2, #24
 2021 010c 9342     		cmp	r3, r2
 2022 010e 1DD1     		bne	.L289
 2023 0110 0122     		movs	r2, #1
 2024 0112 1CE0     		b	.L265
 2025              	.L275:
 2026 0114 0122     		movs	r2, #1
 2027 0116 1AE0     		b	.L265
 2028              	.L276:
 2029 0118 0122     		movs	r2, #1
 2030 011a 18E0     		b	.L265
 2031              	.L277:
 2032 011c 0122     		movs	r2, #1
 2033 011e 16E0     		b	.L265
 2034              	.L278:
 2035 0120 0122     		movs	r2, #1
 2036 0122 14E0     		b	.L265
 2037              	.L279:
 2038 0124 0122     		movs	r2, #1
 2039 0126 12E0     		b	.L265
 2040              	.L280:
 2041 0128 0122     		movs	r2, #1
 2042 012a 10E0     		b	.L265
 2043              	.L281:
 2044 012c 0122     		movs	r2, #1
 2045 012e 0EE0     		b	.L265
 2046              	.L282:
 2047 0130 0122     		movs	r2, #1
 2048 0132 0CE0     		b	.L265
 2049              	.L283:
 2050 0134 0122     		movs	r2, #1
 2051 0136 0AE0     		b	.L265
 2052              	.L284:
 2053 0138 0122     		movs	r2, #1
 2054 013a 08E0     		b	.L265
 2055              	.L285:
 2056 013c 0122     		movs	r2, #1
 2057 013e 06E0     		b	.L265
 2058              	.L286:
 2059 0140 0122     		movs	r2, #1
 2060 0142 04E0     		b	.L265
 2061              	.L287:
 2062 0144 0122     		movs	r2, #1
 2063 0146 02E0     		b	.L265
 2064              	.L288:
 2065 0148 0122     		movs	r2, #1
 2066 014a 00E0     		b	.L265
 2067              	.L289:
 2068 014c 0022     		movs	r2, #0
 2069              	.L265:
ARM GAS  C:\Users\xiaofei\AppData\Local\Temp\ccEZCIhm.s 			page 37


 2070 014e 6AB1     		cbz	r2, .L266
 2071 0150 1A68     		ldr	r2, [r3]
 2072 0152 22F01E02 		bic	r2, r2, #30
 2073 0156 42F01602 		orr	r2, r2, #22
 2074 015a 1A60     		str	r2, [r3]
 2075 015c 236C     		ldr	r3, [r4, #64]
 2076 015e 93B1     		cbz	r3, .L267
 2077 0160 2268     		ldr	r2, [r4]
 2078 0162 1368     		ldr	r3, [r2]
 2079 0164 43F00803 		orr	r3, r3, #8
 2080 0168 1360     		str	r3, [r2]
 2081 016a 0CE0     		b	.L267
 2082              	.L266:
 2083 016c 1A68     		ldr	r2, [r3]
 2084 016e 22F00E02 		bic	r2, r2, #14
 2085 0172 42F00A02 		orr	r2, r2, #10
 2086 0176 1A60     		str	r2, [r3]
 2087 0178 236C     		ldr	r3, [r4, #64]
 2088 017a 23B1     		cbz	r3, .L267
 2089 017c 2268     		ldr	r2, [r4]
 2090 017e 1368     		ldr	r3, [r2]
 2091 0180 43F00403 		orr	r3, r3, #4
 2092 0184 1360     		str	r3, [r2]
 2093              	.L267:
 2094 0186 2368     		ldr	r3, [r4]
 2095 0188 3B4A     		ldr	r2, .L314
 2096 018a 3C49     		ldr	r1, .L314+4
 2097 018c 9342     		cmp	r3, r2
 2098 018e 18BF     		it	ne
 2099 0190 8B42     		cmpne	r3, r1
 2100 0192 44D0     		beq	.L290
 2101 0194 1832     		adds	r2, r2, #24
 2102 0196 9342     		cmp	r3, r2
 2103 0198 43D0     		beq	.L291
 2104 019a 1832     		adds	r2, r2, #24
 2105 019c 9342     		cmp	r3, r2
 2106 019e 42D0     		beq	.L292
 2107 01a0 1832     		adds	r2, r2, #24
 2108 01a2 9342     		cmp	r3, r2
 2109 01a4 41D0     		beq	.L293
 2110 01a6 1832     		adds	r2, r2, #24
 2111 01a8 9342     		cmp	r3, r2
 2112 01aa 40D0     		beq	.L294
 2113 01ac 1832     		adds	r2, r2, #24
 2114 01ae 9342     		cmp	r3, r2
 2115 01b0 3FD0     		beq	.L295
 2116 01b2 1832     		adds	r2, r2, #24
 2117 01b4 9342     		cmp	r3, r2
 2118 01b6 3ED0     		beq	.L296
 2119 01b8 02F55672 		add	r2, r2, #856
 2120 01bc 9342     		cmp	r3, r2
 2121 01be 3CD0     		beq	.L297
 2122 01c0 1832     		adds	r2, r2, #24
 2123 01c2 9342     		cmp	r3, r2
 2124 01c4 3BD0     		beq	.L298
 2125 01c6 1832     		adds	r2, r2, #24
 2126 01c8 9342     		cmp	r3, r2
ARM GAS  C:\Users\xiaofei\AppData\Local\Temp\ccEZCIhm.s 			page 38


 2127 01ca 3AD0     		beq	.L299
 2128 01cc 1832     		adds	r2, r2, #24
 2129 01ce 9342     		cmp	r3, r2
 2130 01d0 39D0     		beq	.L300
 2131 01d2 1832     		adds	r2, r2, #24
 2132 01d4 9342     		cmp	r3, r2
 2133 01d6 38D0     		beq	.L301
 2134 01d8 1832     		adds	r2, r2, #24
 2135 01da 9342     		cmp	r3, r2
 2136 01dc 37D0     		beq	.L302
 2137 01de 1832     		adds	r2, r2, #24
 2138 01e0 9342     		cmp	r3, r2
 2139 01e2 36D0     		beq	.L303
 2140 01e4 1832     		adds	r2, r2, #24
 2141 01e6 9342     		cmp	r3, r2
 2142 01e8 35D0     		beq	.L304
 2143 01ea 254A     		ldr	r2, .L314+8
 2144 01ec 9342     		cmp	r3, r2
 2145 01ee 34D0     		beq	.L305
 2146 01f0 1432     		adds	r2, r2, #20
 2147 01f2 9342     		cmp	r3, r2
 2148 01f4 33D0     		beq	.L306
 2149 01f6 1432     		adds	r2, r2, #20
 2150 01f8 9342     		cmp	r3, r2
 2151 01fa 32D0     		beq	.L307
 2152 01fc 1432     		adds	r2, r2, #20
 2153 01fe 9342     		cmp	r3, r2
 2154 0200 31D0     		beq	.L308
 2155 0202 1432     		adds	r2, r2, #20
 2156 0204 9342     		cmp	r3, r2
 2157 0206 30D0     		beq	.L309
 2158 0208 1432     		adds	r2, r2, #20
 2159 020a 9342     		cmp	r3, r2
 2160 020c 2FD0     		beq	.L310
 2161 020e 1432     		adds	r2, r2, #20
 2162 0210 9342     		cmp	r3, r2
 2163 0212 2ED0     		beq	.L311
 2164 0214 1432     		adds	r2, r2, #20
 2165 0216 9342     		cmp	r3, r2
 2166 0218 34D1     		bne	.L312
 2167 021a 0123     		movs	r3, #1
 2168 021c 33E0     		b	.L268
 2169              	.L290:
 2170 021e 0123     		movs	r3, #1
 2171 0220 31E0     		b	.L268
 2172              	.L291:
 2173 0222 0123     		movs	r3, #1
 2174 0224 2FE0     		b	.L268
 2175              	.L292:
 2176 0226 0123     		movs	r3, #1
 2177 0228 2DE0     		b	.L268
 2178              	.L293:
 2179 022a 0123     		movs	r3, #1
 2180 022c 2BE0     		b	.L268
 2181              	.L294:
 2182 022e 0123     		movs	r3, #1
 2183 0230 29E0     		b	.L268
ARM GAS  C:\Users\xiaofei\AppData\Local\Temp\ccEZCIhm.s 			page 39


 2184              	.L295:
 2185 0232 0123     		movs	r3, #1
 2186 0234 27E0     		b	.L268
 2187              	.L296:
 2188 0236 0123     		movs	r3, #1
 2189 0238 25E0     		b	.L268
 2190              	.L297:
 2191 023a 0123     		movs	r3, #1
 2192 023c 23E0     		b	.L268
 2193              	.L298:
 2194 023e 0123     		movs	r3, #1
 2195 0240 21E0     		b	.L268
 2196              	.L299:
 2197 0242 0123     		movs	r3, #1
 2198 0244 1FE0     		b	.L268
 2199              	.L300:
 2200 0246 0123     		movs	r3, #1
 2201 0248 1DE0     		b	.L268
 2202              	.L301:
 2203 024a 0123     		movs	r3, #1
 2204 024c 1BE0     		b	.L268
 2205              	.L302:
 2206 024e 0123     		movs	r3, #1
 2207 0250 19E0     		b	.L268
 2208              	.L303:
 2209 0252 0123     		movs	r3, #1
 2210 0254 17E0     		b	.L268
 2211              	.L304:
 2212 0256 0123     		movs	r3, #1
 2213 0258 15E0     		b	.L268
 2214              	.L305:
 2215 025a 0123     		movs	r3, #1
 2216 025c 13E0     		b	.L268
 2217              	.L306:
 2218 025e 0123     		movs	r3, #1
 2219 0260 11E0     		b	.L268
 2220              	.L307:
 2221 0262 0123     		movs	r3, #1
 2222 0264 0FE0     		b	.L268
 2223              	.L308:
 2224 0266 0123     		movs	r3, #1
 2225 0268 0DE0     		b	.L268
 2226              	.L309:
 2227 026a 0123     		movs	r3, #1
 2228 026c 0BE0     		b	.L268
 2229              	.L310:
 2230 026e 0123     		movs	r3, #1
 2231 0270 09E0     		b	.L268
 2232              	.L311:
 2233 0272 0123     		movs	r3, #1
 2234 0274 07E0     		b	.L268
 2235              	.L315:
 2236 0276 00BF     		.align	2
 2237              	.L314:
 2238 0278 28000240 		.word	1073872936
 2239 027c 10000240 		.word	1073872912
 2240 0280 08540258 		.word	1476547592
ARM GAS  C:\Users\xiaofei\AppData\Local\Temp\ccEZCIhm.s 			page 40


 2241              	.L312:
 2242 0284 0023     		movs	r3, #0
 2243              	.L268:
 2244 0286 73B1     		cbz	r3, .L269
 2245 0288 236E     		ldr	r3, [r4, #96]
 2246 028a 1A68     		ldr	r2, [r3]
 2247 028c 12F4803F 		tst	r2, #65536
 2248 0290 03D0     		beq	.L270
 2249 0292 1A68     		ldr	r2, [r3]
 2250 0294 42F48072 		orr	r2, r2, #256
 2251 0298 1A60     		str	r2, [r3]
 2252              	.L270:
 2253 029a E36E     		ldr	r3, [r4, #108]
 2254 029c 1BB1     		cbz	r3, .L269
 2255 029e 1A68     		ldr	r2, [r3]
 2256 02a0 42F48072 		orr	r2, r2, #256
 2257 02a4 1A60     		str	r2, [r3]
 2258              	.L269:
 2259 02a6 2368     		ldr	r3, [r4]
 2260 02a8 244A     		ldr	r2, .L316
 2261 02aa 2549     		ldr	r1, .L316+4
 2262 02ac 9342     		cmp	r3, r2
 2263 02ae 18BF     		it	ne
 2264 02b0 8B42     		cmpne	r3, r1
 2265 02b2 2AD0     		beq	.L271
 2266 02b4 1832     		adds	r2, r2, #24
 2267 02b6 9342     		cmp	r3, r2
 2268 02b8 27D0     		beq	.L271
 2269 02ba 1832     		adds	r2, r2, #24
 2270 02bc 9342     		cmp	r3, r2
 2271 02be 24D0     		beq	.L271
 2272 02c0 1832     		adds	r2, r2, #24
 2273 02c2 9342     		cmp	r3, r2
 2274 02c4 21D0     		beq	.L271
 2275 02c6 1832     		adds	r2, r2, #24
 2276 02c8 9342     		cmp	r3, r2
 2277 02ca 1ED0     		beq	.L271
 2278 02cc 1832     		adds	r2, r2, #24
 2279 02ce 9342     		cmp	r3, r2
 2280 02d0 1BD0     		beq	.L271
 2281 02d2 1832     		adds	r2, r2, #24
 2282 02d4 9342     		cmp	r3, r2
 2283 02d6 18D0     		beq	.L271
 2284 02d8 02F55672 		add	r2, r2, #856
 2285 02dc 9342     		cmp	r3, r2
 2286 02de 14D0     		beq	.L271
 2287 02e0 1832     		adds	r2, r2, #24
 2288 02e2 9342     		cmp	r3, r2
 2289 02e4 11D0     		beq	.L271
 2290 02e6 1832     		adds	r2, r2, #24
 2291 02e8 9342     		cmp	r3, r2
 2292 02ea 0ED0     		beq	.L271
 2293 02ec 1832     		adds	r2, r2, #24
 2294 02ee 9342     		cmp	r3, r2
 2295 02f0 0BD0     		beq	.L271
 2296 02f2 1832     		adds	r2, r2, #24
 2297 02f4 9342     		cmp	r3, r2
ARM GAS  C:\Users\xiaofei\AppData\Local\Temp\ccEZCIhm.s 			page 41


 2298 02f6 08D0     		beq	.L271
 2299 02f8 1832     		adds	r2, r2, #24
 2300 02fa 9342     		cmp	r3, r2
 2301 02fc 05D0     		beq	.L271
 2302 02fe 1832     		adds	r2, r2, #24
 2303 0300 9342     		cmp	r3, r2
 2304 0302 02D0     		beq	.L271
 2305 0304 1832     		adds	r2, r2, #24
 2306 0306 9342     		cmp	r3, r2
 2307 0308 05D1     		bne	.L272
 2308              	.L271:
 2309 030a 1A68     		ldr	r2, [r3]
 2310 030c 42F00102 		orr	r2, r2, #1
 2311 0310 1A60     		str	r2, [r3]
 2312 0312 0020     		movs	r0, #0
 2313 0314 70BD     		pop	{r4, r5, r6, pc}
 2314              	.L272:
 2315 0316 1A68     		ldr	r2, [r3]
 2316 0318 42F00102 		orr	r2, r2, #1
 2317 031c 1A60     		str	r2, [r3]
 2318 031e 0020     		movs	r0, #0
 2319 0320 70BD     		pop	{r4, r5, r6, pc}
 2320              	.L261:
 2321 0322 0023     		movs	r3, #0
 2322 0324 84F83430 		strb	r3, [r4, #52]
 2323 0328 4FF40063 		mov	r3, #2048
 2324 032c 6365     		str	r3, [r4, #84]
 2325 032e 0120     		movs	r0, #1
 2326 0330 70BD     		pop	{r4, r5, r6, pc}
 2327              	.L273:
 2328 0332 0120     		movs	r0, #1
 2329 0334 7047     		bx	lr
 2330              	.L274:
 2331 0336 0220     		movs	r0, #2
 2332 0338 70BD     		pop	{r4, r5, r6, pc}
 2333              	.L317:
 2334 033a 00BF     		.align	2
 2335              	.L316:
 2336 033c 28000240 		.word	1073872936
 2337 0340 10000240 		.word	1073872912
 2339              		.section	.text.HAL_DMA_Abort,"ax",%progbits
 2340              		.align	2
 2341              		.global	HAL_DMA_Abort
 2342              		.thumb
 2343              		.thumb_func
 2345              	HAL_DMA_Abort:
 2346              		@ args = 0, pretend = 0, frame = 0
 2347              		@ frame_needed = 0, uses_anonymous_args = 0
 2348 0000 70B5     		push	{r4, r5, r6, lr}
 2349 0002 0446     		mov	r4, r0
 2350 0004 FFF7FEFF 		bl	HAL_GetTick
 2351 0008 002C     		cmp	r4, #0
 2352 000a 00F03182 		beq	.L336
 2353 000e 0546     		mov	r5, r0
 2354 0010 94F83530 		ldrb	r3, [r4, #53]	@ zero_extendqisi2
 2355 0014 DBB2     		uxtb	r3, r3
 2356 0016 022B     		cmp	r3, #2
ARM GAS  C:\Users\xiaofei\AppData\Local\Temp\ccEZCIhm.s 			page 42


 2357 0018 06D0     		beq	.L320
 2358 001a 8023     		movs	r3, #128
 2359 001c 6365     		str	r3, [r4, #84]
 2360 001e 0023     		movs	r3, #0
 2361 0020 84F83430 		strb	r3, [r4, #52]
 2362 0024 0120     		movs	r0, #1
 2363 0026 70BD     		pop	{r4, r5, r6, pc}
 2364              	.L320:
 2365 0028 2368     		ldr	r3, [r4]
 2366 002a B24A     		ldr	r2, .L414
 2367 002c B249     		ldr	r1, .L414+4
 2368 002e 9342     		cmp	r3, r2
 2369 0030 18BF     		it	ne
 2370 0032 8B42     		cmpne	r3, r1
 2371 0034 2CD0     		beq	.L337
 2372 0036 1832     		adds	r2, r2, #24
 2373 0038 9342     		cmp	r3, r2
 2374 003a 2BD0     		beq	.L338
 2375 003c 1832     		adds	r2, r2, #24
 2376 003e 9342     		cmp	r3, r2
 2377 0040 2AD0     		beq	.L339
 2378 0042 1832     		adds	r2, r2, #24
 2379 0044 9342     		cmp	r3, r2
 2380 0046 29D0     		beq	.L340
 2381 0048 1832     		adds	r2, r2, #24
 2382 004a 9342     		cmp	r3, r2
 2383 004c 28D0     		beq	.L341
 2384 004e 1832     		adds	r2, r2, #24
 2385 0050 9342     		cmp	r3, r2
 2386 0052 27D0     		beq	.L342
 2387 0054 1832     		adds	r2, r2, #24
 2388 0056 9342     		cmp	r3, r2
 2389 0058 26D0     		beq	.L343
 2390 005a 02F55672 		add	r2, r2, #856
 2391 005e 9342     		cmp	r3, r2
 2392 0060 24D0     		beq	.L344
 2393 0062 1832     		adds	r2, r2, #24
 2394 0064 9342     		cmp	r3, r2
 2395 0066 23D0     		beq	.L345
 2396 0068 1832     		adds	r2, r2, #24
 2397 006a 9342     		cmp	r3, r2
 2398 006c 22D0     		beq	.L346
 2399 006e 1832     		adds	r2, r2, #24
 2400 0070 9342     		cmp	r3, r2
 2401 0072 21D0     		beq	.L347
 2402 0074 1832     		adds	r2, r2, #24
 2403 0076 9342     		cmp	r3, r2
 2404 0078 20D0     		beq	.L348
 2405 007a 1832     		adds	r2, r2, #24
 2406 007c 9342     		cmp	r3, r2
 2407 007e 1FD0     		beq	.L349
 2408 0080 1832     		adds	r2, r2, #24
 2409 0082 9342     		cmp	r3, r2
 2410 0084 1ED0     		beq	.L350
 2411 0086 1832     		adds	r2, r2, #24
 2412 0088 9342     		cmp	r3, r2
 2413 008a 1DD1     		bne	.L351
ARM GAS  C:\Users\xiaofei\AppData\Local\Temp\ccEZCIhm.s 			page 43


 2414 008c 0122     		movs	r2, #1
 2415 008e 1CE0     		b	.L321
 2416              	.L337:
 2417 0090 0122     		movs	r2, #1
 2418 0092 1AE0     		b	.L321
 2419              	.L338:
 2420 0094 0122     		movs	r2, #1
 2421 0096 18E0     		b	.L321
 2422              	.L339:
 2423 0098 0122     		movs	r2, #1
 2424 009a 16E0     		b	.L321
 2425              	.L340:
 2426 009c 0122     		movs	r2, #1
 2427 009e 14E0     		b	.L321
 2428              	.L341:
 2429 00a0 0122     		movs	r2, #1
 2430 00a2 12E0     		b	.L321
 2431              	.L342:
 2432 00a4 0122     		movs	r2, #1
 2433 00a6 10E0     		b	.L321
 2434              	.L343:
 2435 00a8 0122     		movs	r2, #1
 2436 00aa 0EE0     		b	.L321
 2437              	.L344:
 2438 00ac 0122     		movs	r2, #1
 2439 00ae 0CE0     		b	.L321
 2440              	.L345:
 2441 00b0 0122     		movs	r2, #1
 2442 00b2 0AE0     		b	.L321
 2443              	.L346:
 2444 00b4 0122     		movs	r2, #1
 2445 00b6 08E0     		b	.L321
 2446              	.L347:
 2447 00b8 0122     		movs	r2, #1
 2448 00ba 06E0     		b	.L321
 2449              	.L348:
 2450 00bc 0122     		movs	r2, #1
 2451 00be 04E0     		b	.L321
 2452              	.L349:
 2453 00c0 0122     		movs	r2, #1
 2454 00c2 02E0     		b	.L321
 2455              	.L350:
 2456 00c4 0122     		movs	r2, #1
 2457 00c6 00E0     		b	.L321
 2458              	.L351:
 2459 00c8 0022     		movs	r2, #0
 2460              	.L321:
 2461 00ca 52B1     		cbz	r2, .L322
 2462 00cc 1A68     		ldr	r2, [r3]
 2463 00ce 22F01E02 		bic	r2, r2, #30
 2464 00d2 1A60     		str	r2, [r3]
 2465 00d4 2268     		ldr	r2, [r4]
 2466 00d6 5369     		ldr	r3, [r2, #20]
 2467 00d8 23F08003 		bic	r3, r3, #128
 2468 00dc 5361     		str	r3, [r2, #20]
 2469 00de 2668     		ldr	r6, [r4]
 2470 00e0 04E0     		b	.L323
ARM GAS  C:\Users\xiaofei\AppData\Local\Temp\ccEZCIhm.s 			page 44


 2471              	.L322:
 2472 00e2 1A68     		ldr	r2, [r3]
 2473 00e4 22F00E02 		bic	r2, r2, #14
 2474 00e8 1A60     		str	r2, [r3]
 2475 00ea 2668     		ldr	r6, [r4]
 2476              	.L323:
 2477 00ec 2368     		ldr	r3, [r4]
 2478 00ee 814A     		ldr	r2, .L414
 2479 00f0 8149     		ldr	r1, .L414+4
 2480 00f2 9342     		cmp	r3, r2
 2481 00f4 18BF     		it	ne
 2482 00f6 8B42     		cmpne	r3, r1
 2483 00f8 44D0     		beq	.L352
 2484 00fa 1832     		adds	r2, r2, #24
 2485 00fc 9342     		cmp	r3, r2
 2486 00fe 43D0     		beq	.L353
 2487 0100 1832     		adds	r2, r2, #24
 2488 0102 9342     		cmp	r3, r2
 2489 0104 42D0     		beq	.L354
 2490 0106 1832     		adds	r2, r2, #24
 2491 0108 9342     		cmp	r3, r2
 2492 010a 41D0     		beq	.L355
 2493 010c 1832     		adds	r2, r2, #24
 2494 010e 9342     		cmp	r3, r2
 2495 0110 40D0     		beq	.L356
 2496 0112 1832     		adds	r2, r2, #24
 2497 0114 9342     		cmp	r3, r2
 2498 0116 3FD0     		beq	.L357
 2499 0118 1832     		adds	r2, r2, #24
 2500 011a 9342     		cmp	r3, r2
 2501 011c 3ED0     		beq	.L358
 2502 011e 02F55672 		add	r2, r2, #856
 2503 0122 9342     		cmp	r3, r2
 2504 0124 3CD0     		beq	.L359
 2505 0126 1832     		adds	r2, r2, #24
 2506 0128 9342     		cmp	r3, r2
 2507 012a 3BD0     		beq	.L360
 2508 012c 1832     		adds	r2, r2, #24
 2509 012e 9342     		cmp	r3, r2
 2510 0130 3AD0     		beq	.L361
 2511 0132 1832     		adds	r2, r2, #24
 2512 0134 9342     		cmp	r3, r2
 2513 0136 39D0     		beq	.L362
 2514 0138 1832     		adds	r2, r2, #24
 2515 013a 9342     		cmp	r3, r2
 2516 013c 38D0     		beq	.L363
 2517 013e 1832     		adds	r2, r2, #24
 2518 0140 9342     		cmp	r3, r2
 2519 0142 37D0     		beq	.L364
 2520 0144 1832     		adds	r2, r2, #24
 2521 0146 9342     		cmp	r3, r2
 2522 0148 36D0     		beq	.L365
 2523 014a 1832     		adds	r2, r2, #24
 2524 014c 9342     		cmp	r3, r2
 2525 014e 35D0     		beq	.L366
 2526 0150 6A4A     		ldr	r2, .L414+8
 2527 0152 9342     		cmp	r3, r2
ARM GAS  C:\Users\xiaofei\AppData\Local\Temp\ccEZCIhm.s 			page 45


 2528 0154 34D0     		beq	.L367
 2529 0156 1432     		adds	r2, r2, #20
 2530 0158 9342     		cmp	r3, r2
 2531 015a 33D0     		beq	.L368
 2532 015c 1432     		adds	r2, r2, #20
 2533 015e 9342     		cmp	r3, r2
 2534 0160 32D0     		beq	.L369
 2535 0162 1432     		adds	r2, r2, #20
 2536 0164 9342     		cmp	r3, r2
 2537 0166 31D0     		beq	.L370
 2538 0168 1432     		adds	r2, r2, #20
 2539 016a 9342     		cmp	r3, r2
 2540 016c 30D0     		beq	.L371
 2541 016e 1432     		adds	r2, r2, #20
 2542 0170 9342     		cmp	r3, r2
 2543 0172 2FD0     		beq	.L372
 2544 0174 1432     		adds	r2, r2, #20
 2545 0176 9342     		cmp	r3, r2
 2546 0178 2ED0     		beq	.L373
 2547 017a 1432     		adds	r2, r2, #20
 2548 017c 9342     		cmp	r3, r2
 2549 017e 2DD1     		bne	.L374
 2550 0180 0123     		movs	r3, #1
 2551 0182 2CE0     		b	.L324
 2552              	.L352:
 2553 0184 0123     		movs	r3, #1
 2554 0186 2AE0     		b	.L324
 2555              	.L353:
 2556 0188 0123     		movs	r3, #1
 2557 018a 28E0     		b	.L324
 2558              	.L354:
 2559 018c 0123     		movs	r3, #1
 2560 018e 26E0     		b	.L324
 2561              	.L355:
 2562 0190 0123     		movs	r3, #1
 2563 0192 24E0     		b	.L324
 2564              	.L356:
 2565 0194 0123     		movs	r3, #1
 2566 0196 22E0     		b	.L324
 2567              	.L357:
 2568 0198 0123     		movs	r3, #1
 2569 019a 20E0     		b	.L324
 2570              	.L358:
 2571 019c 0123     		movs	r3, #1
 2572 019e 1EE0     		b	.L324
 2573              	.L359:
 2574 01a0 0123     		movs	r3, #1
 2575 01a2 1CE0     		b	.L324
 2576              	.L360:
 2577 01a4 0123     		movs	r3, #1
 2578 01a6 1AE0     		b	.L324
 2579              	.L361:
 2580 01a8 0123     		movs	r3, #1
 2581 01aa 18E0     		b	.L324
 2582              	.L362:
 2583 01ac 0123     		movs	r3, #1
 2584 01ae 16E0     		b	.L324
ARM GAS  C:\Users\xiaofei\AppData\Local\Temp\ccEZCIhm.s 			page 46


 2585              	.L363:
 2586 01b0 0123     		movs	r3, #1
 2587 01b2 14E0     		b	.L324
 2588              	.L364:
 2589 01b4 0123     		movs	r3, #1
 2590 01b6 12E0     		b	.L324
 2591              	.L365:
 2592 01b8 0123     		movs	r3, #1
 2593 01ba 10E0     		b	.L324
 2594              	.L366:
 2595 01bc 0123     		movs	r3, #1
 2596 01be 0EE0     		b	.L324
 2597              	.L367:
 2598 01c0 0123     		movs	r3, #1
 2599 01c2 0CE0     		b	.L324
 2600              	.L368:
 2601 01c4 0123     		movs	r3, #1
 2602 01c6 0AE0     		b	.L324
 2603              	.L369:
 2604 01c8 0123     		movs	r3, #1
 2605 01ca 08E0     		b	.L324
 2606              	.L370:
 2607 01cc 0123     		movs	r3, #1
 2608 01ce 06E0     		b	.L324
 2609              	.L371:
 2610 01d0 0123     		movs	r3, #1
 2611 01d2 04E0     		b	.L324
 2612              	.L372:
 2613 01d4 0123     		movs	r3, #1
 2614 01d6 02E0     		b	.L324
 2615              	.L373:
 2616 01d8 0123     		movs	r3, #1
 2617 01da 00E0     		b	.L324
 2618              	.L374:
 2619 01dc 0023     		movs	r3, #0
 2620              	.L324:
 2621 01de 23B1     		cbz	r3, .L325
 2622 01e0 226E     		ldr	r2, [r4, #96]
 2623 01e2 1368     		ldr	r3, [r2]
 2624 01e4 23F48073 		bic	r3, r3, #256
 2625 01e8 1360     		str	r3, [r2]
 2626              	.L325:
 2627 01ea 2368     		ldr	r3, [r4]
 2628 01ec 414A     		ldr	r2, .L414
 2629 01ee 4249     		ldr	r1, .L414+4
 2630 01f0 9342     		cmp	r3, r2
 2631 01f2 18BF     		it	ne
 2632 01f4 8B42     		cmpne	r3, r1
 2633 01f6 2AD0     		beq	.L326
 2634 01f8 1832     		adds	r2, r2, #24
 2635 01fa 9342     		cmp	r3, r2
 2636 01fc 27D0     		beq	.L326
 2637 01fe 1832     		adds	r2, r2, #24
 2638 0200 9342     		cmp	r3, r2
 2639 0202 24D0     		beq	.L326
 2640 0204 1832     		adds	r2, r2, #24
 2641 0206 9342     		cmp	r3, r2
ARM GAS  C:\Users\xiaofei\AppData\Local\Temp\ccEZCIhm.s 			page 47


 2642 0208 21D0     		beq	.L326
 2643 020a 1832     		adds	r2, r2, #24
 2644 020c 9342     		cmp	r3, r2
 2645 020e 1ED0     		beq	.L326
 2646 0210 1832     		adds	r2, r2, #24
 2647 0212 9342     		cmp	r3, r2
 2648 0214 1BD0     		beq	.L326
 2649 0216 1832     		adds	r2, r2, #24
 2650 0218 9342     		cmp	r3, r2
 2651 021a 18D0     		beq	.L326
 2652 021c 02F55672 		add	r2, r2, #856
 2653 0220 9342     		cmp	r3, r2
 2654 0222 14D0     		beq	.L326
 2655 0224 1832     		adds	r2, r2, #24
 2656 0226 9342     		cmp	r3, r2
 2657 0228 11D0     		beq	.L326
 2658 022a 1832     		adds	r2, r2, #24
 2659 022c 9342     		cmp	r3, r2
 2660 022e 0ED0     		beq	.L326
 2661 0230 1832     		adds	r2, r2, #24
 2662 0232 9342     		cmp	r3, r2
 2663 0234 0BD0     		beq	.L326
 2664 0236 1832     		adds	r2, r2, #24
 2665 0238 9342     		cmp	r3, r2
 2666 023a 08D0     		beq	.L326
 2667 023c 1832     		adds	r2, r2, #24
 2668 023e 9342     		cmp	r3, r2
 2669 0240 05D0     		beq	.L326
 2670 0242 1832     		adds	r2, r2, #24
 2671 0244 9342     		cmp	r3, r2
 2672 0246 02D0     		beq	.L326
 2673 0248 1832     		adds	r2, r2, #24
 2674 024a 9342     		cmp	r3, r2
 2675 024c 04D1     		bne	.L327
 2676              	.L326:
 2677 024e 1A68     		ldr	r2, [r3]
 2678 0250 22F00102 		bic	r2, r2, #1
 2679 0254 1A60     		str	r2, [r3]
 2680 0256 13E0     		b	.L329
 2681              	.L327:
 2682 0258 1A68     		ldr	r2, [r3]
 2683 025a 22F00102 		bic	r2, r2, #1
 2684 025e 1A60     		str	r2, [r3]
 2685 0260 0EE0     		b	.L329
 2686              	.L330:
 2687 0262 FFF7FEFF 		bl	HAL_GetTick
 2688 0266 401B     		subs	r0, r0, r5
 2689 0268 0528     		cmp	r0, #5
 2690 026a 09D9     		bls	.L329
 2691 026c 2023     		movs	r3, #32
 2692 026e 6365     		str	r3, [r4, #84]
 2693 0270 0023     		movs	r3, #0
 2694 0272 84F83430 		strb	r3, [r4, #52]
 2695 0276 0323     		movs	r3, #3
 2696 0278 84F83530 		strb	r3, [r4, #53]
 2697 027c 0120     		movs	r0, #1
 2698 027e 70BD     		pop	{r4, r5, r6, pc}
ARM GAS  C:\Users\xiaofei\AppData\Local\Temp\ccEZCIhm.s 			page 48


 2699              	.L329:
 2700 0280 3368     		ldr	r3, [r6]
 2701 0282 13F0010F 		tst	r3, #1
 2702 0286 ECD1     		bne	.L330
 2703 0288 2368     		ldr	r3, [r4]
 2704 028a 1A4A     		ldr	r2, .L414
 2705 028c 1A49     		ldr	r1, .L414+4
 2706 028e 9342     		cmp	r3, r2
 2707 0290 18BF     		it	ne
 2708 0292 8B42     		cmpne	r3, r1
 2709 0294 2CD0     		beq	.L375
 2710 0296 1832     		adds	r2, r2, #24
 2711 0298 9342     		cmp	r3, r2
 2712 029a 31D0     		beq	.L376
 2713 029c 1832     		adds	r2, r2, #24
 2714 029e 9342     		cmp	r3, r2
 2715 02a0 30D0     		beq	.L377
 2716 02a2 1832     		adds	r2, r2, #24
 2717 02a4 9342     		cmp	r3, r2
 2718 02a6 2FD0     		beq	.L378
 2719 02a8 1832     		adds	r2, r2, #24
 2720 02aa 9342     		cmp	r3, r2
 2721 02ac 2ED0     		beq	.L379
 2722 02ae 1832     		adds	r2, r2, #24
 2723 02b0 9342     		cmp	r3, r2
 2724 02b2 2DD0     		beq	.L380
 2725 02b4 1832     		adds	r2, r2, #24
 2726 02b6 9342     		cmp	r3, r2
 2727 02b8 2CD0     		beq	.L381
 2728 02ba 02F55672 		add	r2, r2, #856
 2729 02be 9342     		cmp	r3, r2
 2730 02c0 2AD0     		beq	.L382
 2731 02c2 1832     		adds	r2, r2, #24
 2732 02c4 9342     		cmp	r3, r2
 2733 02c6 29D0     		beq	.L383
 2734 02c8 1832     		adds	r2, r2, #24
 2735 02ca 9342     		cmp	r3, r2
 2736 02cc 28D0     		beq	.L384
 2737 02ce 1832     		adds	r2, r2, #24
 2738 02d0 9342     		cmp	r3, r2
 2739 02d2 27D0     		beq	.L385
 2740 02d4 1832     		adds	r2, r2, #24
 2741 02d6 9342     		cmp	r3, r2
 2742 02d8 26D0     		beq	.L386
 2743 02da 1832     		adds	r2, r2, #24
 2744 02dc 9342     		cmp	r3, r2
 2745 02de 25D0     		beq	.L387
 2746 02e0 1832     		adds	r2, r2, #24
 2747 02e2 9342     		cmp	r3, r2
 2748 02e4 24D0     		beq	.L388
 2749 02e6 1832     		adds	r2, r2, #24
 2750 02e8 9342     		cmp	r3, r2
 2751 02ea 23D1     		bne	.L389
 2752 02ec 0123     		movs	r3, #1
 2753 02ee 22E0     		b	.L331
 2754              	.L375:
 2755 02f0 0123     		movs	r3, #1
ARM GAS  C:\Users\xiaofei\AppData\Local\Temp\ccEZCIhm.s 			page 49


 2756 02f2 20E0     		b	.L331
 2757              	.L415:
 2758              		.align	2
 2759              	.L414:
 2760 02f4 28000240 		.word	1073872936
 2761 02f8 10000240 		.word	1073872912
 2762 02fc 08540258 		.word	1476547592
 2763              	.L376:
 2764 0300 0123     		movs	r3, #1
 2765 0302 18E0     		b	.L331
 2766              	.L377:
 2767 0304 0123     		movs	r3, #1
 2768 0306 16E0     		b	.L331
 2769              	.L378:
 2770 0308 0123     		movs	r3, #1
 2771 030a 14E0     		b	.L331
 2772              	.L379:
 2773 030c 0123     		movs	r3, #1
 2774 030e 12E0     		b	.L331
 2775              	.L380:
 2776 0310 0123     		movs	r3, #1
 2777 0312 10E0     		b	.L331
 2778              	.L381:
 2779 0314 0123     		movs	r3, #1
 2780 0316 0EE0     		b	.L331
 2781              	.L382:
 2782 0318 0123     		movs	r3, #1
 2783 031a 0CE0     		b	.L331
 2784              	.L383:
 2785 031c 0123     		movs	r3, #1
 2786 031e 0AE0     		b	.L331
 2787              	.L384:
 2788 0320 0123     		movs	r3, #1
 2789 0322 08E0     		b	.L331
 2790              	.L385:
 2791 0324 0123     		movs	r3, #1
 2792 0326 06E0     		b	.L331
 2793              	.L386:
 2794 0328 0123     		movs	r3, #1
 2795 032a 04E0     		b	.L331
 2796              	.L387:
 2797 032c 0123     		movs	r3, #1
 2798 032e 02E0     		b	.L331
 2799              	.L388:
 2800 0330 0123     		movs	r3, #1
 2801 0332 00E0     		b	.L331
 2802              	.L389:
 2803 0334 0023     		movs	r3, #0
 2804              	.L331:
 2805 0336 3BB1     		cbz	r3, .L332
 2806 0338 A16D     		ldr	r1, [r4, #88]
 2807 033a E36D     		ldr	r3, [r4, #92]
 2808 033c 03F01F02 		and	r2, r3, #31
 2809 0340 3F23     		movs	r3, #63
 2810 0342 9340     		lsls	r3, r3, r2
 2811 0344 8B60     		str	r3, [r1, #8]
 2812 0346 06E0     		b	.L333
ARM GAS  C:\Users\xiaofei\AppData\Local\Temp\ccEZCIhm.s 			page 50


 2813              	.L332:
 2814 0348 A16D     		ldr	r1, [r4, #88]
 2815 034a E36D     		ldr	r3, [r4, #92]
 2816 034c 03F01F02 		and	r2, r3, #31
 2817 0350 0123     		movs	r3, #1
 2818 0352 9340     		lsls	r3, r3, r2
 2819 0354 4B60     		str	r3, [r1, #4]
 2820              	.L333:
 2821 0356 2368     		ldr	r3, [r4]
 2822 0358 464A     		ldr	r2, .L416
 2823 035a 4749     		ldr	r1, .L416+4
 2824 035c 9342     		cmp	r3, r2
 2825 035e 18BF     		it	ne
 2826 0360 8B42     		cmpne	r3, r1
 2827 0362 44D0     		beq	.L390
 2828 0364 1832     		adds	r2, r2, #24
 2829 0366 9342     		cmp	r3, r2
 2830 0368 43D0     		beq	.L391
 2831 036a 1832     		adds	r2, r2, #24
 2832 036c 9342     		cmp	r3, r2
 2833 036e 42D0     		beq	.L392
 2834 0370 1832     		adds	r2, r2, #24
 2835 0372 9342     		cmp	r3, r2
 2836 0374 41D0     		beq	.L393
 2837 0376 1832     		adds	r2, r2, #24
 2838 0378 9342     		cmp	r3, r2
 2839 037a 40D0     		beq	.L394
 2840 037c 1832     		adds	r2, r2, #24
 2841 037e 9342     		cmp	r3, r2
 2842 0380 3FD0     		beq	.L395
 2843 0382 1832     		adds	r2, r2, #24
 2844 0384 9342     		cmp	r3, r2
 2845 0386 3ED0     		beq	.L396
 2846 0388 02F55672 		add	r2, r2, #856
 2847 038c 9342     		cmp	r3, r2
 2848 038e 3CD0     		beq	.L397
 2849 0390 1832     		adds	r2, r2, #24
 2850 0392 9342     		cmp	r3, r2
 2851 0394 3BD0     		beq	.L398
 2852 0396 1832     		adds	r2, r2, #24
 2853 0398 9342     		cmp	r3, r2
 2854 039a 3AD0     		beq	.L399
 2855 039c 1832     		adds	r2, r2, #24
 2856 039e 9342     		cmp	r3, r2
 2857 03a0 39D0     		beq	.L400
 2858 03a2 1832     		adds	r2, r2, #24
 2859 03a4 9342     		cmp	r3, r2
 2860 03a6 38D0     		beq	.L401
 2861 03a8 1832     		adds	r2, r2, #24
 2862 03aa 9342     		cmp	r3, r2
 2863 03ac 37D0     		beq	.L402
 2864 03ae 1832     		adds	r2, r2, #24
 2865 03b0 9342     		cmp	r3, r2
 2866 03b2 36D0     		beq	.L403
 2867 03b4 1832     		adds	r2, r2, #24
 2868 03b6 9342     		cmp	r3, r2
 2869 03b8 35D0     		beq	.L404
ARM GAS  C:\Users\xiaofei\AppData\Local\Temp\ccEZCIhm.s 			page 51


 2870 03ba 304A     		ldr	r2, .L416+8
 2871 03bc 9342     		cmp	r3, r2
 2872 03be 34D0     		beq	.L405
 2873 03c0 1432     		adds	r2, r2, #20
 2874 03c2 9342     		cmp	r3, r2
 2875 03c4 33D0     		beq	.L406
 2876 03c6 1432     		adds	r2, r2, #20
 2877 03c8 9342     		cmp	r3, r2
 2878 03ca 32D0     		beq	.L407
 2879 03cc 1432     		adds	r2, r2, #20
 2880 03ce 9342     		cmp	r3, r2
 2881 03d0 31D0     		beq	.L408
 2882 03d2 1432     		adds	r2, r2, #20
 2883 03d4 9342     		cmp	r3, r2
 2884 03d6 30D0     		beq	.L409
 2885 03d8 1432     		adds	r2, r2, #20
 2886 03da 9342     		cmp	r3, r2
 2887 03dc 2FD0     		beq	.L410
 2888 03de 1432     		adds	r2, r2, #20
 2889 03e0 9342     		cmp	r3, r2
 2890 03e2 2ED0     		beq	.L411
 2891 03e4 1432     		adds	r2, r2, #20
 2892 03e6 9342     		cmp	r3, r2
 2893 03e8 2DD1     		bne	.L412
 2894 03ea 0123     		movs	r3, #1
 2895 03ec 2CE0     		b	.L334
 2896              	.L390:
 2897 03ee 0123     		movs	r3, #1
 2898 03f0 2AE0     		b	.L334
 2899              	.L391:
 2900 03f2 0123     		movs	r3, #1
 2901 03f4 28E0     		b	.L334
 2902              	.L392:
 2903 03f6 0123     		movs	r3, #1
 2904 03f8 26E0     		b	.L334
 2905              	.L393:
 2906 03fa 0123     		movs	r3, #1
 2907 03fc 24E0     		b	.L334
 2908              	.L394:
 2909 03fe 0123     		movs	r3, #1
 2910 0400 22E0     		b	.L334
 2911              	.L395:
 2912 0402 0123     		movs	r3, #1
 2913 0404 20E0     		b	.L334
 2914              	.L396:
 2915 0406 0123     		movs	r3, #1
 2916 0408 1EE0     		b	.L334
 2917              	.L397:
 2918 040a 0123     		movs	r3, #1
 2919 040c 1CE0     		b	.L334
 2920              	.L398:
 2921 040e 0123     		movs	r3, #1
 2922 0410 1AE0     		b	.L334
 2923              	.L399:
 2924 0412 0123     		movs	r3, #1
 2925 0414 18E0     		b	.L334
 2926              	.L400:
ARM GAS  C:\Users\xiaofei\AppData\Local\Temp\ccEZCIhm.s 			page 52


 2927 0416 0123     		movs	r3, #1
 2928 0418 16E0     		b	.L334
 2929              	.L401:
 2930 041a 0123     		movs	r3, #1
 2931 041c 14E0     		b	.L334
 2932              	.L402:
 2933 041e 0123     		movs	r3, #1
 2934 0420 12E0     		b	.L334
 2935              	.L403:
 2936 0422 0123     		movs	r3, #1
 2937 0424 10E0     		b	.L334
 2938              	.L404:
 2939 0426 0123     		movs	r3, #1
 2940 0428 0EE0     		b	.L334
 2941              	.L405:
 2942 042a 0123     		movs	r3, #1
 2943 042c 0CE0     		b	.L334
 2944              	.L406:
 2945 042e 0123     		movs	r3, #1
 2946 0430 0AE0     		b	.L334
 2947              	.L407:
 2948 0432 0123     		movs	r3, #1
 2949 0434 08E0     		b	.L334
 2950              	.L408:
 2951 0436 0123     		movs	r3, #1
 2952 0438 06E0     		b	.L334
 2953              	.L409:
 2954 043a 0123     		movs	r3, #1
 2955 043c 04E0     		b	.L334
 2956              	.L410:
 2957 043e 0123     		movs	r3, #1
 2958 0440 02E0     		b	.L334
 2959              	.L411:
 2960 0442 0123     		movs	r3, #1
 2961 0444 00E0     		b	.L334
 2962              	.L412:
 2963 0446 0023     		movs	r3, #0
 2964              	.L334:
 2965 0448 5BB1     		cbz	r3, .L335
 2966 044a 636E     		ldr	r3, [r4, #100]
 2967 044c A26E     		ldr	r2, [r4, #104]
 2968 044e 5A60     		str	r2, [r3, #4]
 2969 0450 E36E     		ldr	r3, [r4, #108]
 2970 0452 33B1     		cbz	r3, .L335
 2971 0454 1A68     		ldr	r2, [r3]
 2972 0456 22F48072 		bic	r2, r2, #256
 2973 045a 1A60     		str	r2, [r3]
 2974 045c 236F     		ldr	r3, [r4, #112]
 2975 045e 626F     		ldr	r2, [r4, #116]
 2976 0460 5A60     		str	r2, [r3, #4]
 2977              	.L335:
 2978 0462 0020     		movs	r0, #0
 2979 0464 84F83400 		strb	r0, [r4, #52]
 2980 0468 0123     		movs	r3, #1
 2981 046a 84F83530 		strb	r3, [r4, #53]
 2982 046e 70BD     		pop	{r4, r5, r6, pc}
 2983              	.L336:
ARM GAS  C:\Users\xiaofei\AppData\Local\Temp\ccEZCIhm.s 			page 53


 2984 0470 0120     		movs	r0, #1
 2985 0472 70BD     		pop	{r4, r5, r6, pc}
 2986              	.L417:
 2987              		.align	2
 2988              	.L416:
 2989 0474 28000240 		.word	1073872936
 2990 0478 10000240 		.word	1073872912
 2991 047c 08540258 		.word	1476547592
 2993              		.section	.text.HAL_DMA_Abort_IT,"ax",%progbits
 2994              		.align	2
 2995              		.global	HAL_DMA_Abort_IT
 2996              		.thumb
 2997              		.thumb_func
 2999              	HAL_DMA_Abort_IT:
 3000              		@ args = 0, pretend = 0, frame = 0
 3001              		@ frame_needed = 0, uses_anonymous_args = 0
 3002 0000 0028     		cmp	r0, #0
 3003 0002 00F07F81 		beq	.L430
 3004 0006 0346     		mov	r3, r0
 3005 0008 90F83520 		ldrb	r2, [r0, #53]	@ zero_extendqisi2
 3006 000c D2B2     		uxtb	r2, r2
 3007 000e 022A     		cmp	r2, #2
 3008 0010 03D0     		beq	.L420
 3009 0012 8022     		movs	r2, #128
 3010 0014 4265     		str	r2, [r0, #84]
 3011 0016 0120     		movs	r0, #1
 3012 0018 7047     		bx	lr
 3013              	.L420:
 3014 001a 0268     		ldr	r2, [r0]
 3015 001c A248     		ldr	r0, .L471
 3016 001e A349     		ldr	r1, .L471+4
 3017 0020 8A42     		cmp	r2, r1
 3018 0022 18BF     		it	ne
 3019 0024 8242     		cmpne	r2, r0
 3020 0026 0CBF     		ite	eq
 3021 0028 0121     		moveq	r1, #1
 3022 002a 0021     		movne	r1, #0
 3023 002c 2CD0     		beq	.L431
 3024 002e 3030     		adds	r0, r0, #48
 3025 0030 8242     		cmp	r2, r0
 3026 0032 2BD0     		beq	.L432
 3027 0034 1830     		adds	r0, r0, #24
 3028 0036 8242     		cmp	r2, r0
 3029 0038 2AD0     		beq	.L433
 3030 003a 1830     		adds	r0, r0, #24
 3031 003c 8242     		cmp	r2, r0
 3032 003e 29D0     		beq	.L434
 3033 0040 1830     		adds	r0, r0, #24
 3034 0042 8242     		cmp	r2, r0
 3035 0044 28D0     		beq	.L435
 3036 0046 1830     		adds	r0, r0, #24
 3037 0048 8242     		cmp	r2, r0
 3038 004a 27D0     		beq	.L436
 3039 004c 1830     		adds	r0, r0, #24
 3040 004e 8242     		cmp	r2, r0
 3041 0050 26D0     		beq	.L437
 3042 0052 00F55670 		add	r0, r0, #856
ARM GAS  C:\Users\xiaofei\AppData\Local\Temp\ccEZCIhm.s 			page 54


 3043 0056 8242     		cmp	r2, r0
 3044 0058 24D0     		beq	.L438
 3045 005a 1830     		adds	r0, r0, #24
 3046 005c 8242     		cmp	r2, r0
 3047 005e 23D0     		beq	.L439
 3048 0060 1830     		adds	r0, r0, #24
 3049 0062 8242     		cmp	r2, r0
 3050 0064 22D0     		beq	.L440
 3051 0066 1830     		adds	r0, r0, #24
 3052 0068 8242     		cmp	r2, r0
 3053 006a 21D0     		beq	.L441
 3054 006c 1830     		adds	r0, r0, #24
 3055 006e 8242     		cmp	r2, r0
 3056 0070 20D0     		beq	.L442
 3057 0072 1830     		adds	r0, r0, #24
 3058 0074 8242     		cmp	r2, r0
 3059 0076 1FD0     		beq	.L443
 3060 0078 1830     		adds	r0, r0, #24
 3061 007a 8242     		cmp	r2, r0
 3062 007c 1ED0     		beq	.L444
 3063 007e 1830     		adds	r0, r0, #24
 3064 0080 8242     		cmp	r2, r0
 3065 0082 1DD1     		bne	.L445
 3066 0084 0120     		movs	r0, #1
 3067 0086 1CE0     		b	.L421
 3068              	.L431:
 3069 0088 0120     		movs	r0, #1
 3070 008a 1AE0     		b	.L421
 3071              	.L432:
 3072 008c 0120     		movs	r0, #1
 3073 008e 18E0     		b	.L421
 3074              	.L433:
 3075 0090 0120     		movs	r0, #1
 3076 0092 16E0     		b	.L421
 3077              	.L434:
 3078 0094 0120     		movs	r0, #1
 3079 0096 14E0     		b	.L421
 3080              	.L435:
 3081 0098 0120     		movs	r0, #1
 3082 009a 12E0     		b	.L421
 3083              	.L436:
 3084 009c 0120     		movs	r0, #1
 3085 009e 10E0     		b	.L421
 3086              	.L437:
 3087 00a0 0120     		movs	r0, #1
 3088 00a2 0EE0     		b	.L421
 3089              	.L438:
 3090 00a4 0120     		movs	r0, #1
 3091 00a6 0CE0     		b	.L421
 3092              	.L439:
 3093 00a8 0120     		movs	r0, #1
 3094 00aa 0AE0     		b	.L421
 3095              	.L440:
 3096 00ac 0120     		movs	r0, #1
 3097 00ae 08E0     		b	.L421
 3098              	.L441:
 3099 00b0 0120     		movs	r0, #1
ARM GAS  C:\Users\xiaofei\AppData\Local\Temp\ccEZCIhm.s 			page 55


 3100 00b2 06E0     		b	.L421
 3101              	.L442:
 3102 00b4 0120     		movs	r0, #1
 3103 00b6 04E0     		b	.L421
 3104              	.L443:
 3105 00b8 0120     		movs	r0, #1
 3106 00ba 02E0     		b	.L421
 3107              	.L444:
 3108 00bc 0120     		movs	r0, #1
 3109 00be 00E0     		b	.L421
 3110              	.L445:
 3111 00c0 0020     		movs	r0, #0
 3112              	.L421:
 3113 00c2 0028     		cmp	r0, #0
 3114 00c4 3AD0     		beq	.L422
 3115 00c6 0420     		movs	r0, #4
 3116 00c8 83F83500 		strb	r0, [r3, #53]
 3117 00cc 51BB     		cbnz	r1, .L423
 3118 00ce 784B     		ldr	r3, .L471+8
 3119 00d0 9A42     		cmp	r2, r3
 3120 00d2 27D0     		beq	.L423
 3121 00d4 1833     		adds	r3, r3, #24
 3122 00d6 9A42     		cmp	r2, r3
 3123 00d8 24D0     		beq	.L423
 3124 00da 1833     		adds	r3, r3, #24
 3125 00dc 9A42     		cmp	r2, r3
 3126 00de 21D0     		beq	.L423
 3127 00e0 1833     		adds	r3, r3, #24
 3128 00e2 9A42     		cmp	r2, r3
 3129 00e4 1ED0     		beq	.L423
 3130 00e6 1833     		adds	r3, r3, #24
 3131 00e8 9A42     		cmp	r2, r3
 3132 00ea 1BD0     		beq	.L423
 3133 00ec 1833     		adds	r3, r3, #24
 3134 00ee 9A42     		cmp	r2, r3
 3135 00f0 18D0     		beq	.L423
 3136 00f2 03F55673 		add	r3, r3, #856
 3137 00f6 9A42     		cmp	r2, r3
 3138 00f8 14D0     		beq	.L423
 3139 00fa 1833     		adds	r3, r3, #24
 3140 00fc 9A42     		cmp	r2, r3
 3141 00fe 11D0     		beq	.L423
 3142 0100 1833     		adds	r3, r3, #24
 3143 0102 9A42     		cmp	r2, r3
 3144 0104 0ED0     		beq	.L423
 3145 0106 1833     		adds	r3, r3, #24
 3146 0108 9A42     		cmp	r2, r3
 3147 010a 0BD0     		beq	.L423
 3148 010c 1833     		adds	r3, r3, #24
 3149 010e 9A42     		cmp	r2, r3
 3150 0110 08D0     		beq	.L423
 3151 0112 1833     		adds	r3, r3, #24
 3152 0114 9A42     		cmp	r2, r3
 3153 0116 05D0     		beq	.L423
 3154 0118 1833     		adds	r3, r3, #24
 3155 011a 9A42     		cmp	r2, r3
 3156 011c 02D0     		beq	.L423
ARM GAS  C:\Users\xiaofei\AppData\Local\Temp\ccEZCIhm.s 			page 56


 3157 011e 1833     		adds	r3, r3, #24
 3158 0120 9A42     		cmp	r2, r3
 3159 0122 05D1     		bne	.L424
 3160              	.L423:
 3161 0124 1368     		ldr	r3, [r2]
 3162 0126 23F00103 		bic	r3, r3, #1
 3163 012a 1360     		str	r3, [r2]
 3164 012c 0020     		movs	r0, #0
 3165 012e 7047     		bx	lr
 3166              	.L424:
 3167 0130 1368     		ldr	r3, [r2]
 3168 0132 23F00103 		bic	r3, r3, #1
 3169 0136 1360     		str	r3, [r2]
 3170 0138 0020     		movs	r0, #0
 3171 013a 7047     		bx	lr
 3172              	.L422:
 3173 013c 10B5     		push	{r4, lr}
 3174 013e 1168     		ldr	r1, [r2]
 3175 0140 21F00E01 		bic	r1, r1, #14
 3176 0144 1160     		str	r1, [r2]
 3177 0146 1A68     		ldr	r2, [r3]
 3178 0148 5849     		ldr	r1, .L471+4
 3179 014a 574C     		ldr	r4, .L471
 3180 014c 8A42     		cmp	r2, r1
 3181 014e 18BF     		it	ne
 3182 0150 A242     		cmpne	r2, r4
 3183 0152 2AD0     		beq	.L425
 3184 0154 1831     		adds	r1, r1, #24
 3185 0156 8A42     		cmp	r2, r1
 3186 0158 27D0     		beq	.L425
 3187 015a 1831     		adds	r1, r1, #24
 3188 015c 8A42     		cmp	r2, r1
 3189 015e 24D0     		beq	.L425
 3190 0160 1831     		adds	r1, r1, #24
 3191 0162 8A42     		cmp	r2, r1
 3192 0164 21D0     		beq	.L425
 3193 0166 1831     		adds	r1, r1, #24
 3194 0168 8A42     		cmp	r2, r1
 3195 016a 1ED0     		beq	.L425
 3196 016c 1831     		adds	r1, r1, #24
 3197 016e 8A42     		cmp	r2, r1
 3198 0170 1BD0     		beq	.L425
 3199 0172 1831     		adds	r1, r1, #24
 3200 0174 8A42     		cmp	r2, r1
 3201 0176 18D0     		beq	.L425
 3202 0178 01F55671 		add	r1, r1, #856
 3203 017c 8A42     		cmp	r2, r1
 3204 017e 14D0     		beq	.L425
 3205 0180 1831     		adds	r1, r1, #24
 3206 0182 8A42     		cmp	r2, r1
 3207 0184 11D0     		beq	.L425
 3208 0186 1831     		adds	r1, r1, #24
 3209 0188 8A42     		cmp	r2, r1
 3210 018a 0ED0     		beq	.L425
 3211 018c 1831     		adds	r1, r1, #24
 3212 018e 8A42     		cmp	r2, r1
 3213 0190 0BD0     		beq	.L425
ARM GAS  C:\Users\xiaofei\AppData\Local\Temp\ccEZCIhm.s 			page 57


 3214 0192 1831     		adds	r1, r1, #24
 3215 0194 8A42     		cmp	r2, r1
 3216 0196 08D0     		beq	.L425
 3217 0198 1831     		adds	r1, r1, #24
 3218 019a 8A42     		cmp	r2, r1
 3219 019c 05D0     		beq	.L425
 3220 019e 1831     		adds	r1, r1, #24
 3221 01a0 8A42     		cmp	r2, r1
 3222 01a2 02D0     		beq	.L425
 3223 01a4 1831     		adds	r1, r1, #24
 3224 01a6 8A42     		cmp	r2, r1
 3225 01a8 04D1     		bne	.L426
 3226              	.L425:
 3227 01aa 1168     		ldr	r1, [r2]
 3228 01ac 21F00101 		bic	r1, r1, #1
 3229 01b0 1160     		str	r1, [r2]
 3230 01b2 03E0     		b	.L427
 3231              	.L426:
 3232 01b4 1168     		ldr	r1, [r2]
 3233 01b6 21F00101 		bic	r1, r1, #1
 3234 01ba 1160     		str	r1, [r2]
 3235              	.L427:
 3236 01bc 1A68     		ldr	r2, [r3]
 3237 01be 3B49     		ldr	r1, .L471+4
 3238 01c0 394C     		ldr	r4, .L471
 3239 01c2 8A42     		cmp	r2, r1
 3240 01c4 18BF     		it	ne
 3241 01c6 A242     		cmpne	r2, r4
 3242 01c8 44D0     		beq	.L446
 3243 01ca 1831     		adds	r1, r1, #24
 3244 01cc 8A42     		cmp	r2, r1
 3245 01ce 43D0     		beq	.L447
 3246 01d0 1831     		adds	r1, r1, #24
 3247 01d2 8A42     		cmp	r2, r1
 3248 01d4 42D0     		beq	.L448
 3249 01d6 1831     		adds	r1, r1, #24
 3250 01d8 8A42     		cmp	r2, r1
 3251 01da 41D0     		beq	.L449
 3252 01dc 1831     		adds	r1, r1, #24
 3253 01de 8A42     		cmp	r2, r1
 3254 01e0 40D0     		beq	.L450
 3255 01e2 1831     		adds	r1, r1, #24
 3256 01e4 8A42     		cmp	r2, r1
 3257 01e6 3FD0     		beq	.L451
 3258 01e8 1831     		adds	r1, r1, #24
 3259 01ea 8A42     		cmp	r2, r1
 3260 01ec 3ED0     		beq	.L452
 3261 01ee 01F55671 		add	r1, r1, #856
 3262 01f2 8A42     		cmp	r2, r1
 3263 01f4 3CD0     		beq	.L453
 3264 01f6 1831     		adds	r1, r1, #24
 3265 01f8 8A42     		cmp	r2, r1
 3266 01fa 3BD0     		beq	.L454
 3267 01fc 1831     		adds	r1, r1, #24
 3268 01fe 8A42     		cmp	r2, r1
 3269 0200 3AD0     		beq	.L455
 3270 0202 1831     		adds	r1, r1, #24
ARM GAS  C:\Users\xiaofei\AppData\Local\Temp\ccEZCIhm.s 			page 58


 3271 0204 8A42     		cmp	r2, r1
 3272 0206 39D0     		beq	.L456
 3273 0208 1831     		adds	r1, r1, #24
 3274 020a 8A42     		cmp	r2, r1
 3275 020c 38D0     		beq	.L457
 3276 020e 1831     		adds	r1, r1, #24
 3277 0210 8A42     		cmp	r2, r1
 3278 0212 37D0     		beq	.L458
 3279 0214 1831     		adds	r1, r1, #24
 3280 0216 8A42     		cmp	r2, r1
 3281 0218 36D0     		beq	.L459
 3282 021a 1831     		adds	r1, r1, #24
 3283 021c 8A42     		cmp	r2, r1
 3284 021e 35D0     		beq	.L460
 3285 0220 2449     		ldr	r1, .L471+12
 3286 0222 8A42     		cmp	r2, r1
 3287 0224 34D0     		beq	.L461
 3288 0226 1431     		adds	r1, r1, #20
 3289 0228 8A42     		cmp	r2, r1
 3290 022a 33D0     		beq	.L462
 3291 022c 1431     		adds	r1, r1, #20
 3292 022e 8A42     		cmp	r2, r1
 3293 0230 32D0     		beq	.L463
 3294 0232 1431     		adds	r1, r1, #20
 3295 0234 8A42     		cmp	r2, r1
 3296 0236 31D0     		beq	.L464
 3297 0238 1431     		adds	r1, r1, #20
 3298 023a 8A42     		cmp	r2, r1
 3299 023c 30D0     		beq	.L465
 3300 023e 1431     		adds	r1, r1, #20
 3301 0240 8A42     		cmp	r2, r1
 3302 0242 2FD0     		beq	.L466
 3303 0244 1431     		adds	r1, r1, #20
 3304 0246 8A42     		cmp	r2, r1
 3305 0248 36D0     		beq	.L467
 3306 024a 1431     		adds	r1, r1, #20
 3307 024c 8A42     		cmp	r2, r1
 3308 024e 34D1     		bne	.L428
 3309 0250 0120     		movs	r0, #1
 3310 0252 32E0     		b	.L428
 3311              	.L446:
 3312 0254 0120     		movs	r0, #1
 3313 0256 30E0     		b	.L428
 3314              	.L447:
 3315 0258 0120     		movs	r0, #1
 3316 025a 2EE0     		b	.L428
 3317              	.L448:
 3318 025c 0120     		movs	r0, #1
 3319 025e 2CE0     		b	.L428
 3320              	.L449:
 3321 0260 0120     		movs	r0, #1
 3322 0262 2AE0     		b	.L428
 3323              	.L450:
 3324 0264 0120     		movs	r0, #1
 3325 0266 28E0     		b	.L428
 3326              	.L451:
 3327 0268 0120     		movs	r0, #1
ARM GAS  C:\Users\xiaofei\AppData\Local\Temp\ccEZCIhm.s 			page 59


 3328 026a 26E0     		b	.L428
 3329              	.L452:
 3330 026c 0120     		movs	r0, #1
 3331 026e 24E0     		b	.L428
 3332              	.L453:
 3333 0270 0120     		movs	r0, #1
 3334 0272 22E0     		b	.L428
 3335              	.L454:
 3336 0274 0120     		movs	r0, #1
 3337 0276 20E0     		b	.L428
 3338              	.L455:
 3339 0278 0120     		movs	r0, #1
 3340 027a 1EE0     		b	.L428
 3341              	.L456:
 3342 027c 0120     		movs	r0, #1
 3343 027e 1CE0     		b	.L428
 3344              	.L457:
 3345 0280 0120     		movs	r0, #1
 3346 0282 1AE0     		b	.L428
 3347              	.L458:
 3348 0284 0120     		movs	r0, #1
 3349 0286 18E0     		b	.L428
 3350              	.L459:
 3351 0288 0120     		movs	r0, #1
 3352 028a 16E0     		b	.L428
 3353              	.L460:
 3354 028c 0120     		movs	r0, #1
 3355 028e 14E0     		b	.L428
 3356              	.L461:
 3357 0290 0120     		movs	r0, #1
 3358 0292 12E0     		b	.L428
 3359              	.L462:
 3360 0294 0120     		movs	r0, #1
 3361 0296 10E0     		b	.L428
 3362              	.L463:
 3363 0298 0120     		movs	r0, #1
 3364 029a 0EE0     		b	.L428
 3365              	.L464:
 3366 029c 0120     		movs	r0, #1
 3367 029e 0CE0     		b	.L428
 3368              	.L465:
 3369 02a0 0120     		movs	r0, #1
 3370 02a2 0AE0     		b	.L428
 3371              	.L466:
 3372 02a4 0120     		movs	r0, #1
 3373 02a6 08E0     		b	.L428
 3374              	.L472:
 3375              		.align	2
 3376              	.L471:
 3377 02a8 10000240 		.word	1073872912
 3378 02ac 28000240 		.word	1073872936
 3379 02b0 40000240 		.word	1073872960
 3380 02b4 08540258 		.word	1476547592
 3381              	.L467:
 3382 02b8 0120     		movs	r0, #1
 3383              	.L428:
 3384 02ba B8B1     		cbz	r0, .L429
ARM GAS  C:\Users\xiaofei\AppData\Local\Temp\ccEZCIhm.s 			page 60


 3385 02bc 196E     		ldr	r1, [r3, #96]
 3386 02be 0A68     		ldr	r2, [r1]
 3387 02c0 22F48072 		bic	r2, r2, #256
 3388 02c4 0A60     		str	r2, [r1]
 3389 02c6 986D     		ldr	r0, [r3, #88]
 3390 02c8 DA6D     		ldr	r2, [r3, #92]
 3391 02ca 02F01F01 		and	r1, r2, #31
 3392 02ce 0122     		movs	r2, #1
 3393 02d0 8A40     		lsls	r2, r2, r1
 3394 02d2 4260     		str	r2, [r0, #4]
 3395 02d4 5A6E     		ldr	r2, [r3, #100]
 3396 02d6 996E     		ldr	r1, [r3, #104]
 3397 02d8 5160     		str	r1, [r2, #4]
 3398 02da DA6E     		ldr	r2, [r3, #108]
 3399 02dc 32B1     		cbz	r2, .L429
 3400 02de 1168     		ldr	r1, [r2]
 3401 02e0 21F48071 		bic	r1, r1, #256
 3402 02e4 1160     		str	r1, [r2]
 3403 02e6 1A6F     		ldr	r2, [r3, #112]
 3404 02e8 596F     		ldr	r1, [r3, #116]
 3405 02ea 5160     		str	r1, [r2, #4]
 3406              	.L429:
 3407 02ec 0022     		movs	r2, #0
 3408 02ee 83F83420 		strb	r2, [r3, #52]
 3409 02f2 0122     		movs	r2, #1
 3410 02f4 83F83520 		strb	r2, [r3, #53]
 3411 02f8 1A6D     		ldr	r2, [r3, #80]
 3412 02fa 2AB1     		cbz	r2, .L468
 3413 02fc 1846     		mov	r0, r3
 3414 02fe 9047     		blx	r2
 3415 0300 0020     		movs	r0, #0
 3416 0302 10BD     		pop	{r4, pc}
 3417              	.L430:
 3418 0304 0120     		movs	r0, #1
 3419 0306 7047     		bx	lr
 3420              	.L468:
 3421 0308 0020     		movs	r0, #0
 3422 030a 10BD     		pop	{r4, pc}
 3424              		.section	.text.HAL_DMA_PollForTransfer,"ax",%progbits
 3425              		.align	2
 3426              		.global	HAL_DMA_PollForTransfer
 3427              		.thumb
 3428              		.thumb_func
 3430              	HAL_DMA_PollForTransfer:
 3431              		@ args = 0, pretend = 0, frame = 0
 3432              		@ frame_needed = 0, uses_anonymous_args = 0
 3433 0000 2DE9F047 		push	{r4, r5, r6, r7, r8, r9, r10, lr}
 3434 0004 0446     		mov	r4, r0
 3435 0006 8A46     		mov	r10, r1
 3436 0008 1646     		mov	r6, r2
 3437 000a FFF7FEFF 		bl	HAL_GetTick
 3438 000e 002C     		cmp	r4, #0
 3439 0010 00F0B882 		beq	.L504
 3440 0014 8046     		mov	r8, r0
 3441 0016 94F83530 		ldrb	r3, [r4, #53]	@ zero_extendqisi2
 3442 001a DBB2     		uxtb	r3, r3
 3443 001c 022B     		cmp	r3, #2
ARM GAS  C:\Users\xiaofei\AppData\Local\Temp\ccEZCIhm.s 			page 61


 3444 001e 07D0     		beq	.L475
 3445 0020 8023     		movs	r3, #128
 3446 0022 6365     		str	r3, [r4, #84]
 3447 0024 0023     		movs	r3, #0
 3448 0026 84F83430 		strb	r3, [r4, #52]
 3449 002a 0120     		movs	r0, #1
 3450 002c BDE8F087 		pop	{r4, r5, r6, r7, r8, r9, r10, pc}
 3451              	.L475:
 3452 0030 2368     		ldr	r3, [r4]
 3453 0032 9C4A     		ldr	r2, .L589
 3454 0034 9C49     		ldr	r1, .L589+4
 3455 0036 9342     		cmp	r3, r2
 3456 0038 18BF     		it	ne
 3457 003a 8B42     		cmpne	r3, r1
 3458 003c 2CD0     		beq	.L505
 3459 003e 1832     		adds	r2, r2, #24
 3460 0040 9342     		cmp	r3, r2
 3461 0042 2BD0     		beq	.L506
 3462 0044 1832     		adds	r2, r2, #24
 3463 0046 9342     		cmp	r3, r2
 3464 0048 2AD0     		beq	.L507
 3465 004a 1832     		adds	r2, r2, #24
 3466 004c 9342     		cmp	r3, r2
 3467 004e 29D0     		beq	.L508
 3468 0050 1832     		adds	r2, r2, #24
 3469 0052 9342     		cmp	r3, r2
 3470 0054 28D0     		beq	.L509
 3471 0056 1832     		adds	r2, r2, #24
 3472 0058 9342     		cmp	r3, r2
 3473 005a 27D0     		beq	.L510
 3474 005c 1832     		adds	r2, r2, #24
 3475 005e 9342     		cmp	r3, r2
 3476 0060 26D0     		beq	.L511
 3477 0062 02F55672 		add	r2, r2, #856
 3478 0066 9342     		cmp	r3, r2
 3479 0068 24D0     		beq	.L512
 3480 006a 1832     		adds	r2, r2, #24
 3481 006c 9342     		cmp	r3, r2
 3482 006e 23D0     		beq	.L513
 3483 0070 1832     		adds	r2, r2, #24
 3484 0072 9342     		cmp	r3, r2
 3485 0074 22D0     		beq	.L514
 3486 0076 1832     		adds	r2, r2, #24
 3487 0078 9342     		cmp	r3, r2
 3488 007a 21D0     		beq	.L515
 3489 007c 1832     		adds	r2, r2, #24
 3490 007e 9342     		cmp	r3, r2
 3491 0080 20D0     		beq	.L516
 3492 0082 1832     		adds	r2, r2, #24
 3493 0084 9342     		cmp	r3, r2
 3494 0086 1FD0     		beq	.L517
 3495 0088 1832     		adds	r2, r2, #24
 3496 008a 9342     		cmp	r3, r2
 3497 008c 1ED0     		beq	.L518
 3498 008e 1832     		adds	r2, r2, #24
 3499 0090 9342     		cmp	r3, r2
 3500 0092 1DD1     		bne	.L519
ARM GAS  C:\Users\xiaofei\AppData\Local\Temp\ccEZCIhm.s 			page 62


 3501 0094 0122     		movs	r2, #1
 3502 0096 1CE0     		b	.L476
 3503              	.L505:
 3504 0098 0122     		movs	r2, #1
 3505 009a 1AE0     		b	.L476
 3506              	.L506:
 3507 009c 0122     		movs	r2, #1
 3508 009e 18E0     		b	.L476
 3509              	.L507:
 3510 00a0 0122     		movs	r2, #1
 3511 00a2 16E0     		b	.L476
 3512              	.L508:
 3513 00a4 0122     		movs	r2, #1
 3514 00a6 14E0     		b	.L476
 3515              	.L509:
 3516 00a8 0122     		movs	r2, #1
 3517 00aa 12E0     		b	.L476
 3518              	.L510:
 3519 00ac 0122     		movs	r2, #1
 3520 00ae 10E0     		b	.L476
 3521              	.L511:
 3522 00b0 0122     		movs	r2, #1
 3523 00b2 0EE0     		b	.L476
 3524              	.L512:
 3525 00b4 0122     		movs	r2, #1
 3526 00b6 0CE0     		b	.L476
 3527              	.L513:
 3528 00b8 0122     		movs	r2, #1
 3529 00ba 0AE0     		b	.L476
 3530              	.L514:
 3531 00bc 0122     		movs	r2, #1
 3532 00be 08E0     		b	.L476
 3533              	.L515:
 3534 00c0 0122     		movs	r2, #1
 3535 00c2 06E0     		b	.L476
 3536              	.L516:
 3537 00c4 0122     		movs	r2, #1
 3538 00c6 04E0     		b	.L476
 3539              	.L517:
 3540 00c8 0122     		movs	r2, #1
 3541 00ca 02E0     		b	.L476
 3542              	.L518:
 3543 00cc 0122     		movs	r2, #1
 3544 00ce 00E0     		b	.L476
 3545              	.L519:
 3546 00d0 0022     		movs	r2, #0
 3547              	.L476:
 3548 00d2 E2B1     		cbz	r2, .L477
 3549 00d4 1B68     		ldr	r3, [r3]
 3550 00d6 13F4807F 		tst	r3, #256
 3551 00da 05D0     		beq	.L478
 3552 00dc 4FF48073 		mov	r3, #256
 3553 00e0 6365     		str	r3, [r4, #84]
 3554 00e2 0120     		movs	r0, #1
 3555 00e4 BDE8F087 		pop	{r4, r5, r6, r7, r8, r9, r10, pc}
 3556              	.L478:
 3557 00e8 BAF1000F 		cmp	r10, #0
ARM GAS  C:\Users\xiaofei\AppData\Local\Temp\ccEZCIhm.s 			page 63


 3558 00ec 05D1     		bne	.L479
 3559 00ee E36D     		ldr	r3, [r4, #92]
 3560 00f0 03F01F03 		and	r3, r3, #31
 3561 00f4 2027     		movs	r7, #32
 3562 00f6 9F40     		lsls	r7, r7, r3
 3563 00f8 04E0     		b	.L480
 3564              	.L479:
 3565 00fa E36D     		ldr	r3, [r4, #92]
 3566 00fc 03F01F03 		and	r3, r3, #31
 3567 0100 1027     		movs	r7, #16
 3568 0102 9F40     		lsls	r7, r7, r3
 3569              	.L480:
 3570 0104 A36D     		ldr	r3, [r4, #88]
 3571 0106 1D46     		mov	r5, r3
 3572 0108 03F10809 		add	r9, r3, #8
 3573 010c 5EE1     		b	.L494
 3574              	.L477:
 3575 010e 1B68     		ldr	r3, [r3]
 3576 0110 13F0200F 		tst	r3, #32
 3577 0114 05D0     		beq	.L482
 3578 0116 4FF48073 		mov	r3, #256
 3579 011a 6365     		str	r3, [r4, #84]
 3580 011c 0120     		movs	r0, #1
 3581 011e BDE8F087 		pop	{r4, r5, r6, r7, r8, r9, r10, pc}
 3582              	.L482:
 3583 0122 BAF1000F 		cmp	r10, #0
 3584 0126 05D1     		bne	.L483
 3585 0128 E36D     		ldr	r3, [r4, #92]
 3586 012a 03F01F03 		and	r3, r3, #31
 3587 012e 0227     		movs	r7, #2
 3588 0130 9F40     		lsls	r7, r7, r3
 3589 0132 04E0     		b	.L484
 3590              	.L483:
 3591 0134 E36D     		ldr	r3, [r4, #92]
 3592 0136 03F01F03 		and	r3, r3, #31
 3593 013a 0427     		movs	r7, #4
 3594 013c 9F40     		lsls	r7, r7, r3
 3595              	.L484:
 3596 013e A36D     		ldr	r3, [r4, #88]
 3597 0140 1D46     		mov	r5, r3
 3598 0142 03F10409 		add	r9, r3, #4
 3599 0146 41E1     		b	.L494
 3600              	.L497:
 3601 0148 2368     		ldr	r3, [r4]
 3602 014a 564A     		ldr	r2, .L589
 3603 014c 5649     		ldr	r1, .L589+4
 3604 014e 9342     		cmp	r3, r2
 3605 0150 18BF     		it	ne
 3606 0152 8B42     		cmpne	r3, r1
 3607 0154 2CD0     		beq	.L520
 3608 0156 1832     		adds	r2, r2, #24
 3609 0158 9342     		cmp	r3, r2
 3610 015a 2BD0     		beq	.L521
 3611 015c 1832     		adds	r2, r2, #24
 3612 015e 9342     		cmp	r3, r2
 3613 0160 2AD0     		beq	.L522
 3614 0162 1832     		adds	r2, r2, #24
ARM GAS  C:\Users\xiaofei\AppData\Local\Temp\ccEZCIhm.s 			page 64


 3615 0164 9342     		cmp	r3, r2
 3616 0166 29D0     		beq	.L523
 3617 0168 1832     		adds	r2, r2, #24
 3618 016a 9342     		cmp	r3, r2
 3619 016c 28D0     		beq	.L524
 3620 016e 1832     		adds	r2, r2, #24
 3621 0170 9342     		cmp	r3, r2
 3622 0172 27D0     		beq	.L525
 3623 0174 1832     		adds	r2, r2, #24
 3624 0176 9342     		cmp	r3, r2
 3625 0178 26D0     		beq	.L526
 3626 017a 02F55672 		add	r2, r2, #856
 3627 017e 9342     		cmp	r3, r2
 3628 0180 24D0     		beq	.L527
 3629 0182 1832     		adds	r2, r2, #24
 3630 0184 9342     		cmp	r3, r2
 3631 0186 23D0     		beq	.L528
 3632 0188 1832     		adds	r2, r2, #24
 3633 018a 9342     		cmp	r3, r2
 3634 018c 22D0     		beq	.L529
 3635 018e 1832     		adds	r2, r2, #24
 3636 0190 9342     		cmp	r3, r2
 3637 0192 21D0     		beq	.L530
 3638 0194 1832     		adds	r2, r2, #24
 3639 0196 9342     		cmp	r3, r2
 3640 0198 20D0     		beq	.L531
 3641 019a 1832     		adds	r2, r2, #24
 3642 019c 9342     		cmp	r3, r2
 3643 019e 1FD0     		beq	.L532
 3644 01a0 1832     		adds	r2, r2, #24
 3645 01a2 9342     		cmp	r3, r2
 3646 01a4 1ED0     		beq	.L533
 3647 01a6 1832     		adds	r2, r2, #24
 3648 01a8 9342     		cmp	r3, r2
 3649 01aa 1DD1     		bne	.L534
 3650 01ac 0123     		movs	r3, #1
 3651 01ae 1CE0     		b	.L486
 3652              	.L520:
 3653 01b0 0123     		movs	r3, #1
 3654 01b2 1AE0     		b	.L486
 3655              	.L521:
 3656 01b4 0123     		movs	r3, #1
 3657 01b6 18E0     		b	.L486
 3658              	.L522:
 3659 01b8 0123     		movs	r3, #1
 3660 01ba 16E0     		b	.L486
 3661              	.L523:
 3662 01bc 0123     		movs	r3, #1
 3663 01be 14E0     		b	.L486
 3664              	.L524:
 3665 01c0 0123     		movs	r3, #1
 3666 01c2 12E0     		b	.L486
 3667              	.L525:
 3668 01c4 0123     		movs	r3, #1
 3669 01c6 10E0     		b	.L486
 3670              	.L526:
 3671 01c8 0123     		movs	r3, #1
ARM GAS  C:\Users\xiaofei\AppData\Local\Temp\ccEZCIhm.s 			page 65


 3672 01ca 0EE0     		b	.L486
 3673              	.L527:
 3674 01cc 0123     		movs	r3, #1
 3675 01ce 0CE0     		b	.L486
 3676              	.L528:
 3677 01d0 0123     		movs	r3, #1
 3678 01d2 0AE0     		b	.L486
 3679              	.L529:
 3680 01d4 0123     		movs	r3, #1
 3681 01d6 08E0     		b	.L486
 3682              	.L530:
 3683 01d8 0123     		movs	r3, #1
 3684 01da 06E0     		b	.L486
 3685              	.L531:
 3686 01dc 0123     		movs	r3, #1
 3687 01de 04E0     		b	.L486
 3688              	.L532:
 3689 01e0 0123     		movs	r3, #1
 3690 01e2 02E0     		b	.L486
 3691              	.L533:
 3692 01e4 0123     		movs	r3, #1
 3693 01e6 00E0     		b	.L486
 3694              	.L534:
 3695 01e8 0023     		movs	r3, #0
 3696              	.L486:
 3697 01ea 002B     		cmp	r3, #0
 3698 01ec 34D0     		beq	.L487
 3699 01ee 2A68     		ldr	r2, [r5]
 3700 01f0 E36D     		ldr	r3, [r4, #92]
 3701 01f2 03F01F03 		and	r3, r3, #31
 3702 01f6 DA40     		lsrs	r2, r2, r3
 3703 01f8 12F0010F 		tst	r2, #1
 3704 01fc 08D0     		beq	.L488
 3705 01fe 626D     		ldr	r2, [r4, #84]
 3706 0200 42F00202 		orr	r2, r2, #2
 3707 0204 6265     		str	r2, [r4, #84]
 3708 0206 0122     		movs	r2, #1
 3709 0208 02FA03F3 		lsl	r3, r2, r3
 3710 020c C9F80030 		str	r3, [r9]
 3711              	.L488:
 3712 0210 2968     		ldr	r1, [r5]
 3713 0212 E36D     		ldr	r3, [r4, #92]
 3714 0214 03F01F02 		and	r2, r3, #31
 3715 0218 0423     		movs	r3, #4
 3716 021a 9340     		lsls	r3, r3, r2
 3717 021c 1942     		tst	r1, r3
 3718 021e 05D0     		beq	.L489
 3719 0220 626D     		ldr	r2, [r4, #84]
 3720 0222 42F00402 		orr	r2, r2, #4
 3721 0226 6265     		str	r2, [r4, #84]
 3722 0228 C9F80030 		str	r3, [r9]
 3723              	.L489:
 3724 022c 2968     		ldr	r1, [r5]
 3725 022e E36D     		ldr	r3, [r4, #92]
 3726 0230 03F01F02 		and	r2, r3, #31
 3727 0234 0823     		movs	r3, #8
 3728 0236 9340     		lsls	r3, r3, r2
ARM GAS  C:\Users\xiaofei\AppData\Local\Temp\ccEZCIhm.s 			page 66


 3729 0238 1942     		tst	r1, r3
 3730 023a 21D0     		beq	.L490
 3731 023c 626D     		ldr	r2, [r4, #84]
 3732 023e 42F00102 		orr	r2, r2, #1
 3733 0242 6265     		str	r2, [r4, #84]
 3734 0244 C9F80030 		str	r3, [r9]
 3735 0248 0120     		movs	r0, #1
 3736 024a 84F83500 		strb	r0, [r4, #53]
 3737 024e 0023     		movs	r3, #0
 3738 0250 84F83430 		strb	r3, [r4, #52]
 3739 0254 BDE8F087 		pop	{r4, r5, r6, r7, r8, r9, r10, pc}
 3740              	.L487:
 3741 0258 2968     		ldr	r1, [r5]
 3742 025a E36D     		ldr	r3, [r4, #92]
 3743 025c 03F01F03 		and	r3, r3, #31
 3744 0260 0822     		movs	r2, #8
 3745 0262 9A40     		lsls	r2, r2, r3
 3746 0264 1142     		tst	r1, r2
 3747 0266 0BD0     		beq	.L490
 3748 0268 0120     		movs	r0, #1
 3749 026a 00FA03F3 		lsl	r3, r0, r3
 3750 026e 2B60     		str	r3, [r5]
 3751 0270 6065     		str	r0, [r4, #84]
 3752 0272 84F83500 		strb	r0, [r4, #53]
 3753 0276 0023     		movs	r3, #0
 3754 0278 84F83430 		strb	r3, [r4, #52]
 3755 027c BDE8F087 		pop	{r4, r5, r6, r7, r8, r9, r10, pc}
 3756              	.L490:
 3757 0280 B6F1FF3F 		cmp	r6, #-1
 3758 0284 12D0     		beq	.L491
 3759 0286 FFF7FEFF 		bl	HAL_GetTick
 3760 028a C8EB0000 		rsb	r0, r8, r0
 3761 028e 8642     		cmp	r6, r0
 3762 0290 00D3     		bcc	.L492
 3763 0292 5EB9     		cbnz	r6, .L491
 3764              	.L492:
 3765 0294 2023     		movs	r3, #32
 3766 0296 6365     		str	r3, [r4, #84]
 3767 0298 2046     		mov	r0, r4
 3768 029a FFF7FEFF 		bl	HAL_DMA_Abort
 3769 029e 0120     		movs	r0, #1
 3770 02a0 BDE8F087 		pop	{r4, r5, r6, r7, r8, r9, r10, pc}
 3771              	.L590:
 3772              		.align	2
 3773              	.L589:
 3774 02a4 28000240 		.word	1073872936
 3775 02a8 10000240 		.word	1073872912
 3776              	.L491:
 3777 02ac 2368     		ldr	r3, [r4]
 3778 02ae AD4A     		ldr	r2, .L591
 3779 02b0 AD49     		ldr	r1, .L591+4
 3780 02b2 9342     		cmp	r3, r2
 3781 02b4 18BF     		it	ne
 3782 02b6 8B42     		cmpne	r3, r1
 3783 02b8 44D0     		beq	.L535
 3784 02ba 1832     		adds	r2, r2, #24
 3785 02bc 9342     		cmp	r3, r2
ARM GAS  C:\Users\xiaofei\AppData\Local\Temp\ccEZCIhm.s 			page 67


 3786 02be 43D0     		beq	.L536
 3787 02c0 1832     		adds	r2, r2, #24
 3788 02c2 9342     		cmp	r3, r2
 3789 02c4 42D0     		beq	.L537
 3790 02c6 1832     		adds	r2, r2, #24
 3791 02c8 9342     		cmp	r3, r2
 3792 02ca 41D0     		beq	.L538
 3793 02cc 1832     		adds	r2, r2, #24
 3794 02ce 9342     		cmp	r3, r2
 3795 02d0 40D0     		beq	.L539
 3796 02d2 1832     		adds	r2, r2, #24
 3797 02d4 9342     		cmp	r3, r2
 3798 02d6 3FD0     		beq	.L540
 3799 02d8 1832     		adds	r2, r2, #24
 3800 02da 9342     		cmp	r3, r2
 3801 02dc 3ED0     		beq	.L541
 3802 02de 02F55672 		add	r2, r2, #856
 3803 02e2 9342     		cmp	r3, r2
 3804 02e4 3CD0     		beq	.L542
 3805 02e6 1832     		adds	r2, r2, #24
 3806 02e8 9342     		cmp	r3, r2
 3807 02ea 3BD0     		beq	.L543
 3808 02ec 1832     		adds	r2, r2, #24
 3809 02ee 9342     		cmp	r3, r2
 3810 02f0 3AD0     		beq	.L544
 3811 02f2 1832     		adds	r2, r2, #24
 3812 02f4 9342     		cmp	r3, r2
 3813 02f6 39D0     		beq	.L545
 3814 02f8 1832     		adds	r2, r2, #24
 3815 02fa 9342     		cmp	r3, r2
 3816 02fc 38D0     		beq	.L546
 3817 02fe 1832     		adds	r2, r2, #24
 3818 0300 9342     		cmp	r3, r2
 3819 0302 37D0     		beq	.L547
 3820 0304 1832     		adds	r2, r2, #24
 3821 0306 9342     		cmp	r3, r2
 3822 0308 36D0     		beq	.L548
 3823 030a 1832     		adds	r2, r2, #24
 3824 030c 9342     		cmp	r3, r2
 3825 030e 35D0     		beq	.L549
 3826 0310 964A     		ldr	r2, .L591+8
 3827 0312 9342     		cmp	r3, r2
 3828 0314 34D0     		beq	.L550
 3829 0316 1432     		adds	r2, r2, #20
 3830 0318 9342     		cmp	r3, r2
 3831 031a 33D0     		beq	.L551
 3832 031c 1432     		adds	r2, r2, #20
 3833 031e 9342     		cmp	r3, r2
 3834 0320 32D0     		beq	.L552
 3835 0322 1432     		adds	r2, r2, #20
 3836 0324 9342     		cmp	r3, r2
 3837 0326 31D0     		beq	.L553
 3838 0328 1432     		adds	r2, r2, #20
 3839 032a 9342     		cmp	r3, r2
 3840 032c 30D0     		beq	.L554
 3841 032e 1432     		adds	r2, r2, #20
 3842 0330 9342     		cmp	r3, r2
ARM GAS  C:\Users\xiaofei\AppData\Local\Temp\ccEZCIhm.s 			page 68


 3843 0332 2FD0     		beq	.L555
 3844 0334 1432     		adds	r2, r2, #20
 3845 0336 9342     		cmp	r3, r2
 3846 0338 2ED0     		beq	.L556
 3847 033a 1432     		adds	r2, r2, #20
 3848 033c 9342     		cmp	r3, r2
 3849 033e 2DD1     		bne	.L557
 3850 0340 0123     		movs	r3, #1
 3851 0342 2CE0     		b	.L493
 3852              	.L535:
 3853 0344 0123     		movs	r3, #1
 3854 0346 2AE0     		b	.L493
 3855              	.L536:
 3856 0348 0123     		movs	r3, #1
 3857 034a 28E0     		b	.L493
 3858              	.L537:
 3859 034c 0123     		movs	r3, #1
 3860 034e 26E0     		b	.L493
 3861              	.L538:
 3862 0350 0123     		movs	r3, #1
 3863 0352 24E0     		b	.L493
 3864              	.L539:
 3865 0354 0123     		movs	r3, #1
 3866 0356 22E0     		b	.L493
 3867              	.L540:
 3868 0358 0123     		movs	r3, #1
 3869 035a 20E0     		b	.L493
 3870              	.L541:
 3871 035c 0123     		movs	r3, #1
 3872 035e 1EE0     		b	.L493
 3873              	.L542:
 3874 0360 0123     		movs	r3, #1
 3875 0362 1CE0     		b	.L493
 3876              	.L543:
 3877 0364 0123     		movs	r3, #1
 3878 0366 1AE0     		b	.L493
 3879              	.L544:
 3880 0368 0123     		movs	r3, #1
 3881 036a 18E0     		b	.L493
 3882              	.L545:
 3883 036c 0123     		movs	r3, #1
 3884 036e 16E0     		b	.L493
 3885              	.L546:
 3886 0370 0123     		movs	r3, #1
 3887 0372 14E0     		b	.L493
 3888              	.L547:
 3889 0374 0123     		movs	r3, #1
 3890 0376 12E0     		b	.L493
 3891              	.L548:
 3892 0378 0123     		movs	r3, #1
 3893 037a 10E0     		b	.L493
 3894              	.L549:
 3895 037c 0123     		movs	r3, #1
 3896 037e 0EE0     		b	.L493
 3897              	.L550:
 3898 0380 0123     		movs	r3, #1
 3899 0382 0CE0     		b	.L493
ARM GAS  C:\Users\xiaofei\AppData\Local\Temp\ccEZCIhm.s 			page 69


 3900              	.L551:
 3901 0384 0123     		movs	r3, #1
 3902 0386 0AE0     		b	.L493
 3903              	.L552:
 3904 0388 0123     		movs	r3, #1
 3905 038a 08E0     		b	.L493
 3906              	.L553:
 3907 038c 0123     		movs	r3, #1
 3908 038e 06E0     		b	.L493
 3909              	.L554:
 3910 0390 0123     		movs	r3, #1
 3911 0392 04E0     		b	.L493
 3912              	.L555:
 3913 0394 0123     		movs	r3, #1
 3914 0396 02E0     		b	.L493
 3915              	.L556:
 3916 0398 0123     		movs	r3, #1
 3917 039a 00E0     		b	.L493
 3918              	.L557:
 3919 039c 0023     		movs	r3, #0
 3920              	.L493:
 3921 039e ABB1     		cbz	r3, .L494
 3922 03a0 E36E     		ldr	r3, [r4, #108]
 3923 03a2 4BB1     		cbz	r3, .L495
 3924 03a4 236F     		ldr	r3, [r4, #112]
 3925 03a6 1968     		ldr	r1, [r3]
 3926 03a8 626F     		ldr	r2, [r4, #116]
 3927 03aa 1142     		tst	r1, r2
 3928 03ac 04D0     		beq	.L495
 3929 03ae 5A60     		str	r2, [r3, #4]
 3930 03b0 636D     		ldr	r3, [r4, #84]
 3931 03b2 43F48063 		orr	r3, r3, #1024
 3932 03b6 6365     		str	r3, [r4, #84]
 3933              	.L495:
 3934 03b8 636E     		ldr	r3, [r4, #100]
 3935 03ba 1968     		ldr	r1, [r3]
 3936 03bc A26E     		ldr	r2, [r4, #104]
 3937 03be 1142     		tst	r1, r2
 3938 03c0 04D0     		beq	.L494
 3939 03c2 5A60     		str	r2, [r3, #4]
 3940 03c4 636D     		ldr	r3, [r4, #84]
 3941 03c6 43F40073 		orr	r3, r3, #512
 3942 03ca 6365     		str	r3, [r4, #84]
 3943              	.L494:
 3944 03cc 2B68     		ldr	r3, [r5]
 3945 03ce 1F42     		tst	r7, r3
 3946 03d0 3FF4BAAE 		beq	.L497
 3947 03d4 BAF1000F 		cmp	r10, #0
 3948 03d8 68D1     		bne	.L498
 3949 03da 2368     		ldr	r3, [r4]
 3950 03dc 614A     		ldr	r2, .L591
 3951 03de 6249     		ldr	r1, .L591+4
 3952 03e0 9342     		cmp	r3, r2
 3953 03e2 18BF     		it	ne
 3954 03e4 8B42     		cmpne	r3, r1
 3955 03e6 2CD0     		beq	.L558
 3956 03e8 1832     		adds	r2, r2, #24
ARM GAS  C:\Users\xiaofei\AppData\Local\Temp\ccEZCIhm.s 			page 70


 3957 03ea 9342     		cmp	r3, r2
 3958 03ec 2BD0     		beq	.L559
 3959 03ee 1832     		adds	r2, r2, #24
 3960 03f0 9342     		cmp	r3, r2
 3961 03f2 2AD0     		beq	.L560
 3962 03f4 1832     		adds	r2, r2, #24
 3963 03f6 9342     		cmp	r3, r2
 3964 03f8 29D0     		beq	.L561
 3965 03fa 1832     		adds	r2, r2, #24
 3966 03fc 9342     		cmp	r3, r2
 3967 03fe 28D0     		beq	.L562
 3968 0400 1832     		adds	r2, r2, #24
 3969 0402 9342     		cmp	r3, r2
 3970 0404 27D0     		beq	.L563
 3971 0406 1832     		adds	r2, r2, #24
 3972 0408 9342     		cmp	r3, r2
 3973 040a 26D0     		beq	.L564
 3974 040c 02F55672 		add	r2, r2, #856
 3975 0410 9342     		cmp	r3, r2
 3976 0412 24D0     		beq	.L565
 3977 0414 1832     		adds	r2, r2, #24
 3978 0416 9342     		cmp	r3, r2
 3979 0418 23D0     		beq	.L566
 3980 041a 1832     		adds	r2, r2, #24
 3981 041c 9342     		cmp	r3, r2
 3982 041e 22D0     		beq	.L567
 3983 0420 1832     		adds	r2, r2, #24
 3984 0422 9342     		cmp	r3, r2
 3985 0424 21D0     		beq	.L568
 3986 0426 1832     		adds	r2, r2, #24
 3987 0428 9342     		cmp	r3, r2
 3988 042a 20D0     		beq	.L569
 3989 042c 1832     		adds	r2, r2, #24
 3990 042e 9342     		cmp	r3, r2
 3991 0430 1FD0     		beq	.L570
 3992 0432 1832     		adds	r2, r2, #24
 3993 0434 9342     		cmp	r3, r2
 3994 0436 1ED0     		beq	.L571
 3995 0438 1832     		adds	r2, r2, #24
 3996 043a 9342     		cmp	r3, r2
 3997 043c 1DD1     		bne	.L572
 3998 043e 0123     		movs	r3, #1
 3999 0440 1CE0     		b	.L499
 4000              	.L558:
 4001 0442 0123     		movs	r3, #1
 4002 0444 1AE0     		b	.L499
 4003              	.L559:
 4004 0446 0123     		movs	r3, #1
 4005 0448 18E0     		b	.L499
 4006              	.L560:
 4007 044a 0123     		movs	r3, #1
 4008 044c 16E0     		b	.L499
 4009              	.L561:
 4010 044e 0123     		movs	r3, #1
 4011 0450 14E0     		b	.L499
 4012              	.L562:
 4013 0452 0123     		movs	r3, #1
ARM GAS  C:\Users\xiaofei\AppData\Local\Temp\ccEZCIhm.s 			page 71


 4014 0454 12E0     		b	.L499
 4015              	.L563:
 4016 0456 0123     		movs	r3, #1
 4017 0458 10E0     		b	.L499
 4018              	.L564:
 4019 045a 0123     		movs	r3, #1
 4020 045c 0EE0     		b	.L499
 4021              	.L565:
 4022 045e 0123     		movs	r3, #1
 4023 0460 0CE0     		b	.L499
 4024              	.L566:
 4025 0462 0123     		movs	r3, #1
 4026 0464 0AE0     		b	.L499
 4027              	.L567:
 4028 0466 0123     		movs	r3, #1
 4029 0468 08E0     		b	.L499
 4030              	.L568:
 4031 046a 0123     		movs	r3, #1
 4032 046c 06E0     		b	.L499
 4033              	.L569:
 4034 046e 0123     		movs	r3, #1
 4035 0470 04E0     		b	.L499
 4036              	.L570:
 4037 0472 0123     		movs	r3, #1
 4038 0474 02E0     		b	.L499
 4039              	.L571:
 4040 0476 0123     		movs	r3, #1
 4041 0478 00E0     		b	.L499
 4042              	.L572:
 4043 047a 0023     		movs	r3, #0
 4044              	.L499:
 4045 047c 3BB1     		cbz	r3, .L500
 4046 047e E36D     		ldr	r3, [r4, #92]
 4047 0480 03F01F02 		and	r2, r3, #31
 4048 0484 3023     		movs	r3, #48
 4049 0486 9340     		lsls	r3, r3, r2
 4050 0488 C9F80030 		str	r3, [r9]
 4051 048c 06E0     		b	.L501
 4052              	.L500:
 4053 048e E36D     		ldr	r3, [r4, #92]
 4054 0490 03F01F02 		and	r2, r3, #31
 4055 0494 0223     		movs	r3, #2
 4056 0496 9340     		lsls	r3, r3, r2
 4057 0498 C9F80030 		str	r3, [r9]
 4058              	.L501:
 4059 049c 0020     		movs	r0, #0
 4060 049e 84F83400 		strb	r0, [r4, #52]
 4061 04a2 0123     		movs	r3, #1
 4062 04a4 84F83530 		strb	r3, [r4, #53]
 4063 04a8 BDE8F087 		pop	{r4, r5, r6, r7, r8, r9, r10, pc}
 4064              	.L498:
 4065 04ac 2368     		ldr	r3, [r4]
 4066 04ae 2D4A     		ldr	r2, .L591
 4067 04b0 2D49     		ldr	r1, .L591+4
 4068 04b2 9342     		cmp	r3, r2
 4069 04b4 18BF     		it	ne
 4070 04b6 8B42     		cmpne	r3, r1
ARM GAS  C:\Users\xiaofei\AppData\Local\Temp\ccEZCIhm.s 			page 72


 4071 04b8 2CD0     		beq	.L573
 4072 04ba 1832     		adds	r2, r2, #24
 4073 04bc 9342     		cmp	r3, r2
 4074 04be 2BD0     		beq	.L574
 4075 04c0 1832     		adds	r2, r2, #24
 4076 04c2 9342     		cmp	r3, r2
 4077 04c4 2AD0     		beq	.L575
 4078 04c6 1832     		adds	r2, r2, #24
 4079 04c8 9342     		cmp	r3, r2
 4080 04ca 29D0     		beq	.L576
 4081 04cc 1832     		adds	r2, r2, #24
 4082 04ce 9342     		cmp	r3, r2
 4083 04d0 28D0     		beq	.L577
 4084 04d2 1832     		adds	r2, r2, #24
 4085 04d4 9342     		cmp	r3, r2
 4086 04d6 27D0     		beq	.L578
 4087 04d8 1832     		adds	r2, r2, #24
 4088 04da 9342     		cmp	r3, r2
 4089 04dc 26D0     		beq	.L579
 4090 04de 02F55672 		add	r2, r2, #856
 4091 04e2 9342     		cmp	r3, r2
 4092 04e4 24D0     		beq	.L580
 4093 04e6 1832     		adds	r2, r2, #24
 4094 04e8 9342     		cmp	r3, r2
 4095 04ea 23D0     		beq	.L581
 4096 04ec 1832     		adds	r2, r2, #24
 4097 04ee 9342     		cmp	r3, r2
 4098 04f0 22D0     		beq	.L582
 4099 04f2 1832     		adds	r2, r2, #24
 4100 04f4 9342     		cmp	r3, r2
 4101 04f6 21D0     		beq	.L583
 4102 04f8 1832     		adds	r2, r2, #24
 4103 04fa 9342     		cmp	r3, r2
 4104 04fc 20D0     		beq	.L584
 4105 04fe 1832     		adds	r2, r2, #24
 4106 0500 9342     		cmp	r3, r2
 4107 0502 1FD0     		beq	.L585
 4108 0504 1832     		adds	r2, r2, #24
 4109 0506 9342     		cmp	r3, r2
 4110 0508 1ED0     		beq	.L586
 4111 050a 1832     		adds	r2, r2, #24
 4112 050c 9342     		cmp	r3, r2
 4113 050e 1DD1     		bne	.L587
 4114 0510 0123     		movs	r3, #1
 4115 0512 1CE0     		b	.L502
 4116              	.L573:
 4117 0514 0123     		movs	r3, #1
 4118 0516 1AE0     		b	.L502
 4119              	.L574:
 4120 0518 0123     		movs	r3, #1
 4121 051a 18E0     		b	.L502
 4122              	.L575:
 4123 051c 0123     		movs	r3, #1
 4124 051e 16E0     		b	.L502
 4125              	.L576:
 4126 0520 0123     		movs	r3, #1
 4127 0522 14E0     		b	.L502
ARM GAS  C:\Users\xiaofei\AppData\Local\Temp\ccEZCIhm.s 			page 73


 4128              	.L577:
 4129 0524 0123     		movs	r3, #1
 4130 0526 12E0     		b	.L502
 4131              	.L578:
 4132 0528 0123     		movs	r3, #1
 4133 052a 10E0     		b	.L502
 4134              	.L579:
 4135 052c 0123     		movs	r3, #1
 4136 052e 0EE0     		b	.L502
 4137              	.L580:
 4138 0530 0123     		movs	r3, #1
 4139 0532 0CE0     		b	.L502
 4140              	.L581:
 4141 0534 0123     		movs	r3, #1
 4142 0536 0AE0     		b	.L502
 4143              	.L582:
 4144 0538 0123     		movs	r3, #1
 4145 053a 08E0     		b	.L502
 4146              	.L583:
 4147 053c 0123     		movs	r3, #1
 4148 053e 06E0     		b	.L502
 4149              	.L584:
 4150 0540 0123     		movs	r3, #1
 4151 0542 04E0     		b	.L502
 4152              	.L585:
 4153 0544 0123     		movs	r3, #1
 4154 0546 02E0     		b	.L502
 4155              	.L586:
 4156 0548 0123     		movs	r3, #1
 4157 054a 00E0     		b	.L502
 4158              	.L587:
 4159 054c 0023     		movs	r3, #0
 4160              	.L502:
 4161 054e 7BB1     		cbz	r3, .L503
 4162 0550 E36D     		ldr	r3, [r4, #92]
 4163 0552 03F01F02 		and	r2, r3, #31
 4164 0556 1023     		movs	r3, #16
 4165 0558 9340     		lsls	r3, r3, r2
 4166 055a C9F80030 		str	r3, [r9]
 4167 055e 0020     		movs	r0, #0
 4168 0560 BDE8F087 		pop	{r4, r5, r6, r7, r8, r9, r10, pc}
 4169              	.L592:
 4170              		.align	2
 4171              	.L591:
 4172 0564 28000240 		.word	1073872936
 4173 0568 10000240 		.word	1073872912
 4174 056c 08540258 		.word	1476547592
 4175              	.L503:
 4176 0570 E36D     		ldr	r3, [r4, #92]
 4177 0572 03F01F02 		and	r2, r3, #31
 4178 0576 0423     		movs	r3, #4
 4179 0578 9340     		lsls	r3, r3, r2
 4180 057a C9F80030 		str	r3, [r9]
 4181 057e 0020     		movs	r0, #0
 4182 0580 BDE8F087 		pop	{r4, r5, r6, r7, r8, r9, r10, pc}
 4183              	.L504:
 4184 0584 0120     		movs	r0, #1
ARM GAS  C:\Users\xiaofei\AppData\Local\Temp\ccEZCIhm.s 			page 74


 4185 0586 BDE8F087 		pop	{r4, r5, r6, r7, r8, r9, r10, pc}
 4187 058a 00BF     		.section	.text.HAL_DMA_IRQHandler,"ax",%progbits
 4188              		.align	2
 4189              		.global	HAL_DMA_IRQHandler
 4190              		.thumb
 4191              		.thumb_func
 4193              	HAL_DMA_IRQHandler:
 4194              		@ args = 0, pretend = 0, frame = 8
 4195              		@ frame_needed = 0, uses_anonymous_args = 0
 4196 0000 F0B5     		push	{r4, r5, r6, r7, lr}
 4197 0002 83B0     		sub	sp, sp, #12
 4198 0004 0446     		mov	r4, r0
 4199 0006 0023     		movs	r3, #0
 4200 0008 0193     		str	r3, [sp, #4]
 4201 000a 9A4B     		ldr	r3, .L672
 4202 000c 1B68     		ldr	r3, [r3]
 4203 000e 9A4D     		ldr	r5, .L672+4
 4204 0010 A5FB0335 		umull	r3, r5, r5, r3
 4205 0014 AD0A     		lsrs	r5, r5, #10
 4206 0016 866D     		ldr	r6, [r0, #88]
 4207 0018 3768     		ldr	r7, [r6]
 4208 001a 3068     		ldr	r0, [r6]
 4209 001c 2368     		ldr	r3, [r4]
 4210 001e 9749     		ldr	r1, .L672+8
 4211 0020 974A     		ldr	r2, .L672+12
 4212 0022 9342     		cmp	r3, r2
 4213 0024 18BF     		it	ne
 4214 0026 8B42     		cmpne	r3, r1
 4215 0028 0CBF     		ite	eq
 4216 002a 0122     		moveq	r2, #1
 4217 002c 0022     		movne	r2, #0
 4218 002e 2CD0     		beq	.L650
 4219 0030 3031     		adds	r1, r1, #48
 4220 0032 8B42     		cmp	r3, r1
 4221 0034 2BD0     		beq	.L651
 4222 0036 1831     		adds	r1, r1, #24
 4223 0038 8B42     		cmp	r3, r1
 4224 003a 2AD0     		beq	.L652
 4225 003c 1831     		adds	r1, r1, #24
 4226 003e 8B42     		cmp	r3, r1
 4227 0040 29D0     		beq	.L653
 4228 0042 1831     		adds	r1, r1, #24
 4229 0044 8B42     		cmp	r3, r1
 4230 0046 28D0     		beq	.L654
 4231 0048 1831     		adds	r1, r1, #24
 4232 004a 8B42     		cmp	r3, r1
 4233 004c 27D0     		beq	.L655
 4234 004e 1831     		adds	r1, r1, #24
 4235 0050 8B42     		cmp	r3, r1
 4236 0052 26D0     		beq	.L656
 4237 0054 01F55671 		add	r1, r1, #856
 4238 0058 8B42     		cmp	r3, r1
 4239 005a 24D0     		beq	.L657
 4240 005c 1831     		adds	r1, r1, #24
 4241 005e 8B42     		cmp	r3, r1
 4242 0060 23D0     		beq	.L658
 4243 0062 1831     		adds	r1, r1, #24
ARM GAS  C:\Users\xiaofei\AppData\Local\Temp\ccEZCIhm.s 			page 75


 4244 0064 8B42     		cmp	r3, r1
 4245 0066 22D0     		beq	.L659
 4246 0068 1831     		adds	r1, r1, #24
 4247 006a 8B42     		cmp	r3, r1
 4248 006c 21D0     		beq	.L660
 4249 006e 1831     		adds	r1, r1, #24
 4250 0070 8B42     		cmp	r3, r1
 4251 0072 20D0     		beq	.L661
 4252 0074 1831     		adds	r1, r1, #24
 4253 0076 8B42     		cmp	r3, r1
 4254 0078 1FD0     		beq	.L662
 4255 007a 1831     		adds	r1, r1, #24
 4256 007c 8B42     		cmp	r3, r1
 4257 007e 1ED0     		beq	.L663
 4258 0080 1831     		adds	r1, r1, #24
 4259 0082 8B42     		cmp	r3, r1
 4260 0084 1DD1     		bne	.L664
 4261 0086 0121     		movs	r1, #1
 4262 0088 1CE0     		b	.L594
 4263              	.L650:
 4264 008a 0121     		movs	r1, #1
 4265 008c 1AE0     		b	.L594
 4266              	.L651:
 4267 008e 0121     		movs	r1, #1
 4268 0090 18E0     		b	.L594
 4269              	.L652:
 4270 0092 0121     		movs	r1, #1
 4271 0094 16E0     		b	.L594
 4272              	.L653:
 4273 0096 0121     		movs	r1, #1
 4274 0098 14E0     		b	.L594
 4275              	.L654:
 4276 009a 0121     		movs	r1, #1
 4277 009c 12E0     		b	.L594
 4278              	.L655:
 4279 009e 0121     		movs	r1, #1
 4280 00a0 10E0     		b	.L594
 4281              	.L656:
 4282 00a2 0121     		movs	r1, #1
 4283 00a4 0EE0     		b	.L594
 4284              	.L657:
 4285 00a6 0121     		movs	r1, #1
 4286 00a8 0CE0     		b	.L594
 4287              	.L658:
 4288 00aa 0121     		movs	r1, #1
 4289 00ac 0AE0     		b	.L594
 4290              	.L659:
 4291 00ae 0121     		movs	r1, #1
 4292 00b0 08E0     		b	.L594
 4293              	.L660:
 4294 00b2 0121     		movs	r1, #1
 4295 00b4 06E0     		b	.L594
 4296              	.L661:
 4297 00b6 0121     		movs	r1, #1
 4298 00b8 04E0     		b	.L594
 4299              	.L662:
 4300 00ba 0121     		movs	r1, #1
ARM GAS  C:\Users\xiaofei\AppData\Local\Temp\ccEZCIhm.s 			page 76


 4301 00bc 02E0     		b	.L594
 4302              	.L663:
 4303 00be 0121     		movs	r1, #1
 4304 00c0 00E0     		b	.L594
 4305              	.L664:
 4306 00c2 0021     		movs	r1, #0
 4307              	.L594:
 4308 00c4 0029     		cmp	r1, #0
 4309 00c6 00F04782 		beq	.L595
 4310 00ca E16D     		ldr	r1, [r4, #92]
 4311 00cc 01F01F00 		and	r0, r1, #31
 4312 00d0 0821     		movs	r1, #8
 4313 00d2 8140     		lsls	r1, r1, r0
 4314 00d4 0F42     		tst	r7, r1
 4315 00d6 41D0     		beq	.L596
 4316 00d8 52BB     		cbnz	r2, .L597
 4317 00da 6A4A     		ldr	r2, .L672+16
 4318 00dc 9342     		cmp	r3, r2
 4319 00de 27D0     		beq	.L597
 4320 00e0 1832     		adds	r2, r2, #24
 4321 00e2 9342     		cmp	r3, r2
 4322 00e4 24D0     		beq	.L597
 4323 00e6 1832     		adds	r2, r2, #24
 4324 00e8 9342     		cmp	r3, r2
 4325 00ea 21D0     		beq	.L597
 4326 00ec 1832     		adds	r2, r2, #24
 4327 00ee 9342     		cmp	r3, r2
 4328 00f0 1ED0     		beq	.L597
 4329 00f2 1832     		adds	r2, r2, #24
 4330 00f4 9342     		cmp	r3, r2
 4331 00f6 1BD0     		beq	.L597
 4332 00f8 1832     		adds	r2, r2, #24
 4333 00fa 9342     		cmp	r3, r2
 4334 00fc 18D0     		beq	.L597
 4335 00fe 02F55672 		add	r2, r2, #856
 4336 0102 9342     		cmp	r3, r2
 4337 0104 14D0     		beq	.L597
 4338 0106 1832     		adds	r2, r2, #24
 4339 0108 9342     		cmp	r3, r2
 4340 010a 11D0     		beq	.L597
 4341 010c 1832     		adds	r2, r2, #24
 4342 010e 9342     		cmp	r3, r2
 4343 0110 0ED0     		beq	.L597
 4344 0112 1832     		adds	r2, r2, #24
 4345 0114 9342     		cmp	r3, r2
 4346 0116 0BD0     		beq	.L597
 4347 0118 1832     		adds	r2, r2, #24
 4348 011a 9342     		cmp	r3, r2
 4349 011c 08D0     		beq	.L597
 4350 011e 1832     		adds	r2, r2, #24
 4351 0120 9342     		cmp	r3, r2
 4352 0122 05D0     		beq	.L597
 4353 0124 1832     		adds	r2, r2, #24
 4354 0126 9342     		cmp	r3, r2
 4355 0128 02D0     		beq	.L597
 4356 012a 1832     		adds	r2, r2, #24
 4357 012c 9342     		cmp	r3, r2
ARM GAS  C:\Users\xiaofei\AppData\Local\Temp\ccEZCIhm.s 			page 77


 4358 012e 03D1     		bne	.L598
 4359              	.L597:
 4360 0130 1A68     		ldr	r2, [r3]
 4361 0132 C2F38002 		ubfx	r2, r2, #2, #1
 4362 0136 02E0     		b	.L599
 4363              	.L598:
 4364 0138 1A68     		ldr	r2, [r3]
 4365 013a C2F3C002 		ubfx	r2, r2, #3, #1
 4366              	.L599:
 4367 013e 6AB1     		cbz	r2, .L596
 4368 0140 1A68     		ldr	r2, [r3]
 4369 0142 22F00402 		bic	r2, r2, #4
 4370 0146 1A60     		str	r2, [r3]
 4371 0148 E36D     		ldr	r3, [r4, #92]
 4372 014a 03F01F02 		and	r2, r3, #31
 4373 014e 0823     		movs	r3, #8
 4374 0150 9340     		lsls	r3, r3, r2
 4375 0152 B360     		str	r3, [r6, #8]
 4376 0154 636D     		ldr	r3, [r4, #84]
 4377 0156 43F00103 		orr	r3, r3, #1
 4378 015a 6365     		str	r3, [r4, #84]
 4379              	.L596:
 4380 015c E26D     		ldr	r2, [r4, #92]
 4381 015e 02F01F02 		and	r2, r2, #31
 4382 0162 27FA02F3 		lsr	r3, r7, r2
 4383 0166 13F0010F 		tst	r3, #1
 4384 016a 42D0     		beq	.L600
 4385 016c 2368     		ldr	r3, [r4]
 4386 016e 4348     		ldr	r0, .L672+8
 4387 0170 4349     		ldr	r1, .L672+12
 4388 0172 8B42     		cmp	r3, r1
 4389 0174 18BF     		it	ne
 4390 0176 8342     		cmpne	r3, r0
 4391 0178 0CBF     		ite	eq
 4392 017a 0121     		moveq	r1, #1
 4393 017c 0021     		movne	r1, #0
 4394 017e 2AD0     		beq	.L601
 4395 0180 3030     		adds	r0, r0, #48
 4396 0182 8342     		cmp	r3, r0
 4397 0184 27D0     		beq	.L601
 4398 0186 1830     		adds	r0, r0, #24
 4399 0188 8342     		cmp	r3, r0
 4400 018a 24D0     		beq	.L601
 4401 018c 1830     		adds	r0, r0, #24
 4402 018e 8342     		cmp	r3, r0
 4403 0190 21D0     		beq	.L601
 4404 0192 1830     		adds	r0, r0, #24
 4405 0194 8342     		cmp	r3, r0
 4406 0196 1ED0     		beq	.L601
 4407 0198 1830     		adds	r0, r0, #24
 4408 019a 8342     		cmp	r3, r0
 4409 019c 1BD0     		beq	.L601
 4410 019e 1830     		adds	r0, r0, #24
 4411 01a0 8342     		cmp	r3, r0
 4412 01a2 18D0     		beq	.L601
 4413 01a4 00F55670 		add	r0, r0, #856
 4414 01a8 8342     		cmp	r3, r0
ARM GAS  C:\Users\xiaofei\AppData\Local\Temp\ccEZCIhm.s 			page 78


 4415 01aa 14D0     		beq	.L601
 4416 01ac 1830     		adds	r0, r0, #24
 4417 01ae 8342     		cmp	r3, r0
 4418 01b0 11D0     		beq	.L601
 4419 01b2 1830     		adds	r0, r0, #24
 4420 01b4 8342     		cmp	r3, r0
 4421 01b6 0ED0     		beq	.L601
 4422 01b8 1830     		adds	r0, r0, #24
 4423 01ba 8342     		cmp	r3, r0
 4424 01bc 0BD0     		beq	.L601
 4425 01be 1830     		adds	r0, r0, #24
 4426 01c0 8342     		cmp	r3, r0
 4427 01c2 08D0     		beq	.L601
 4428 01c4 1830     		adds	r0, r0, #24
 4429 01c6 8342     		cmp	r3, r0
 4430 01c8 05D0     		beq	.L601
 4431 01ca 1830     		adds	r0, r0, #24
 4432 01cc 8342     		cmp	r3, r0
 4433 01ce 02D0     		beq	.L601
 4434 01d0 1830     		adds	r0, r0, #24
 4435 01d2 8342     		cmp	r3, r0
 4436 01d4 03D1     		bne	.L602
 4437              	.L601:
 4438 01d6 5969     		ldr	r1, [r3, #20]
 4439 01d8 C1F3C011 		ubfx	r1, r1, #7, #1
 4440 01dc 00E0     		b	.L603
 4441              	.L602:
 4442 01de 1B68     		ldr	r3, [r3]
 4443              	.L603:
 4444 01e0 39B1     		cbz	r1, .L600
 4445 01e2 0123     		movs	r3, #1
 4446 01e4 03FA02F2 		lsl	r2, r3, r2
 4447 01e8 B260     		str	r2, [r6, #8]
 4448 01ea 636D     		ldr	r3, [r4, #84]
 4449 01ec 43F00203 		orr	r3, r3, #2
 4450 01f0 6365     		str	r3, [r4, #84]
 4451              	.L600:
 4452 01f2 E26D     		ldr	r2, [r4, #92]
 4453 01f4 02F01F02 		and	r2, r2, #31
 4454 01f8 0423     		movs	r3, #4
 4455 01fa 03FA02F2 		lsl	r2, r3, r2
 4456 01fe 1742     		tst	r7, r2
 4457 0200 49D0     		beq	.L604
 4458 0202 2368     		ldr	r3, [r4]
 4459 0204 1D48     		ldr	r0, .L672+8
 4460 0206 1E49     		ldr	r1, .L672+12
 4461 0208 8B42     		cmp	r3, r1
 4462 020a 18BF     		it	ne
 4463 020c 8342     		cmpne	r3, r0
 4464 020e 0CBF     		ite	eq
 4465 0210 0121     		moveq	r1, #1
 4466 0212 0021     		movne	r1, #0
 4467 0214 2AD0     		beq	.L605
 4468 0216 3030     		adds	r0, r0, #48
 4469 0218 8342     		cmp	r3, r0
 4470 021a 27D0     		beq	.L605
 4471 021c 1830     		adds	r0, r0, #24
ARM GAS  C:\Users\xiaofei\AppData\Local\Temp\ccEZCIhm.s 			page 79


 4472 021e 8342     		cmp	r3, r0
 4473 0220 24D0     		beq	.L605
 4474 0222 1830     		adds	r0, r0, #24
 4475 0224 8342     		cmp	r3, r0
 4476 0226 21D0     		beq	.L605
 4477 0228 1830     		adds	r0, r0, #24
 4478 022a 8342     		cmp	r3, r0
 4479 022c 1ED0     		beq	.L605
 4480 022e 1830     		adds	r0, r0, #24
 4481 0230 8342     		cmp	r3, r0
 4482 0232 1BD0     		beq	.L605
 4483 0234 1830     		adds	r0, r0, #24
 4484 0236 8342     		cmp	r3, r0
 4485 0238 18D0     		beq	.L605
 4486 023a 00F55670 		add	r0, r0, #856
 4487 023e 8342     		cmp	r3, r0
 4488 0240 14D0     		beq	.L605
 4489 0242 1830     		adds	r0, r0, #24
 4490 0244 8342     		cmp	r3, r0
 4491 0246 11D0     		beq	.L605
 4492 0248 1830     		adds	r0, r0, #24
 4493 024a 8342     		cmp	r3, r0
 4494 024c 0ED0     		beq	.L605
 4495 024e 1830     		adds	r0, r0, #24
 4496 0250 8342     		cmp	r3, r0
 4497 0252 0BD0     		beq	.L605
 4498 0254 1830     		adds	r0, r0, #24
 4499 0256 8342     		cmp	r3, r0
 4500 0258 08D0     		beq	.L605
 4501 025a 1830     		adds	r0, r0, #24
 4502 025c 8342     		cmp	r3, r0
 4503 025e 05D0     		beq	.L605
 4504 0260 1830     		adds	r0, r0, #24
 4505 0262 8342     		cmp	r3, r0
 4506 0264 02D0     		beq	.L605
 4507 0266 1830     		adds	r0, r0, #24
 4508 0268 8342     		cmp	r3, r0
 4509 026a 0DD1     		bne	.L606
 4510              	.L605:
 4511 026c 1968     		ldr	r1, [r3]
 4512 026e C1F34001 		ubfx	r1, r1, #1, #1
 4513 0272 0AE0     		b	.L607
 4514              	.L673:
 4515              		.align	2
 4516              	.L672:
 4517 0274 00000000 		.word	SystemCoreClock
 4518 0278 B5814E1B 		.word	458129845
 4519 027c 10000240 		.word	1073872912
 4520 0280 28000240 		.word	1073872936
 4521 0284 40000240 		.word	1073872960
 4522              	.L606:
 4523 0288 1B68     		ldr	r3, [r3]
 4524              	.L607:
 4525 028a 21B1     		cbz	r1, .L604
 4526 028c B260     		str	r2, [r6, #8]
 4527 028e 636D     		ldr	r3, [r4, #84]
 4528 0290 43F00403 		orr	r3, r3, #4
ARM GAS  C:\Users\xiaofei\AppData\Local\Temp\ccEZCIhm.s 			page 80


 4529 0294 6365     		str	r3, [r4, #84]
 4530              	.L604:
 4531 0296 E36D     		ldr	r3, [r4, #92]
 4532 0298 03F01F03 		and	r3, r3, #31
 4533 029c 1022     		movs	r2, #16
 4534 029e 02FA03F3 		lsl	r3, r2, r3
 4535 02a2 1F42     		tst	r7, r3
 4536 02a4 59D0     		beq	.L608
 4537 02a6 2068     		ldr	r0, [r4]
 4538 02a8 A94A     		ldr	r2, .L674
 4539 02aa AA49     		ldr	r1, .L674+4
 4540 02ac 9042     		cmp	r0, r2
 4541 02ae 18BF     		it	ne
 4542 02b0 8842     		cmpne	r0, r1
 4543 02b2 2AD0     		beq	.L609
 4544 02b4 1832     		adds	r2, r2, #24
 4545 02b6 9042     		cmp	r0, r2
 4546 02b8 27D0     		beq	.L609
 4547 02ba 1832     		adds	r2, r2, #24
 4548 02bc 9042     		cmp	r0, r2
 4549 02be 24D0     		beq	.L609
 4550 02c0 1832     		adds	r2, r2, #24
 4551 02c2 9042     		cmp	r0, r2
 4552 02c4 21D0     		beq	.L609
 4553 02c6 1832     		adds	r2, r2, #24
 4554 02c8 9042     		cmp	r0, r2
 4555 02ca 1ED0     		beq	.L609
 4556 02cc 1832     		adds	r2, r2, #24
 4557 02ce 9042     		cmp	r0, r2
 4558 02d0 1BD0     		beq	.L609
 4559 02d2 1832     		adds	r2, r2, #24
 4560 02d4 9042     		cmp	r0, r2
 4561 02d6 18D0     		beq	.L609
 4562 02d8 02F55672 		add	r2, r2, #856
 4563 02dc 9042     		cmp	r0, r2
 4564 02de 14D0     		beq	.L609
 4565 02e0 1832     		adds	r2, r2, #24
 4566 02e2 9042     		cmp	r0, r2
 4567 02e4 11D0     		beq	.L609
 4568 02e6 1832     		adds	r2, r2, #24
 4569 02e8 9042     		cmp	r0, r2
 4570 02ea 0ED0     		beq	.L609
 4571 02ec 1832     		adds	r2, r2, #24
 4572 02ee 9042     		cmp	r0, r2
 4573 02f0 0BD0     		beq	.L609
 4574 02f2 1832     		adds	r2, r2, #24
 4575 02f4 9042     		cmp	r0, r2
 4576 02f6 08D0     		beq	.L609
 4577 02f8 1832     		adds	r2, r2, #24
 4578 02fa 9042     		cmp	r0, r2
 4579 02fc 05D0     		beq	.L609
 4580 02fe 1832     		adds	r2, r2, #24
 4581 0300 9042     		cmp	r0, r2
 4582 0302 02D0     		beq	.L609
 4583 0304 1832     		adds	r2, r2, #24
 4584 0306 9042     		cmp	r0, r2
 4585 0308 03D1     		bne	.L610
ARM GAS  C:\Users\xiaofei\AppData\Local\Temp\ccEZCIhm.s 			page 81


 4586              	.L609:
 4587 030a 0268     		ldr	r2, [r0]
 4588 030c C2F3C002 		ubfx	r2, r2, #3, #1
 4589 0310 02E0     		b	.L611
 4590              	.L610:
 4591 0312 0268     		ldr	r2, [r0]
 4592 0314 C2F38002 		ubfx	r2, r2, #2, #1
 4593              	.L611:
 4594 0318 FAB1     		cbz	r2, .L608
 4595 031a B360     		str	r3, [r6, #8]
 4596 031c 2368     		ldr	r3, [r4]
 4597 031e 1A68     		ldr	r2, [r3]
 4598 0320 12F4802F 		tst	r2, #262144
 4599 0324 0DD0     		beq	.L612
 4600 0326 1B68     		ldr	r3, [r3]
 4601 0328 13F4002F 		tst	r3, #524288
 4602 032c 04D1     		bne	.L613
 4603 032e 236C     		ldr	r3, [r4, #64]
 4604 0330 9BB1     		cbz	r3, .L608
 4605 0332 2046     		mov	r0, r4
 4606 0334 9847     		blx	r3
 4607 0336 10E0     		b	.L608
 4608              	.L613:
 4609 0338 A36C     		ldr	r3, [r4, #72]
 4610 033a 73B1     		cbz	r3, .L608
 4611 033c 2046     		mov	r0, r4
 4612 033e 9847     		blx	r3
 4613 0340 0BE0     		b	.L608
 4614              	.L612:
 4615 0342 1A68     		ldr	r2, [r3]
 4616 0344 12F4807F 		tst	r2, #256
 4617 0348 03D1     		bne	.L614
 4618 034a 1A68     		ldr	r2, [r3]
 4619 034c 22F00802 		bic	r2, r2, #8
 4620 0350 1A60     		str	r2, [r3]
 4621              	.L614:
 4622 0352 236C     		ldr	r3, [r4, #64]
 4623 0354 0BB1     		cbz	r3, .L608
 4624 0356 2046     		mov	r0, r4
 4625 0358 9847     		blx	r3
 4626              	.L608:
 4627 035a E36D     		ldr	r3, [r4, #92]
 4628 035c 03F01F03 		and	r3, r3, #31
 4629 0360 2022     		movs	r2, #32
 4630 0362 02FA03F3 		lsl	r3, r2, r3
 4631 0366 1F42     		tst	r7, r3
 4632 0368 00F08C80 		beq	.L615
 4633 036c 2068     		ldr	r0, [r4]
 4634 036e 784A     		ldr	r2, .L674
 4635 0370 7849     		ldr	r1, .L674+4
 4636 0372 9042     		cmp	r0, r2
 4637 0374 18BF     		it	ne
 4638 0376 8842     		cmpne	r0, r1
 4639 0378 2AD0     		beq	.L616
 4640 037a 1832     		adds	r2, r2, #24
 4641 037c 9042     		cmp	r0, r2
 4642 037e 27D0     		beq	.L616
ARM GAS  C:\Users\xiaofei\AppData\Local\Temp\ccEZCIhm.s 			page 82


 4643 0380 1832     		adds	r2, r2, #24
 4644 0382 9042     		cmp	r0, r2
 4645 0384 24D0     		beq	.L616
 4646 0386 1832     		adds	r2, r2, #24
 4647 0388 9042     		cmp	r0, r2
 4648 038a 21D0     		beq	.L616
 4649 038c 1832     		adds	r2, r2, #24
 4650 038e 9042     		cmp	r0, r2
 4651 0390 1ED0     		beq	.L616
 4652 0392 1832     		adds	r2, r2, #24
 4653 0394 9042     		cmp	r0, r2
 4654 0396 1BD0     		beq	.L616
 4655 0398 1832     		adds	r2, r2, #24
 4656 039a 9042     		cmp	r0, r2
 4657 039c 18D0     		beq	.L616
 4658 039e 02F55672 		add	r2, r2, #856
 4659 03a2 9042     		cmp	r0, r2
 4660 03a4 14D0     		beq	.L616
 4661 03a6 1832     		adds	r2, r2, #24
 4662 03a8 9042     		cmp	r0, r2
 4663 03aa 11D0     		beq	.L616
 4664 03ac 1832     		adds	r2, r2, #24
 4665 03ae 9042     		cmp	r0, r2
 4666 03b0 0ED0     		beq	.L616
 4667 03b2 1832     		adds	r2, r2, #24
 4668 03b4 9042     		cmp	r0, r2
 4669 03b6 0BD0     		beq	.L616
 4670 03b8 1832     		adds	r2, r2, #24
 4671 03ba 9042     		cmp	r0, r2
 4672 03bc 08D0     		beq	.L616
 4673 03be 1832     		adds	r2, r2, #24
 4674 03c0 9042     		cmp	r0, r2
 4675 03c2 05D0     		beq	.L616
 4676 03c4 1832     		adds	r2, r2, #24
 4677 03c6 9042     		cmp	r0, r2
 4678 03c8 02D0     		beq	.L616
 4679 03ca 1832     		adds	r2, r2, #24
 4680 03cc 9042     		cmp	r0, r2
 4681 03ce 03D1     		bne	.L617
 4682              	.L616:
 4683 03d0 0268     		ldr	r2, [r0]
 4684 03d2 C2F30012 		ubfx	r2, r2, #4, #1
 4685 03d6 02E0     		b	.L618
 4686              	.L617:
 4687 03d8 0268     		ldr	r2, [r0]
 4688 03da C2F34002 		ubfx	r2, r2, #1, #1
 4689              	.L618:
 4690 03de 002A     		cmp	r2, #0
 4691 03e0 50D0     		beq	.L615
 4692 03e2 B360     		str	r3, [r6, #8]
 4693 03e4 94F83530 		ldrb	r3, [r4, #53]	@ zero_extendqisi2
 4694 03e8 DBB2     		uxtb	r3, r3
 4695 03ea 042B     		cmp	r3, #4
 4696 03ec 25D1     		bne	.L619
 4697 03ee 2268     		ldr	r2, [r4]
 4698 03f0 1368     		ldr	r3, [r2]
 4699 03f2 23F01603 		bic	r3, r3, #22
ARM GAS  C:\Users\xiaofei\AppData\Local\Temp\ccEZCIhm.s 			page 83


 4700 03f6 1360     		str	r3, [r2]
 4701 03f8 2268     		ldr	r2, [r4]
 4702 03fa 5369     		ldr	r3, [r2, #20]
 4703 03fc 23F08003 		bic	r3, r3, #128
 4704 0400 5361     		str	r3, [r2, #20]
 4705 0402 236C     		ldr	r3, [r4, #64]
 4706 0404 0BB9     		cbnz	r3, .L620
 4707 0406 A36C     		ldr	r3, [r4, #72]
 4708 0408 23B1     		cbz	r3, .L621
 4709              	.L620:
 4710 040a 2268     		ldr	r2, [r4]
 4711 040c 1368     		ldr	r3, [r2]
 4712 040e 23F00803 		bic	r3, r3, #8
 4713 0412 1360     		str	r3, [r2]
 4714              	.L621:
 4715 0414 E36D     		ldr	r3, [r4, #92]
 4716 0416 03F01F02 		and	r2, r3, #31
 4717 041a 3F23     		movs	r3, #63
 4718 041c 9340     		lsls	r3, r3, r2
 4719 041e B360     		str	r3, [r6, #8]
 4720 0420 0023     		movs	r3, #0
 4721 0422 84F83430 		strb	r3, [r4, #52]
 4722 0426 0123     		movs	r3, #1
 4723 0428 84F83530 		strb	r3, [r4, #53]
 4724 042c 236D     		ldr	r3, [r4, #80]
 4725 042e 002B     		cmp	r3, #0
 4726 0430 00F0D381 		beq	.L593
 4727 0434 2046     		mov	r0, r4
 4728 0436 9847     		blx	r3
 4729 0438 CFE1     		b	.L593
 4730              	.L619:
 4731 043a 2368     		ldr	r3, [r4]
 4732 043c 1A68     		ldr	r2, [r3]
 4733 043e 12F4802F 		tst	r2, #262144
 4734 0442 0DD0     		beq	.L623
 4735 0444 1B68     		ldr	r3, [r3]
 4736 0446 13F4002F 		tst	r3, #524288
 4737 044a 04D1     		bne	.L624
 4738 044c 636C     		ldr	r3, [r4, #68]
 4739 044e CBB1     		cbz	r3, .L615
 4740 0450 2046     		mov	r0, r4
 4741 0452 9847     		blx	r3
 4742 0454 16E0     		b	.L615
 4743              	.L624:
 4744 0456 E36B     		ldr	r3, [r4, #60]
 4745 0458 A3B1     		cbz	r3, .L615
 4746 045a 2046     		mov	r0, r4
 4747 045c 9847     		blx	r3
 4748 045e 11E0     		b	.L615
 4749              	.L623:
 4750 0460 1A68     		ldr	r2, [r3]
 4751 0462 12F4807F 		tst	r2, #256
 4752 0466 09D1     		bne	.L625
 4753 0468 1A68     		ldr	r2, [r3]
 4754 046a 22F01002 		bic	r2, r2, #16
 4755 046e 1A60     		str	r2, [r3]
 4756 0470 0023     		movs	r3, #0
ARM GAS  C:\Users\xiaofei\AppData\Local\Temp\ccEZCIhm.s 			page 84


 4757 0472 84F83430 		strb	r3, [r4, #52]
 4758 0476 0123     		movs	r3, #1
 4759 0478 84F83530 		strb	r3, [r4, #53]
 4760              	.L625:
 4761 047c E36B     		ldr	r3, [r4, #60]
 4762 047e 0BB1     		cbz	r3, .L615
 4763 0480 2046     		mov	r0, r4
 4764 0482 9847     		blx	r3
 4765              	.L615:
 4766 0484 636D     		ldr	r3, [r4, #84]
 4767 0486 002B     		cmp	r3, #0
 4768 0488 00F0A781 		beq	.L593
 4769 048c 636D     		ldr	r3, [r4, #84]
 4770 048e 13F0010F 		tst	r3, #1
 4771 0492 56D0     		beq	.L626
 4772 0494 0423     		movs	r3, #4
 4773 0496 84F83530 		strb	r3, [r4, #53]
 4774 049a 2368     		ldr	r3, [r4]
 4775 049c 2C4A     		ldr	r2, .L674
 4776 049e 2D49     		ldr	r1, .L674+4
 4777 04a0 9342     		cmp	r3, r2
 4778 04a2 18BF     		it	ne
 4779 04a4 8B42     		cmpne	r3, r1
 4780 04a6 2AD0     		beq	.L627
 4781 04a8 1832     		adds	r2, r2, #24
 4782 04aa 9342     		cmp	r3, r2
 4783 04ac 27D0     		beq	.L627
 4784 04ae 1832     		adds	r2, r2, #24
 4785 04b0 9342     		cmp	r3, r2
 4786 04b2 24D0     		beq	.L627
 4787 04b4 1832     		adds	r2, r2, #24
 4788 04b6 9342     		cmp	r3, r2
 4789 04b8 21D0     		beq	.L627
 4790 04ba 1832     		adds	r2, r2, #24
 4791 04bc 9342     		cmp	r3, r2
 4792 04be 1ED0     		beq	.L627
 4793 04c0 1832     		adds	r2, r2, #24
 4794 04c2 9342     		cmp	r3, r2
 4795 04c4 1BD0     		beq	.L627
 4796 04c6 1832     		adds	r2, r2, #24
 4797 04c8 9342     		cmp	r3, r2
 4798 04ca 18D0     		beq	.L627
 4799 04cc 02F55672 		add	r2, r2, #856
 4800 04d0 9342     		cmp	r3, r2
 4801 04d2 14D0     		beq	.L627
 4802 04d4 1832     		adds	r2, r2, #24
 4803 04d6 9342     		cmp	r3, r2
 4804 04d8 11D0     		beq	.L627
 4805 04da 1832     		adds	r2, r2, #24
 4806 04dc 9342     		cmp	r3, r2
 4807 04de 0ED0     		beq	.L627
 4808 04e0 1832     		adds	r2, r2, #24
 4809 04e2 9342     		cmp	r3, r2
 4810 04e4 0BD0     		beq	.L627
 4811 04e6 1832     		adds	r2, r2, #24
 4812 04e8 9342     		cmp	r3, r2
 4813 04ea 08D0     		beq	.L627
ARM GAS  C:\Users\xiaofei\AppData\Local\Temp\ccEZCIhm.s 			page 85


 4814 04ec 1832     		adds	r2, r2, #24
 4815 04ee 9342     		cmp	r3, r2
 4816 04f0 05D0     		beq	.L627
 4817 04f2 1832     		adds	r2, r2, #24
 4818 04f4 9342     		cmp	r3, r2
 4819 04f6 02D0     		beq	.L627
 4820 04f8 1832     		adds	r2, r2, #24
 4821 04fa 9342     		cmp	r3, r2
 4822 04fc 04D1     		bne	.L628
 4823              	.L627:
 4824 04fe 1A68     		ldr	r2, [r3]
 4825 0500 22F00102 		bic	r2, r2, #1
 4826 0504 1A60     		str	r2, [r3]
 4827 0506 03E0     		b	.L631
 4828              	.L628:
 4829 0508 1A68     		ldr	r2, [r3]
 4830 050a 22F00102 		bic	r2, r2, #1
 4831 050e 1A60     		str	r2, [r3]
 4832              	.L631:
 4833 0510 019B     		ldr	r3, [sp, #4]
 4834 0512 0133     		adds	r3, r3, #1
 4835 0514 0193     		str	r3, [sp, #4]
 4836 0516 9D42     		cmp	r5, r3
 4837 0518 04D3     		bcc	.L630
 4838 051a 2368     		ldr	r3, [r4]
 4839 051c 1B68     		ldr	r3, [r3]
 4840 051e 13F0010F 		tst	r3, #1
 4841 0522 F5D1     		bne	.L631
 4842              	.L630:
 4843 0524 0023     		movs	r3, #0
 4844 0526 84F83430 		strb	r3, [r4, #52]
 4845 052a 2368     		ldr	r3, [r4]
 4846 052c 1B68     		ldr	r3, [r3]
 4847 052e 13F0010F 		tst	r3, #1
 4848 0532 03D0     		beq	.L632
 4849 0534 0323     		movs	r3, #3
 4850 0536 84F83530 		strb	r3, [r4, #53]
 4851 053a 02E0     		b	.L626
 4852              	.L632:
 4853 053c 0123     		movs	r3, #1
 4854 053e 84F83530 		strb	r3, [r4, #53]
 4855              	.L626:
 4856 0542 E36C     		ldr	r3, [r4, #76]
 4857 0544 002B     		cmp	r3, #0
 4858 0546 00F04881 		beq	.L593
 4859 054a 2046     		mov	r0, r4
 4860 054c 9847     		blx	r3
 4861 054e 44E1     		b	.L593
 4862              	.L675:
 4863              		.align	2
 4864              	.L674:
 4865 0550 28000240 		.word	1073872936
 4866 0554 10000240 		.word	1073872912
 4867              	.L595:
 4868 0558 A14D     		ldr	r5, .L676
 4869 055a A24F     		ldr	r7, .L676+4
 4870 055c AB42     		cmp	r3, r5
ARM GAS  C:\Users\xiaofei\AppData\Local\Temp\ccEZCIhm.s 			page 86


 4871 055e 18BF     		it	ne
 4872 0560 BB42     		cmpne	r3, r7
 4873 0562 13D0     		beq	.L665
 4874 0564 1435     		adds	r5, r5, #20
 4875 0566 AB42     		cmp	r3, r5
 4876 0568 12D0     		beq	.L666
 4877 056a 1435     		adds	r5, r5, #20
 4878 056c AB42     		cmp	r3, r5
 4879 056e 11D0     		beq	.L667
 4880 0570 1435     		adds	r5, r5, #20
 4881 0572 AB42     		cmp	r3, r5
 4882 0574 10D0     		beq	.L668
 4883 0576 1435     		adds	r5, r5, #20
 4884 0578 AB42     		cmp	r3, r5
 4885 057a 0FD0     		beq	.L669
 4886 057c 1435     		adds	r5, r5, #20
 4887 057e AB42     		cmp	r3, r5
 4888 0580 0ED0     		beq	.L670
 4889 0582 1435     		adds	r5, r5, #20
 4890 0584 AB42     		cmp	r3, r5
 4891 0586 0CD1     		bne	.L633
 4892 0588 0121     		movs	r1, #1
 4893 058a 0AE0     		b	.L633
 4894              	.L665:
 4895 058c 0121     		movs	r1, #1
 4896 058e 08E0     		b	.L633
 4897              	.L666:
 4898 0590 0121     		movs	r1, #1
 4899 0592 06E0     		b	.L633
 4900              	.L667:
 4901 0594 0121     		movs	r1, #1
 4902 0596 04E0     		b	.L633
 4903              	.L668:
 4904 0598 0121     		movs	r1, #1
 4905 059a 02E0     		b	.L633
 4906              	.L669:
 4907 059c 0121     		movs	r1, #1
 4908 059e 00E0     		b	.L633
 4909              	.L670:
 4910 05a0 0121     		movs	r1, #1
 4911              	.L633:
 4912 05a2 0029     		cmp	r1, #0
 4913 05a4 00F01981 		beq	.L593
 4914 05a8 1F68     		ldr	r7, [r3]
 4915 05aa E16D     		ldr	r1, [r4, #92]
 4916 05ac 01F01F01 		and	r1, r1, #31
 4917 05b0 0425     		movs	r5, #4
 4918 05b2 8D40     		lsls	r5, r5, r1
 4919 05b4 2842     		tst	r0, r5
 4920 05b6 5CD0     		beq	.L634
 4921 05b8 17F0040F 		tst	r7, #4
 4922 05bc 59D0     		beq	.L634
 4923 05be 7560     		str	r5, [r6, #4]
 4924 05c0 17F4004F 		tst	r7, #32768
 4925 05c4 10D0     		beq	.L635
 4926 05c6 17F4803F 		tst	r7, #65536
 4927 05ca 06D1     		bne	.L636
ARM GAS  C:\Users\xiaofei\AppData\Local\Temp\ccEZCIhm.s 			page 87


 4928 05cc A36C     		ldr	r3, [r4, #72]
 4929 05ce 002B     		cmp	r3, #0
 4930 05d0 00F00381 		beq	.L593
 4931 05d4 2046     		mov	r0, r4
 4932 05d6 9847     		blx	r3
 4933 05d8 FFE0     		b	.L593
 4934              	.L636:
 4935 05da 236C     		ldr	r3, [r4, #64]
 4936 05dc 002B     		cmp	r3, #0
 4937 05de 00F0FC80 		beq	.L593
 4938 05e2 2046     		mov	r0, r4
 4939 05e4 9847     		blx	r3
 4940 05e6 F8E0     		b	.L593
 4941              	.L635:
 4942 05e8 17F0200F 		tst	r7, #32
 4943 05ec 3AD1     		bne	.L637
 4944 05ee 2368     		ldr	r3, [r4]
 4945 05f0 7D4A     		ldr	r2, .L676+8
 4946 05f2 7E49     		ldr	r1, .L676+12
 4947 05f4 9342     		cmp	r3, r2
 4948 05f6 18BF     		it	ne
 4949 05f8 8B42     		cmpne	r3, r1
 4950 05fa 2AD0     		beq	.L638
 4951 05fc 1832     		adds	r2, r2, #24
 4952 05fe 9342     		cmp	r3, r2
 4953 0600 27D0     		beq	.L638
 4954 0602 1832     		adds	r2, r2, #24
 4955 0604 9342     		cmp	r3, r2
 4956 0606 24D0     		beq	.L638
 4957 0608 1832     		adds	r2, r2, #24
 4958 060a 9342     		cmp	r3, r2
 4959 060c 21D0     		beq	.L638
 4960 060e 1832     		adds	r2, r2, #24
 4961 0610 9342     		cmp	r3, r2
 4962 0612 1ED0     		beq	.L638
 4963 0614 1832     		adds	r2, r2, #24
 4964 0616 9342     		cmp	r3, r2
 4965 0618 1BD0     		beq	.L638
 4966 061a 1832     		adds	r2, r2, #24
 4967 061c 9342     		cmp	r3, r2
 4968 061e 18D0     		beq	.L638
 4969 0620 02F55672 		add	r2, r2, #856
 4970 0624 9342     		cmp	r3, r2
 4971 0626 14D0     		beq	.L638
 4972 0628 1832     		adds	r2, r2, #24
 4973 062a 9342     		cmp	r3, r2
 4974 062c 11D0     		beq	.L638
 4975 062e 1832     		adds	r2, r2, #24
 4976 0630 9342     		cmp	r3, r2
 4977 0632 0ED0     		beq	.L638
 4978 0634 1832     		adds	r2, r2, #24
 4979 0636 9342     		cmp	r3, r2
 4980 0638 0BD0     		beq	.L638
 4981 063a 1832     		adds	r2, r2, #24
 4982 063c 9342     		cmp	r3, r2
 4983 063e 08D0     		beq	.L638
 4984 0640 1832     		adds	r2, r2, #24
ARM GAS  C:\Users\xiaofei\AppData\Local\Temp\ccEZCIhm.s 			page 88


 4985 0642 9342     		cmp	r3, r2
 4986 0644 05D0     		beq	.L638
 4987 0646 1832     		adds	r2, r2, #24
 4988 0648 9342     		cmp	r3, r2
 4989 064a 02D0     		beq	.L638
 4990 064c 1832     		adds	r2, r2, #24
 4991 064e 9342     		cmp	r3, r2
 4992 0650 04D1     		bne	.L639
 4993              	.L638:
 4994 0652 1A68     		ldr	r2, [r3]
 4995 0654 22F00802 		bic	r2, r2, #8
 4996 0658 1A60     		str	r2, [r3]
 4997 065a 03E0     		b	.L637
 4998              	.L639:
 4999 065c 1A68     		ldr	r2, [r3]
 5000 065e 22F00402 		bic	r2, r2, #4
 5001 0662 1A60     		str	r2, [r3]
 5002              	.L637:
 5003 0664 236C     		ldr	r3, [r4, #64]
 5004 0666 002B     		cmp	r3, #0
 5005 0668 00F0B780 		beq	.L593
 5006 066c 2046     		mov	r0, r4
 5007 066e 9847     		blx	r3
 5008 0670 B3E0     		b	.L593
 5009              	.L634:
 5010 0672 0225     		movs	r5, #2
 5011 0674 8D40     		lsls	r5, r5, r1
 5012 0676 2842     		tst	r0, r5
 5013 0678 61D0     		beq	.L640
 5014 067a 17F0020F 		tst	r7, #2
 5015 067e 5ED0     		beq	.L640
 5016 0680 7560     		str	r5, [r6, #4]
 5017 0682 17F4004F 		tst	r7, #32768
 5018 0686 10D0     		beq	.L641
 5019 0688 17F4803F 		tst	r7, #65536
 5020 068c 06D1     		bne	.L642
 5021 068e 636C     		ldr	r3, [r4, #68]
 5022 0690 002B     		cmp	r3, #0
 5023 0692 00F0A280 		beq	.L593
 5024 0696 2046     		mov	r0, r4
 5025 0698 9847     		blx	r3
 5026 069a 9EE0     		b	.L593
 5027              	.L642:
 5028 069c E36B     		ldr	r3, [r4, #60]
 5029 069e 002B     		cmp	r3, #0
 5030 06a0 00F09B80 		beq	.L593
 5031 06a4 2046     		mov	r0, r4
 5032 06a6 9847     		blx	r3
 5033 06a8 97E0     		b	.L593
 5034              	.L641:
 5035 06aa 17F0200F 		tst	r7, #32
 5036 06ae 40D1     		bne	.L643
 5037 06b0 2368     		ldr	r3, [r4]
 5038 06b2 4D4A     		ldr	r2, .L676+8
 5039 06b4 4D49     		ldr	r1, .L676+12
 5040 06b6 9342     		cmp	r3, r2
 5041 06b8 18BF     		it	ne
ARM GAS  C:\Users\xiaofei\AppData\Local\Temp\ccEZCIhm.s 			page 89


 5042 06ba 8B42     		cmpne	r3, r1
 5043 06bc 2AD0     		beq	.L644
 5044 06be 1832     		adds	r2, r2, #24
 5045 06c0 9342     		cmp	r3, r2
 5046 06c2 27D0     		beq	.L644
 5047 06c4 1832     		adds	r2, r2, #24
 5048 06c6 9342     		cmp	r3, r2
 5049 06c8 24D0     		beq	.L644
 5050 06ca 1832     		adds	r2, r2, #24
 5051 06cc 9342     		cmp	r3, r2
 5052 06ce 21D0     		beq	.L644
 5053 06d0 1832     		adds	r2, r2, #24
 5054 06d2 9342     		cmp	r3, r2
 5055 06d4 1ED0     		beq	.L644
 5056 06d6 1832     		adds	r2, r2, #24
 5057 06d8 9342     		cmp	r3, r2
 5058 06da 1BD0     		beq	.L644
 5059 06dc 1832     		adds	r2, r2, #24
 5060 06de 9342     		cmp	r3, r2
 5061 06e0 18D0     		beq	.L644
 5062 06e2 02F55672 		add	r2, r2, #856
 5063 06e6 9342     		cmp	r3, r2
 5064 06e8 14D0     		beq	.L644
 5065 06ea 1832     		adds	r2, r2, #24
 5066 06ec 9342     		cmp	r3, r2
 5067 06ee 11D0     		beq	.L644
 5068 06f0 1832     		adds	r2, r2, #24
 5069 06f2 9342     		cmp	r3, r2
 5070 06f4 0ED0     		beq	.L644
 5071 06f6 1832     		adds	r2, r2, #24
 5072 06f8 9342     		cmp	r3, r2
 5073 06fa 0BD0     		beq	.L644
 5074 06fc 1832     		adds	r2, r2, #24
 5075 06fe 9342     		cmp	r3, r2
 5076 0700 08D0     		beq	.L644
 5077 0702 1832     		adds	r2, r2, #24
 5078 0704 9342     		cmp	r3, r2
 5079 0706 05D0     		beq	.L644
 5080 0708 1832     		adds	r2, r2, #24
 5081 070a 9342     		cmp	r3, r2
 5082 070c 02D0     		beq	.L644
 5083 070e 1832     		adds	r2, r2, #24
 5084 0710 9342     		cmp	r3, r2
 5085 0712 04D1     		bne	.L645
 5086              	.L644:
 5087 0714 1A68     		ldr	r2, [r3]
 5088 0716 22F01402 		bic	r2, r2, #20
 5089 071a 1A60     		str	r2, [r3]
 5090 071c 03E0     		b	.L646
 5091              	.L645:
 5092 071e 1A68     		ldr	r2, [r3]
 5093 0720 22F00A02 		bic	r2, r2, #10
 5094 0724 1A60     		str	r2, [r3]
 5095              	.L646:
 5096 0726 0023     		movs	r3, #0
 5097 0728 84F83430 		strb	r3, [r4, #52]
 5098 072c 0123     		movs	r3, #1
ARM GAS  C:\Users\xiaofei\AppData\Local\Temp\ccEZCIhm.s 			page 90


 5099 072e 84F83530 		strb	r3, [r4, #53]
 5100              	.L643:
 5101 0732 E36B     		ldr	r3, [r4, #60]
 5102 0734 002B     		cmp	r3, #0
 5103 0736 50D0     		beq	.L593
 5104 0738 2046     		mov	r0, r4
 5105 073a 9847     		blx	r3
 5106 073c 4DE0     		b	.L593
 5107              	.L640:
 5108 073e 0825     		movs	r5, #8
 5109 0740 05FA01F1 		lsl	r1, r5, r1
 5110 0744 0842     		tst	r0, r1
 5111 0746 48D0     		beq	.L593
 5112 0748 17F0080F 		tst	r7, #8
 5113 074c 45D0     		beq	.L593
 5114 074e 52BB     		cbnz	r2, .L647
 5115 0750 274A     		ldr	r2, .L676+16
 5116 0752 9342     		cmp	r3, r2
 5117 0754 27D0     		beq	.L647
 5118 0756 1832     		adds	r2, r2, #24
 5119 0758 9342     		cmp	r3, r2
 5120 075a 24D0     		beq	.L647
 5121 075c 1832     		adds	r2, r2, #24
 5122 075e 9342     		cmp	r3, r2
 5123 0760 21D0     		beq	.L647
 5124 0762 1832     		adds	r2, r2, #24
 5125 0764 9342     		cmp	r3, r2
 5126 0766 1ED0     		beq	.L647
 5127 0768 1832     		adds	r2, r2, #24
 5128 076a 9342     		cmp	r3, r2
 5129 076c 1BD0     		beq	.L647
 5130 076e 1832     		adds	r2, r2, #24
 5131 0770 9342     		cmp	r3, r2
 5132 0772 18D0     		beq	.L647
 5133 0774 02F55672 		add	r2, r2, #856
 5134 0778 9342     		cmp	r3, r2
 5135 077a 14D0     		beq	.L647
 5136 077c 1832     		adds	r2, r2, #24
 5137 077e 9342     		cmp	r3, r2
 5138 0780 11D0     		beq	.L647
 5139 0782 1832     		adds	r2, r2, #24
 5140 0784 9342     		cmp	r3, r2
 5141 0786 0ED0     		beq	.L647
 5142 0788 1832     		adds	r2, r2, #24
 5143 078a 9342     		cmp	r3, r2
 5144 078c 0BD0     		beq	.L647
 5145 078e 1832     		adds	r2, r2, #24
 5146 0790 9342     		cmp	r3, r2
 5147 0792 08D0     		beq	.L647
 5148 0794 1832     		adds	r2, r2, #24
 5149 0796 9342     		cmp	r3, r2
 5150 0798 05D0     		beq	.L647
 5151 079a 1832     		adds	r2, r2, #24
 5152 079c 9342     		cmp	r3, r2
 5153 079e 02D0     		beq	.L647
 5154 07a0 1832     		adds	r2, r2, #24
 5155 07a2 9342     		cmp	r3, r2
ARM GAS  C:\Users\xiaofei\AppData\Local\Temp\ccEZCIhm.s 			page 91


 5156 07a4 04D1     		bne	.L648
 5157              	.L647:
 5158 07a6 1A68     		ldr	r2, [r3]
 5159 07a8 22F01C02 		bic	r2, r2, #28
 5160 07ac 1A60     		str	r2, [r3]
 5161 07ae 03E0     		b	.L649
 5162              	.L648:
 5163 07b0 1A68     		ldr	r2, [r3]
 5164 07b2 22F00E02 		bic	r2, r2, #14
 5165 07b6 1A60     		str	r2, [r3]
 5166              	.L649:
 5167 07b8 E36D     		ldr	r3, [r4, #92]
 5168 07ba 03F01F03 		and	r3, r3, #31
 5169 07be 0122     		movs	r2, #1
 5170 07c0 02FA03F3 		lsl	r3, r2, r3
 5171 07c4 7360     		str	r3, [r6, #4]
 5172 07c6 6265     		str	r2, [r4, #84]
 5173 07c8 0023     		movs	r3, #0
 5174 07ca 84F83430 		strb	r3, [r4, #52]
 5175 07ce 84F83520 		strb	r2, [r4, #53]
 5176 07d2 E36C     		ldr	r3, [r4, #76]
 5177 07d4 0BB1     		cbz	r3, .L593
 5178 07d6 2046     		mov	r0, r4
 5179 07d8 9847     		blx	r3
 5180              	.L593:
 5181 07da 03B0     		add	sp, sp, #12
 5182              		@ sp needed
 5183 07dc F0BD     		pop	{r4, r5, r6, r7, pc}
 5184              	.L677:
 5185 07de 00BF     		.align	2
 5186              	.L676:
 5187 07e0 1C540258 		.word	1476547612
 5188 07e4 08540258 		.word	1476547592
 5189 07e8 28000240 		.word	1073872936
 5190 07ec 10000240 		.word	1073872912
 5191 07f0 40000240 		.word	1073872960
 5193              		.section	.text.HAL_DMA_RegisterCallback,"ax",%progbits
 5194              		.align	2
 5195              		.global	HAL_DMA_RegisterCallback
 5196              		.thumb
 5197              		.thumb_func
 5199              	HAL_DMA_RegisterCallback:
 5200              		@ args = 0, pretend = 0, frame = 0
 5201              		@ frame_needed = 0, uses_anonymous_args = 0
 5202              		@ link register save eliminated.
 5203 0000 0346     		mov	r3, r0
 5204 0002 58B3     		cbz	r0, .L688
 5205 0004 90F83400 		ldrb	r0, [r0, #52]	@ zero_extendqisi2
 5206 0008 0128     		cmp	r0, #1
 5207 000a 29D0     		beq	.L689
 5208 000c 0120     		movs	r0, #1
 5209 000e 83F83400 		strb	r0, [r3, #52]
 5210 0012 93F83500 		ldrb	r0, [r3, #53]	@ zero_extendqisi2
 5211 0016 C0B2     		uxtb	r0, r0
 5212 0018 0128     		cmp	r0, #1
 5213 001a 18D1     		bne	.L690
 5214 001c 0529     		cmp	r1, #5
ARM GAS  C:\Users\xiaofei\AppData\Local\Temp\ccEZCIhm.s 			page 92


 5215 001e 18D8     		bhi	.L691
 5216 0020 DFE801F0 		tbb	[pc, r1]
 5217              	.L682:
 5218 0024 03       		.byte	(.L681-.L682)/2
 5219 0025 06       		.byte	(.L683-.L682)/2
 5220 0026 09       		.byte	(.L684-.L682)/2
 5221 0027 0C       		.byte	(.L685-.L682)/2
 5222 0028 0F       		.byte	(.L686-.L682)/2
 5223 0029 12       		.byte	(.L687-.L682)/2
 5224              		.p2align 1
 5225              	.L681:
 5226 002a DA63     		str	r2, [r3, #60]
 5227 002c 0020     		movs	r0, #0
 5228 002e 11E0     		b	.L680
 5229              	.L683:
 5230 0030 1A64     		str	r2, [r3, #64]
 5231 0032 0020     		movs	r0, #0
 5232 0034 0EE0     		b	.L680
 5233              	.L684:
 5234 0036 5A64     		str	r2, [r3, #68]
 5235 0038 0020     		movs	r0, #0
 5236 003a 0BE0     		b	.L680
 5237              	.L685:
 5238 003c 9A64     		str	r2, [r3, #72]
 5239 003e 0020     		movs	r0, #0
 5240 0040 08E0     		b	.L680
 5241              	.L686:
 5242 0042 DA64     		str	r2, [r3, #76]
 5243 0044 0020     		movs	r0, #0
 5244 0046 05E0     		b	.L680
 5245              	.L687:
 5246 0048 1A65     		str	r2, [r3, #80]
 5247 004a 0020     		movs	r0, #0
 5248 004c 02E0     		b	.L680
 5249              	.L690:
 5250 004e 0120     		movs	r0, #1
 5251 0050 00E0     		b	.L680
 5252              	.L691:
 5253 0052 0020     		movs	r0, #0
 5254              	.L680:
 5255 0054 0022     		movs	r2, #0
 5256 0056 83F83420 		strb	r2, [r3, #52]
 5257 005a 7047     		bx	lr
 5258              	.L688:
 5259 005c 0120     		movs	r0, #1
 5260 005e 7047     		bx	lr
 5261              	.L689:
 5262 0060 0220     		movs	r0, #2
 5263 0062 7047     		bx	lr
 5265              		.section	.text.HAL_DMA_UnRegisterCallback,"ax",%progbits
 5266              		.align	2
 5267              		.global	HAL_DMA_UnRegisterCallback
 5268              		.thumb
 5269              		.thumb_func
 5271              	HAL_DMA_UnRegisterCallback:
 5272              		@ args = 0, pretend = 0, frame = 0
 5273              		@ frame_needed = 0, uses_anonymous_args = 0
ARM GAS  C:\Users\xiaofei\AppData\Local\Temp\ccEZCIhm.s 			page 93


 5274              		@ link register save eliminated.
 5275 0000 0346     		mov	r3, r0
 5276 0002 0028     		cmp	r0, #0
 5277 0004 34D0     		beq	.L703
 5278 0006 90F83420 		ldrb	r2, [r0, #52]	@ zero_extendqisi2
 5279 000a 012A     		cmp	r2, #1
 5280 000c 32D0     		beq	.L704
 5281 000e 0122     		movs	r2, #1
 5282 0010 80F83420 		strb	r2, [r0, #52]
 5283 0014 90F83520 		ldrb	r2, [r0, #53]	@ zero_extendqisi2
 5284 0018 D2B2     		uxtb	r2, r2
 5285 001a 012A     		cmp	r2, #1
 5286 001c 21D1     		bne	.L705
 5287 001e 0629     		cmp	r1, #6
 5288 0020 21D8     		bhi	.L706
 5289 0022 DFE801F0 		tbb	[pc, r1]
 5290              	.L696:
 5291 0026 04       		.byte	(.L695-.L696)/2
 5292 0027 07       		.byte	(.L697-.L696)/2
 5293 0028 0A       		.byte	(.L698-.L696)/2
 5294 0029 0D       		.byte	(.L699-.L696)/2
 5295 002a 10       		.byte	(.L700-.L696)/2
 5296 002b 13       		.byte	(.L701-.L696)/2
 5297 002c 16       		.byte	(.L702-.L696)/2
 5298 002d 00       		.p2align 1
 5299              	.L695:
 5300 002e 0020     		movs	r0, #0
 5301 0030 D863     		str	r0, [r3, #60]
 5302 0032 19E0     		b	.L694
 5303              	.L697:
 5304 0034 0020     		movs	r0, #0
 5305 0036 1864     		str	r0, [r3, #64]
 5306 0038 16E0     		b	.L694
 5307              	.L698:
 5308 003a 0020     		movs	r0, #0
 5309 003c 5864     		str	r0, [r3, #68]
 5310 003e 13E0     		b	.L694
 5311              	.L699:
 5312 0040 0020     		movs	r0, #0
 5313 0042 9864     		str	r0, [r3, #72]
 5314 0044 10E0     		b	.L694
 5315              	.L700:
 5316 0046 0020     		movs	r0, #0
 5317 0048 D864     		str	r0, [r3, #76]
 5318 004a 0DE0     		b	.L694
 5319              	.L701:
 5320 004c 0020     		movs	r0, #0
 5321 004e 1865     		str	r0, [r3, #80]
 5322 0050 0AE0     		b	.L694
 5323              	.L702:
 5324 0052 0020     		movs	r0, #0
 5325 0054 D863     		str	r0, [r3, #60]
 5326 0056 1864     		str	r0, [r3, #64]
 5327 0058 5864     		str	r0, [r3, #68]
 5328 005a 9864     		str	r0, [r3, #72]
 5329 005c D864     		str	r0, [r3, #76]
 5330 005e 1865     		str	r0, [r3, #80]
ARM GAS  C:\Users\xiaofei\AppData\Local\Temp\ccEZCIhm.s 			page 94


 5331 0060 02E0     		b	.L694
 5332              	.L705:
 5333 0062 0120     		movs	r0, #1
 5334 0064 00E0     		b	.L694
 5335              	.L706:
 5336 0066 0120     		movs	r0, #1
 5337              	.L694:
 5338 0068 0022     		movs	r2, #0
 5339 006a 83F83420 		strb	r2, [r3, #52]
 5340 006e 7047     		bx	lr
 5341              	.L703:
 5342 0070 0120     		movs	r0, #1
 5343 0072 7047     		bx	lr
 5344              	.L704:
 5345 0074 0220     		movs	r0, #2
 5346 0076 7047     		bx	lr
 5348              		.section	.text.HAL_DMA_GetState,"ax",%progbits
 5349              		.align	2
 5350              		.global	HAL_DMA_GetState
 5351              		.thumb
 5352              		.thumb_func
 5354              	HAL_DMA_GetState:
 5355              		@ args = 0, pretend = 0, frame = 0
 5356              		@ frame_needed = 0, uses_anonymous_args = 0
 5357              		@ link register save eliminated.
 5358 0000 90F83500 		ldrb	r0, [r0, #53]	@ zero_extendqisi2
 5359 0004 7047     		bx	lr
 5361 0006 00BF     		.section	.text.HAL_DMA_GetError,"ax",%progbits
 5362              		.align	2
 5363              		.global	HAL_DMA_GetError
 5364              		.thumb
 5365              		.thumb_func
 5367              	HAL_DMA_GetError:
 5368              		@ args = 0, pretend = 0, frame = 0
 5369              		@ frame_needed = 0, uses_anonymous_args = 0
 5370              		@ link register save eliminated.
 5371 0000 406D     		ldr	r0, [r0, #84]
 5372 0002 7047     		bx	lr
 5374              		.section	.rodata.flagBitshiftOffset.9570,"a",%progbits
 5375              		.align	2
 5376              		.set	.LANCHOR0,. + 0
 5379              	flagBitshiftOffset.9570:
 5380 0000 00       		.byte	0
 5381 0001 06       		.byte	6
 5382 0002 10       		.byte	16
 5383 0003 16       		.byte	22
 5384 0004 00       		.byte	0
 5385 0005 06       		.byte	6
 5386 0006 10       		.byte	16
 5387 0007 16       		.byte	22
 5388              		.ident	"GCC: (GNU Tools for ARM Embedded Processors) 5.4.1 20160919 (release) [ARM/embedded-5-bran
ARM GAS  C:\Users\xiaofei\AppData\Local\Temp\ccEZCIhm.s 			page 95

