ARM GAS  C:\Users\xiaofei\AppData\Local\Temp\cczoDQMg.s 			page 1


   1              		.syntax unified
   2              		.cpu cortex-m7
   3              		.eabi_attribute 28, 1
   4              		.fpu fpv5-d16
   5              		.eabi_attribute 20, 1
   6              		.eabi_attribute 21, 1
   7              		.eabi_attribute 23, 3
   8              		.eabi_attribute 24, 1
   9              		.eabi_attribute 25, 1
  10              		.eabi_attribute 26, 1
  11              		.eabi_attribute 30, 1
  12              		.eabi_attribute 34, 1
  13              		.eabi_attribute 18, 4
  14              		.thumb
  15              		.syntax unified
  16              		.file	"stream_buffer.c"
  17              		.section	.text.prvBytesInBuffer,"ax",%progbits
  18              		.align	2
  19              		.thumb
  20              		.thumb_func
  22              	prvBytesInBuffer:
  23              		@ args = 0, pretend = 0, frame = 0
  24              		@ frame_needed = 0, uses_anonymous_args = 0
  25              		@ link register save eliminated.
  26 0000 8268     		ldr	r2, [r0, #8]
  27 0002 4368     		ldr	r3, [r0, #4]
  28 0004 1344     		add	r3, r3, r2
  29 0006 0068     		ldr	r0, [r0]
  30 0008 181A     		subs	r0, r3, r0
  31 000a 8242     		cmp	r2, r0
  32 000c 00D8     		bhi	.L2
  33 000e 801A     		subs	r0, r0, r2
  34              	.L2:
  35 0010 7047     		bx	lr
  37 0012 00BF     		.section	.text.prvInitialiseNewStreamBuffer,"ax",%progbits
  38              		.align	2
  39              		.thumb
  40              		.thumb_func
  42              	prvInitialiseNewStreamBuffer:
  43              		@ args = 4, pretend = 0, frame = 0
  44              		@ frame_needed = 0, uses_anonymous_args = 0
  45 0000 F8B5     		push	{r3, r4, r5, r6, r7, lr}
  46 0002 0446     		mov	r4, r0
  47 0004 0D46     		mov	r5, r1
  48 0006 1746     		mov	r7, r2
  49 0008 1E46     		mov	r6, r3
  50 000a 5521     		movs	r1, #85
  51 000c 2846     		mov	r0, r5
  52 000e FFF7FEFF 		bl	memset
  53 0012 8542     		cmp	r5, r0
  54 0014 08D0     		beq	.L4
  55              		.syntax unified
  56              	@ 195 "Middlewares/Third_Party/FreeRTOS/Source/portable/GCC/ARM_CM4F/portmacro.h" 1
  57 0016 4FF05003 			mov r3, #80												
  58 001a 83F31188 		msr basepri, r3											
  59 001e BFF36F8F 		isb														
  60 0022 BFF34F8F 		dsb														
ARM GAS  C:\Users\xiaofei\AppData\Local\Temp\cczoDQMg.s 			page 2


  61              	
  62              	@ 0 "" 2
  63              		.thumb
  64              		.syntax unified
  65              	.L5:
  66 0026 FEE7     		b	.L5
  67              	.L4:
  68 0028 2022     		movs	r2, #32
  69 002a 0021     		movs	r1, #0
  70 002c 2046     		mov	r0, r4
  71 002e FFF7FEFF 		bl	memset
  72 0032 A561     		str	r5, [r4, #24]
  73 0034 A760     		str	r7, [r4, #8]
  74 0036 E660     		str	r6, [r4, #12]
  75 0038 9DF81830 		ldrb	r3, [sp, #24]	@ zero_extendqisi2
  76 003c 2377     		strb	r3, [r4, #28]
  77 003e F8BD     		pop	{r3, r4, r5, r6, r7, pc}
  79              		.section	.text.prvWriteBytesToBuffer,"ax",%progbits
  80              		.align	2
  81              		.thumb
  82              		.thumb_func
  84              	prvWriteBytesToBuffer:
  85              		@ args = 0, pretend = 0, frame = 0
  86              		@ frame_needed = 0, uses_anonymous_args = 0
  87 0000 42B9     		cbnz	r2, .L8
  88              		.syntax unified
  89              	@ 195 "Middlewares/Third_Party/FreeRTOS/Source/portable/GCC/ARM_CM4F/portmacro.h" 1
  90 0002 4FF05003 			mov r3, #80												
  91 0006 83F31188 		msr basepri, r3											
  92 000a BFF36F8F 		isb														
  93 000e BFF34F8F 		dsb														
  94              	
  95              	@ 0 "" 2
  96              		.thumb
  97              		.syntax unified
  98              	.L9:
  99 0012 FEE7     		b	.L9
 100              	.L8:
 101 0014 2DE9F041 		push	{r4, r5, r6, r7, r8, lr}
 102 0018 1746     		mov	r7, r2
 103 001a 4668     		ldr	r6, [r0, #4]
 104 001c 8368     		ldr	r3, [r0, #8]
 105 001e C6EB0308 		rsb	r8, r6, r3
 106 0022 9045     		cmp	r8, r2
 107 0024 28BF     		it	cs
 108 0026 9046     		movcs	r8, r2
 109 0028 06EB0802 		add	r2, r6, r8
 110 002c 9342     		cmp	r3, r2
 111 002e 08D2     		bcs	.L10
 112              		.syntax unified
 113              	@ 195 "Middlewares/Third_Party/FreeRTOS/Source/portable/GCC/ARM_CM4F/portmacro.h" 1
 114 0030 4FF05003 			mov r3, #80												
 115 0034 83F31188 		msr basepri, r3											
 116 0038 BFF36F8F 		isb														
 117 003c BFF34F8F 		dsb														
 118              	
 119              	@ 0 "" 2
ARM GAS  C:\Users\xiaofei\AppData\Local\Temp\cczoDQMg.s 			page 3


 120              		.thumb
 121              		.syntax unified
 122              	.L11:
 123 0040 FEE7     		b	.L11
 124              	.L10:
 125 0042 0D46     		mov	r5, r1
 126 0044 0446     		mov	r4, r0
 127 0046 8069     		ldr	r0, [r0, #24]
 128 0048 4246     		mov	r2, r8
 129 004a 3044     		add	r0, r0, r6
 130 004c FFF7FEFF 		bl	memcpy
 131 0050 4745     		cmp	r7, r8
 132 0052 12D9     		bls	.L12
 133 0054 C8EB0702 		rsb	r2, r8, r7
 134 0058 A368     		ldr	r3, [r4, #8]
 135 005a 9A42     		cmp	r2, r3
 136 005c 08D9     		bls	.L13
 137              		.syntax unified
 138              	@ 195 "Middlewares/Third_Party/FreeRTOS/Source/portable/GCC/ARM_CM4F/portmacro.h" 1
 139 005e 4FF05003 			mov r3, #80												
 140 0062 83F31188 		msr basepri, r3											
 141 0066 BFF36F8F 		isb														
 142 006a BFF34F8F 		dsb														
 143              	
 144              	@ 0 "" 2
 145              		.thumb
 146              		.syntax unified
 147              	.L14:
 148 006e FEE7     		b	.L14
 149              	.L13:
 150 0070 05EB0801 		add	r1, r5, r8
 151 0074 A069     		ldr	r0, [r4, #24]
 152 0076 FFF7FEFF 		bl	memcpy
 153              	.L12:
 154 007a BB19     		adds	r3, r7, r6
 155 007c A268     		ldr	r2, [r4, #8]
 156 007e 9342     		cmp	r3, r2
 157 0080 00D3     		bcc	.L15
 158 0082 9B1A     		subs	r3, r3, r2
 159              	.L15:
 160 0084 6360     		str	r3, [r4, #4]
 161 0086 3846     		mov	r0, r7
 162 0088 BDE8F081 		pop	{r4, r5, r6, r7, r8, pc}
 164              		.section	.text.prvWriteMessageToBuffer,"ax",%progbits
 165              		.align	2
 166              		.thumb
 167              		.thumb_func
 169              	prvWriteMessageToBuffer:
 170              		@ args = 4, pretend = 0, frame = 8
 171              		@ frame_needed = 0, uses_anonymous_args = 0
 172 0000 30B5     		push	{r4, r5, lr}
 173 0002 83B0     		sub	sp, sp, #12
 174 0004 0446     		mov	r4, r0
 175 0006 0D46     		mov	r5, r1
 176 0008 0192     		str	r2, [sp, #4]
 177 000a ABB1     		cbz	r3, .L21
 178 000c 1A46     		mov	r2, r3
ARM GAS  C:\Users\xiaofei\AppData\Local\Temp\cczoDQMg.s 			page 4


 179 000e 037F     		ldrb	r3, [r0, #28]	@ zero_extendqisi2
 180 0010 13F0010F 		tst	r3, #1
 181 0014 06D1     		bne	.L19
 182 0016 019B     		ldr	r3, [sp, #4]
 183 0018 9A42     		cmp	r2, r3
 184 001a 28BF     		it	cs
 185 001c 1A46     		movcs	r2, r3
 186 001e 0192     		str	r2, [sp, #4]
 187 0020 0123     		movs	r3, #1
 188 0022 0CE0     		b	.L18
 189              	.L19:
 190 0024 069B     		ldr	r3, [sp, #24]
 191 0026 9A42     		cmp	r2, r3
 192 0028 08D3     		bcc	.L22
 193 002a 0422     		movs	r2, #4
 194 002c 0DEB0201 		add	r1, sp, r2
 195 0030 FFF7FEFF 		bl	prvWriteBytesToBuffer
 196 0034 0123     		movs	r3, #1
 197 0036 02E0     		b	.L18
 198              	.L21:
 199 0038 0023     		movs	r3, #0
 200 003a 00E0     		b	.L18
 201              	.L22:
 202 003c 0023     		movs	r3, #0
 203              	.L18:
 204 003e 2BB1     		cbz	r3, .L23
 205 0040 019A     		ldr	r2, [sp, #4]
 206 0042 2946     		mov	r1, r5
 207 0044 2046     		mov	r0, r4
 208 0046 FFF7FEFF 		bl	prvWriteBytesToBuffer
 209 004a 00E0     		b	.L20
 210              	.L23:
 211 004c 0020     		movs	r0, #0
 212              	.L20:
 213 004e 03B0     		add	sp, sp, #12
 214              		@ sp needed
 215 0050 30BD     		pop	{r4, r5, pc}
 217 0052 00BF     		.section	.text.prvReadBytesFromBuffer,"ax",%progbits
 218              		.align	2
 219              		.thumb
 220              		.thumb_func
 222              	prvReadBytesFromBuffer:
 223              		@ args = 0, pretend = 0, frame = 0
 224              		@ frame_needed = 0, uses_anonymous_args = 0
 225 0000 2DE9F843 		push	{r3, r4, r5, r6, r7, r8, r9, lr}
 226 0004 9046     		mov	r8, r2
 227 0006 9A42     		cmp	r2, r3
 228 0008 28BF     		it	cs
 229 000a 9846     		movcs	r8, r3
 230 000c B8F1000F 		cmp	r8, #0
 231 0010 3ED0     		beq	.L26
 232 0012 0468     		ldr	r4, [r0]
 233 0014 8368     		ldr	r3, [r0, #8]
 234 0016 1F1B     		subs	r7, r3, r4
 235 0018 4745     		cmp	r7, r8
 236 001a 28BF     		it	cs
 237 001c 4746     		movcs	r7, r8
ARM GAS  C:\Users\xiaofei\AppData\Local\Temp\cczoDQMg.s 			page 5


 238 001e BA42     		cmp	r2, r7
 239 0020 08D2     		bcs	.L27
 240              		.syntax unified
 241              	@ 195 "Middlewares/Third_Party/FreeRTOS/Source/portable/GCC/ARM_CM4F/portmacro.h" 1
 242 0022 4FF05003 			mov r3, #80												
 243 0026 83F31188 		msr basepri, r3											
 244 002a BFF36F8F 		isb														
 245 002e BFF34F8F 		dsb														
 246              	
 247              	@ 0 "" 2
 248              		.thumb
 249              		.syntax unified
 250              	.L28:
 251 0032 FEE7     		b	.L28
 252              	.L27:
 253 0034 E519     		adds	r5, r4, r7
 254 0036 AB42     		cmp	r3, r5
 255 0038 08D2     		bcs	.L29
 256              		.syntax unified
 257              	@ 195 "Middlewares/Third_Party/FreeRTOS/Source/portable/GCC/ARM_CM4F/portmacro.h" 1
 258 003a 4FF05003 			mov r3, #80												
 259 003e 83F31188 		msr basepri, r3											
 260 0042 BFF36F8F 		isb														
 261 0046 BFF34F8F 		dsb														
 262              	
 263              	@ 0 "" 2
 264              		.thumb
 265              		.syntax unified
 266              	.L30:
 267 004a FEE7     		b	.L30
 268              	.L29:
 269 004c 9146     		mov	r9, r2
 270 004e 0E46     		mov	r6, r1
 271 0050 0546     		mov	r5, r0
 272 0052 8169     		ldr	r1, [r0, #24]
 273 0054 3A46     		mov	r2, r7
 274 0056 2144     		add	r1, r1, r4
 275 0058 3046     		mov	r0, r6
 276 005a FFF7FEFF 		bl	memcpy
 277 005e B845     		cmp	r8, r7
 278 0060 10D9     		bls	.L31
 279 0062 C145     		cmp	r9, r8
 280 0064 08D2     		bcs	.L32
 281              		.syntax unified
 282              	@ 195 "Middlewares/Third_Party/FreeRTOS/Source/portable/GCC/ARM_CM4F/portmacro.h" 1
 283 0066 4FF05003 			mov r3, #80												
 284 006a 83F31188 		msr basepri, r3											
 285 006e BFF36F8F 		isb														
 286 0072 BFF34F8F 		dsb														
 287              	
 288              	@ 0 "" 2
 289              		.thumb
 290              		.syntax unified
 291              	.L33:
 292 0076 FEE7     		b	.L33
 293              	.L32:
 294 0078 C7EB0802 		rsb	r2, r7, r8
ARM GAS  C:\Users\xiaofei\AppData\Local\Temp\cczoDQMg.s 			page 6


 295 007c A969     		ldr	r1, [r5, #24]
 296 007e F019     		adds	r0, r6, r7
 297 0080 FFF7FEFF 		bl	memcpy
 298              	.L31:
 299 0084 4444     		add	r4, r4, r8
 300 0086 AB68     		ldr	r3, [r5, #8]
 301 0088 9C42     		cmp	r4, r3
 302 008a 00D3     		bcc	.L34
 303 008c E41A     		subs	r4, r4, r3
 304              	.L34:
 305 008e 2C60     		str	r4, [r5]
 306              	.L26:
 307 0090 4046     		mov	r0, r8
 308 0092 BDE8F883 		pop	{r3, r4, r5, r6, r7, r8, r9, pc}
 310 0096 00BF     		.section	.text.prvReadMessageFromBuffer,"ax",%progbits
 311              		.align	2
 312              		.thumb
 313              		.thumb_func
 315              	prvReadMessageFromBuffer:
 316              		@ args = 4, pretend = 0, frame = 8
 317              		@ frame_needed = 0, uses_anonymous_args = 0
 318 0000 2DE9F043 		push	{r4, r5, r6, r7, r8, r9, lr}
 319 0004 83B0     		sub	sp, sp, #12
 320 0006 0546     		mov	r5, r0
 321 0008 8846     		mov	r8, r1
 322 000a 1646     		mov	r6, r2
 323 000c 1C46     		mov	r4, r3
 324 000e 0A9F     		ldr	r7, [sp, #40]
 325 0010 77B1     		cbz	r7, .L37
 326 0012 D0F80090 		ldr	r9, [r0]
 327 0016 3A46     		mov	r2, r7
 328 0018 01A9     		add	r1, sp, #4
 329 001a FFF7FEFF 		bl	prvReadBytesFromBuffer
 330 001e 019B     		ldr	r3, [sp, #4]
 331 0020 E41B     		subs	r4, r4, r7
 332 0022 B342     		cmp	r3, r6
 333 0024 03D9     		bls	.L38
 334 0026 C5F80090 		str	r9, [r5]
 335 002a 0026     		movs	r6, #0
 336 002c 00E0     		b	.L37
 337              	.L38:
 338 002e 1E46     		mov	r6, r3
 339              	.L37:
 340 0030 2346     		mov	r3, r4
 341 0032 3246     		mov	r2, r6
 342 0034 4146     		mov	r1, r8
 343 0036 2846     		mov	r0, r5
 344 0038 FFF7FEFF 		bl	prvReadBytesFromBuffer
 345 003c 03B0     		add	sp, sp, #12
 346              		@ sp needed
 347 003e BDE8F083 		pop	{r4, r5, r6, r7, r8, r9, pc}
 349 0042 00BF     		.section	.text.xStreamBufferGenericCreate,"ax",%progbits
 350              		.align	2
 351              		.global	xStreamBufferGenericCreate
 352              		.thumb
 353              		.thumb_func
 355              	xStreamBufferGenericCreate:
ARM GAS  C:\Users\xiaofei\AppData\Local\Temp\cczoDQMg.s 			page 7


 356              		@ args = 0, pretend = 0, frame = 0
 357              		@ frame_needed = 0, uses_anonymous_args = 0
 358 0000 F0B5     		push	{r4, r5, r6, r7, lr}
 359 0002 83B0     		sub	sp, sp, #12
 360 0004 0C46     		mov	r4, r1
 361 0006 012A     		cmp	r2, #1
 362 0008 0AD1     		bne	.L41
 363 000a 0428     		cmp	r0, #4
 364 000c 12D8     		bhi	.L49
 365              		.syntax unified
 366              	@ 195 "Middlewares/Third_Party/FreeRTOS/Source/portable/GCC/ARM_CM4F/portmacro.h" 1
 367 000e 4FF05003 			mov r3, #80												
 368 0012 83F31188 		msr basepri, r3											
 369 0016 BFF36F8F 		isb														
 370 001a BFF34F8F 		dsb														
 371              	
 372              	@ 0 "" 2
 373              		.thumb
 374              		.syntax unified
 375              	.L43:
 376 001e FEE7     		b	.L43
 377              	.L41:
 378 0020 50B9     		cbnz	r0, .L50
 379              		.syntax unified
 380              	@ 195 "Middlewares/Third_Party/FreeRTOS/Source/portable/GCC/ARM_CM4F/portmacro.h" 1
 381 0022 4FF05003 			mov r3, #80												
 382 0026 83F31188 		msr basepri, r3											
 383 002a BFF36F8F 		isb														
 384 002e BFF34F8F 		dsb														
 385              	
 386              	@ 0 "" 2
 387              		.thumb
 388              		.syntax unified
 389              	.L44:
 390 0032 FEE7     		b	.L44
 391              	.L49:
 392 0034 0126     		movs	r6, #1
 393 0036 00E0     		b	.L42
 394              	.L50:
 395 0038 0026     		movs	r6, #0
 396              	.L42:
 397 003a A042     		cmp	r0, r4
 398 003c 08D2     		bcs	.L45
 399              		.syntax unified
 400              	@ 195 "Middlewares/Third_Party/FreeRTOS/Source/portable/GCC/ARM_CM4F/portmacro.h" 1
 401 003e 4FF05003 			mov r3, #80												
 402 0042 83F31188 		msr basepri, r3											
 403 0046 BFF36F8F 		isb														
 404 004a BFF34F8F 		dsb														
 405              	
 406              	@ 0 "" 2
 407              		.thumb
 408              		.syntax unified
 409              	.L46:
 410 004e FEE7     		b	.L46
 411              	.L45:
 412 0050 04B9     		cbnz	r4, .L47
ARM GAS  C:\Users\xiaofei\AppData\Local\Temp\cczoDQMg.s 			page 8


 413 0052 0124     		movs	r4, #1
 414              	.L47:
 415 0054 471C     		adds	r7, r0, #1
 416 0056 2130     		adds	r0, r0, #33
 417 0058 FFF7FEFF 		bl	pvPortMalloc
 418 005c 0546     		mov	r5, r0
 419 005e 30B1     		cbz	r0, .L48
 420 0060 0096     		str	r6, [sp]
 421 0062 2346     		mov	r3, r4
 422 0064 3A46     		mov	r2, r7
 423 0066 00F12001 		add	r1, r0, #32
 424 006a FFF7FEFF 		bl	prvInitialiseNewStreamBuffer
 425              	.L48:
 426 006e 2846     		mov	r0, r5
 427 0070 03B0     		add	sp, sp, #12
 428              		@ sp needed
 429 0072 F0BD     		pop	{r4, r5, r6, r7, pc}
 431              		.section	.text.xStreamBufferGenericCreateStatic,"ax",%progbits
 432              		.align	2
 433              		.global	xStreamBufferGenericCreateStatic
 434              		.thumb
 435              		.thumb_func
 437              	xStreamBufferGenericCreateStatic:
 438              		@ args = 4, pretend = 0, frame = 8
 439              		@ frame_needed = 0, uses_anonymous_args = 0
 440 0000 30B5     		push	{r4, r5, lr}
 441 0002 85B0     		sub	sp, sp, #20
 442 0004 089C     		ldr	r4, [sp, #32]
 443 0006 43B9     		cbnz	r3, .L54
 444              		.syntax unified
 445              	@ 195 "Middlewares/Third_Party/FreeRTOS/Source/portable/GCC/ARM_CM4F/portmacro.h" 1
 446 0008 4FF05003 			mov r3, #80												
 447 000c 83F31188 		msr basepri, r3											
 448 0010 BFF36F8F 		isb														
 449 0014 BFF34F8F 		dsb														
 450              	
 451              	@ 0 "" 2
 452              		.thumb
 453              		.syntax unified
 454              	.L55:
 455 0018 FEE7     		b	.L55
 456              	.L54:
 457 001a 1D46     		mov	r5, r3
 458 001c 44B9     		cbnz	r4, .L56
 459              		.syntax unified
 460              	@ 195 "Middlewares/Third_Party/FreeRTOS/Source/portable/GCC/ARM_CM4F/portmacro.h" 1
 461 001e 4FF05003 			mov r3, #80												
 462 0022 83F31188 		msr basepri, r3											
 463 0026 BFF36F8F 		isb														
 464 002a BFF34F8F 		dsb														
 465              	
 466              	@ 0 "" 2
 467              		.thumb
 468              		.syntax unified
 469              	.L57:
 470 002e FEE7     		b	.L57
 471              	.L56:
ARM GAS  C:\Users\xiaofei\AppData\Local\Temp\cczoDQMg.s 			page 9


 472 0030 8142     		cmp	r1, r0
 473 0032 08D9     		bls	.L58
 474              		.syntax unified
 475              	@ 195 "Middlewares/Third_Party/FreeRTOS/Source/portable/GCC/ARM_CM4F/portmacro.h" 1
 476 0034 4FF05003 			mov r3, #80												
 477 0038 83F31188 		msr basepri, r3											
 478 003c BFF36F8F 		isb														
 479 0040 BFF34F8F 		dsb														
 480              	
 481              	@ 0 "" 2
 482              		.thumb
 483              		.syntax unified
 484              	.L59:
 485 0044 FEE7     		b	.L59
 486              	.L58:
 487 0046 01B9     		cbnz	r1, .L60
 488 0048 0121     		movs	r1, #1
 489              	.L60:
 490 004a 0AB1     		cbz	r2, .L68
 491 004c 0323     		movs	r3, #3
 492 004e 00E0     		b	.L61
 493              	.L68:
 494 0050 0223     		movs	r3, #2
 495              	.L61:
 496 0052 0428     		cmp	r0, #4
 497 0054 08D8     		bhi	.L62
 498              		.syntax unified
 499              	@ 195 "Middlewares/Third_Party/FreeRTOS/Source/portable/GCC/ARM_CM4F/portmacro.h" 1
 500 0056 4FF05003 			mov r3, #80												
 501 005a 83F31188 		msr basepri, r3											
 502 005e BFF36F8F 		isb														
 503 0062 BFF34F8F 		dsb														
 504              	
 505              	@ 0 "" 2
 506              		.thumb
 507              		.syntax unified
 508              	.L63:
 509 0066 FEE7     		b	.L63
 510              	.L62:
 511 0068 2022     		movs	r2, #32
 512 006a 0392     		str	r2, [sp, #12]
 513 006c 039A     		ldr	r2, [sp, #12]
 514 006e 202A     		cmp	r2, #32
 515 0070 08D0     		beq	.L64
 516              		.syntax unified
 517              	@ 195 "Middlewares/Third_Party/FreeRTOS/Source/portable/GCC/ARM_CM4F/portmacro.h" 1
 518 0072 4FF05003 			mov r3, #80												
 519 0076 83F31188 		msr basepri, r3											
 520 007a BFF36F8F 		isb														
 521 007e BFF34F8F 		dsb														
 522              	
 523              	@ 0 "" 2
 524              		.thumb
 525              		.syntax unified
 526              	.L65:
 527 0082 FEE7     		b	.L65
 528              	.L64:
ARM GAS  C:\Users\xiaofei\AppData\Local\Temp\cczoDQMg.s 			page 10


 529 0084 002D     		cmp	r5, #0
 530 0086 18BF     		it	ne
 531 0088 002C     		cmpne	r4, #0
 532 008a 0CD0     		beq	.L69
 533 008c 0093     		str	r3, [sp]
 534 008e 0B46     		mov	r3, r1
 535 0090 0246     		mov	r2, r0
 536 0092 2946     		mov	r1, r5
 537 0094 2046     		mov	r0, r4
 538 0096 FFF7FEFF 		bl	prvInitialiseNewStreamBuffer
 539 009a 237F     		ldrb	r3, [r4, #28]	@ zero_extendqisi2
 540 009c 43F00203 		orr	r3, r3, #2
 541 00a0 2377     		strb	r3, [r4, #28]
 542 00a2 2046     		mov	r0, r4
 543 00a4 00E0     		b	.L66
 544              	.L69:
 545 00a6 0020     		movs	r0, #0
 546              	.L66:
 547 00a8 05B0     		add	sp, sp, #20
 548              		@ sp needed
 549 00aa 30BD     		pop	{r4, r5, pc}
 551              		.section	.text.vStreamBufferDelete,"ax",%progbits
 552              		.align	2
 553              		.global	vStreamBufferDelete
 554              		.thumb
 555              		.thumb_func
 557              	vStreamBufferDelete:
 558              		@ args = 0, pretend = 0, frame = 0
 559              		@ frame_needed = 0, uses_anonymous_args = 0
 560 0000 08B5     		push	{r3, lr}
 561 0002 40B9     		cbnz	r0, .L72
 562              		.syntax unified
 563              	@ 195 "Middlewares/Third_Party/FreeRTOS/Source/portable/GCC/ARM_CM4F/portmacro.h" 1
 564 0004 4FF05003 			mov r3, #80												
 565 0008 83F31188 		msr basepri, r3											
 566 000c BFF36F8F 		isb														
 567 0010 BFF34F8F 		dsb														
 568              	
 569              	@ 0 "" 2
 570              		.thumb
 571              		.syntax unified
 572              	.L73:
 573 0014 FEE7     		b	.L73
 574              	.L72:
 575 0016 037F     		ldrb	r3, [r0, #28]	@ zero_extendqisi2
 576 0018 13F0020F 		tst	r3, #2
 577 001c 02D1     		bne	.L74
 578 001e FFF7FEFF 		bl	vPortFree
 579 0022 08BD     		pop	{r3, pc}
 580              	.L74:
 581 0024 2022     		movs	r2, #32
 582 0026 0021     		movs	r1, #0
 583 0028 FFF7FEFF 		bl	memset
 584 002c 08BD     		pop	{r3, pc}
 586 002e 00BF     		.section	.text.xStreamBufferReset,"ax",%progbits
 587              		.align	2
 588              		.global	xStreamBufferReset
ARM GAS  C:\Users\xiaofei\AppData\Local\Temp\cczoDQMg.s 			page 11


 589              		.thumb
 590              		.thumb_func
 592              	xStreamBufferReset:
 593              		@ args = 0, pretend = 0, frame = 0
 594              		@ frame_needed = 0, uses_anonymous_args = 0
 595 0000 40B9     		cbnz	r0, .L78
 596              		.syntax unified
 597              	@ 195 "Middlewares/Third_Party/FreeRTOS/Source/portable/GCC/ARM_CM4F/portmacro.h" 1
 598 0002 4FF05003 			mov r3, #80												
 599 0006 83F31188 		msr basepri, r3											
 600 000a BFF36F8F 		isb														
 601 000e BFF34F8F 		dsb														
 602              	
 603              	@ 0 "" 2
 604              		.thumb
 605              		.syntax unified
 606              	.L79:
 607 0012 FEE7     		b	.L79
 608              	.L78:
 609 0014 10B5     		push	{r4, lr}
 610 0016 82B0     		sub	sp, sp, #8
 611 0018 0446     		mov	r4, r0
 612 001a FFF7FEFF 		bl	vPortEnterCritical
 613 001e 2369     		ldr	r3, [r4, #16]
 614 0020 5BB9     		cbnz	r3, .L81
 615 0022 6369     		ldr	r3, [r4, #20]
 616 0024 5BB9     		cbnz	r3, .L82
 617 0026 E368     		ldr	r3, [r4, #12]
 618 0028 A268     		ldr	r2, [r4, #8]
 619 002a A169     		ldr	r1, [r4, #24]
 620 002c 207F     		ldrb	r0, [r4, #28]	@ zero_extendqisi2
 621 002e 0090     		str	r0, [sp]
 622 0030 2046     		mov	r0, r4
 623 0032 FFF7FEFF 		bl	prvInitialiseNewStreamBuffer
 624 0036 0124     		movs	r4, #1
 625 0038 02E0     		b	.L80
 626              	.L81:
 627 003a 0024     		movs	r4, #0
 628 003c 00E0     		b	.L80
 629              	.L82:
 630 003e 0024     		movs	r4, #0
 631              	.L80:
 632 0040 FFF7FEFF 		bl	vPortExitCritical
 633 0044 2046     		mov	r0, r4
 634 0046 02B0     		add	sp, sp, #8
 635              		@ sp needed
 636 0048 10BD     		pop	{r4, pc}
 638 004a 00BF     		.section	.text.xStreamBufferSetTriggerLevel,"ax",%progbits
 639              		.align	2
 640              		.global	xStreamBufferSetTriggerLevel
 641              		.thumb
 642              		.thumb_func
 644              	xStreamBufferSetTriggerLevel:
 645              		@ args = 0, pretend = 0, frame = 0
 646              		@ frame_needed = 0, uses_anonymous_args = 0
 647              		@ link register save eliminated.
 648 0000 0346     		mov	r3, r0
ARM GAS  C:\Users\xiaofei\AppData\Local\Temp\cczoDQMg.s 			page 12


 649 0002 40B9     		cbnz	r0, .L85
 650              		.syntax unified
 651              	@ 195 "Middlewares/Third_Party/FreeRTOS/Source/portable/GCC/ARM_CM4F/portmacro.h" 1
 652 0004 4FF05003 			mov r3, #80												
 653 0008 83F31188 		msr basepri, r3											
 654 000c BFF36F8F 		isb														
 655 0010 BFF34F8F 		dsb														
 656              	
 657              	@ 0 "" 2
 658              		.thumb
 659              		.syntax unified
 660              	.L86:
 661 0014 FEE7     		b	.L86
 662              	.L85:
 663 0016 01B9     		cbnz	r1, .L87
 664 0018 0121     		movs	r1, #1
 665              	.L87:
 666 001a 9A68     		ldr	r2, [r3, #8]
 667 001c 9142     		cmp	r1, r2
 668 001e 02D8     		bhi	.L90
 669 0020 D960     		str	r1, [r3, #12]
 670 0022 0120     		movs	r0, #1
 671 0024 7047     		bx	lr
 672              	.L90:
 673 0026 0020     		movs	r0, #0
 674 0028 7047     		bx	lr
 676 002a 00BF     		.section	.text.xStreamBufferSpacesAvailable,"ax",%progbits
 677              		.align	2
 678              		.global	xStreamBufferSpacesAvailable
 679              		.thumb
 680              		.thumb_func
 682              	xStreamBufferSpacesAvailable:
 683              		@ args = 0, pretend = 0, frame = 0
 684              		@ frame_needed = 0, uses_anonymous_args = 0
 685              		@ link register save eliminated.
 686 0000 40B9     		cbnz	r0, .L92
 687              		.syntax unified
 688              	@ 195 "Middlewares/Third_Party/FreeRTOS/Source/portable/GCC/ARM_CM4F/portmacro.h" 1
 689 0002 4FF05003 			mov r3, #80												
 690 0006 83F31188 		msr basepri, r3											
 691 000a BFF36F8F 		isb														
 692 000e BFF34F8F 		dsb														
 693              	
 694              	@ 0 "" 2
 695              		.thumb
 696              		.syntax unified
 697              	.L93:
 698 0012 FEE7     		b	.L93
 699              	.L92:
 700 0014 8268     		ldr	r2, [r0, #8]
 701 0016 0368     		ldr	r3, [r0]
 702 0018 1344     		add	r3, r3, r2
 703 001a 4068     		ldr	r0, [r0, #4]
 704 001c 181A     		subs	r0, r3, r0
 705 001e 0138     		subs	r0, r0, #1
 706 0020 8242     		cmp	r2, r0
 707 0022 00D8     		bhi	.L94
ARM GAS  C:\Users\xiaofei\AppData\Local\Temp\cczoDQMg.s 			page 13


 708 0024 801A     		subs	r0, r0, r2
 709              	.L94:
 710 0026 7047     		bx	lr
 712              		.section	.text.xStreamBufferBytesAvailable,"ax",%progbits
 713              		.align	2
 714              		.global	xStreamBufferBytesAvailable
 715              		.thumb
 716              		.thumb_func
 718              	xStreamBufferBytesAvailable:
 719              		@ args = 0, pretend = 0, frame = 0
 720              		@ frame_needed = 0, uses_anonymous_args = 0
 721 0000 08B5     		push	{r3, lr}
 722 0002 40B9     		cbnz	r0, .L96
 723              		.syntax unified
 724              	@ 195 "Middlewares/Third_Party/FreeRTOS/Source/portable/GCC/ARM_CM4F/portmacro.h" 1
 725 0004 4FF05003 			mov r3, #80												
 726 0008 83F31188 		msr basepri, r3											
 727 000c BFF36F8F 		isb														
 728 0010 BFF34F8F 		dsb														
 729              	
 730              	@ 0 "" 2
 731              		.thumb
 732              		.syntax unified
 733              	.L97:
 734 0014 FEE7     		b	.L97
 735              	.L96:
 736 0016 FFF7FEFF 		bl	prvBytesInBuffer
 737 001a 08BD     		pop	{r3, pc}
 739              		.section	.text.xStreamBufferSend,"ax",%progbits
 740              		.align	2
 741              		.global	xStreamBufferSend
 742              		.thumb
 743              		.thumb_func
 745              	xStreamBufferSend:
 746              		@ args = 0, pretend = 0, frame = 16
 747              		@ frame_needed = 0, uses_anonymous_args = 0
 748 0000 2DE9F043 		push	{r4, r5, r6, r7, r8, r9, lr}
 749 0004 87B0     		sub	sp, sp, #28
 750 0006 0393     		str	r3, [sp, #12]
 751 0008 41B9     		cbnz	r1, .L100
 752              		.syntax unified
 753              	@ 195 "Middlewares/Third_Party/FreeRTOS/Source/portable/GCC/ARM_CM4F/portmacro.h" 1
 754 000a 4FF05003 			mov r3, #80												
 755 000e 83F31188 		msr basepri, r3											
 756 0012 BFF36F8F 		isb														
 757 0016 BFF34F8F 		dsb														
 758              	
 759              	@ 0 "" 2
 760              		.thumb
 761              		.syntax unified
 762              	.L101:
 763 001a FEE7     		b	.L101
 764              	.L100:
 765 001c 8846     		mov	r8, r1
 766 001e 40B9     		cbnz	r0, .L102
 767              		.syntax unified
 768              	@ 195 "Middlewares/Third_Party/FreeRTOS/Source/portable/GCC/ARM_CM4F/portmacro.h" 1
ARM GAS  C:\Users\xiaofei\AppData\Local\Temp\cczoDQMg.s 			page 14


 769 0020 4FF05003 			mov r3, #80												
 770 0024 83F31188 		msr basepri, r3											
 771 0028 BFF36F8F 		isb														
 772 002c BFF34F8F 		dsb														
 773              	
 774              	@ 0 "" 2
 775              		.thumb
 776              		.syntax unified
 777              	.L103:
 778 0030 FEE7     		b	.L103
 779              	.L102:
 780 0032 037F     		ldrb	r3, [r0, #28]	@ zero_extendqisi2
 781 0034 13F0010F 		tst	r3, #1
 782 0038 0BD0     		beq	.L114
 783 003a 171D     		adds	r7, r2, #4
 784 003c BA42     		cmp	r2, r7
 785 003e 09D3     		bcc	.L104
 786              		.syntax unified
 787              	@ 195 "Middlewares/Third_Party/FreeRTOS/Source/portable/GCC/ARM_CM4F/portmacro.h" 1
 788 0040 4FF05003 			mov r3, #80												
 789 0044 83F31188 		msr basepri, r3											
 790 0048 BFF36F8F 		isb														
 791 004c BFF34F8F 		dsb														
 792              	
 793              	@ 0 "" 2
 794              		.thumb
 795              		.syntax unified
 796              	.L105:
 797 0050 FEE7     		b	.L105
 798              	.L114:
 799 0052 1746     		mov	r7, r2
 800              	.L104:
 801 0054 1646     		mov	r6, r2
 802 0056 0446     		mov	r4, r0
 803 0058 039B     		ldr	r3, [sp, #12]
 804 005a 93B3     		cbz	r3, .L115
 805 005c 04A8     		add	r0, sp, #16
 806 005e FFF7FEFF 		bl	vTaskSetTimeOutState
 807              	.L110:
 808 0062 FFF7FEFF 		bl	vPortEnterCritical
 809 0066 2046     		mov	r0, r4
 810 0068 FFF7FEFF 		bl	xStreamBufferSpacesAvailable
 811 006c 0546     		mov	r5, r0
 812 006e 8742     		cmp	r7, r0
 813 0070 24D9     		bls	.L107
 814 0072 0020     		movs	r0, #0
 815 0074 FFF7FEFF 		bl	xTaskNotifyStateClear
 816 0078 6369     		ldr	r3, [r4, #20]
 817 007a 43B1     		cbz	r3, .L108
 818              		.syntax unified
 819              	@ 195 "Middlewares/Third_Party/FreeRTOS/Source/portable/GCC/ARM_CM4F/portmacro.h" 1
 820 007c 4FF05003 			mov r3, #80												
 821 0080 83F31188 		msr basepri, r3											
 822 0084 BFF36F8F 		isb														
 823 0088 BFF34F8F 		dsb														
 824              	
 825              	@ 0 "" 2
ARM GAS  C:\Users\xiaofei\AppData\Local\Temp\cczoDQMg.s 			page 15


 826              		.thumb
 827              		.syntax unified
 828              	.L109:
 829 008c FEE7     		b	.L109
 830              	.L108:
 831 008e FFF7FEFF 		bl	xTaskGetCurrentTaskHandle
 832 0092 6061     		str	r0, [r4, #20]
 833 0094 FFF7FEFF 		bl	vPortExitCritical
 834 0098 0DF11809 		add	r9, sp, #24
 835 009c 59F80C3D 		ldr	r3, [r9, #-12]!
 836 00a0 0022     		movs	r2, #0
 837 00a2 1146     		mov	r1, r2
 838 00a4 1046     		mov	r0, r2
 839 00a6 FFF7FEFF 		bl	xTaskNotifyWait
 840 00aa 0023     		movs	r3, #0
 841 00ac 6361     		str	r3, [r4, #20]
 842 00ae 4946     		mov	r1, r9
 843 00b0 04A8     		add	r0, sp, #16
 844 00b2 FFF7FEFF 		bl	xTaskCheckForTimeOut
 845 00b6 0028     		cmp	r0, #0
 846 00b8 D3D0     		beq	.L110
 847 00ba 03E0     		b	.L106
 848              	.L107:
 849 00bc FFF7FEFF 		bl	vPortExitCritical
 850 00c0 00E0     		b	.L106
 851              	.L115:
 852 00c2 0025     		movs	r5, #0
 853              	.L106:
 854 00c4 1DB9     		cbnz	r5, .L111
 855 00c6 2046     		mov	r0, r4
 856 00c8 FFF7FEFF 		bl	xStreamBufferSpacesAvailable
 857 00cc 0546     		mov	r5, r0
 858              	.L111:
 859 00ce 0097     		str	r7, [sp]
 860 00d0 2B46     		mov	r3, r5
 861 00d2 3246     		mov	r2, r6
 862 00d4 4146     		mov	r1, r8
 863 00d6 2046     		mov	r0, r4
 864 00d8 FFF7FEFF 		bl	prvWriteMessageToBuffer
 865 00dc 0546     		mov	r5, r0
 866 00de 98B1     		cbz	r0, .L112
 867 00e0 2046     		mov	r0, r4
 868 00e2 FFF7FEFF 		bl	prvBytesInBuffer
 869 00e6 E368     		ldr	r3, [r4, #12]
 870 00e8 9842     		cmp	r0, r3
 871 00ea 0DD3     		bcc	.L112
 872 00ec FFF7FEFF 		bl	vTaskSuspendAll
 873 00f0 2369     		ldr	r3, [r4, #16]
 874 00f2 3BB1     		cbz	r3, .L113
 875 00f4 2069     		ldr	r0, [r4, #16]
 876 00f6 0023     		movs	r3, #0
 877 00f8 1A46     		mov	r2, r3
 878 00fa 1946     		mov	r1, r3
 879 00fc FFF7FEFF 		bl	xTaskGenericNotify
 880 0100 0023     		movs	r3, #0
 881 0102 2361     		str	r3, [r4, #16]
 882              	.L113:
ARM GAS  C:\Users\xiaofei\AppData\Local\Temp\cczoDQMg.s 			page 16


 883 0104 FFF7FEFF 		bl	xTaskResumeAll
 884              	.L112:
 885 0108 2846     		mov	r0, r5
 886 010a 07B0     		add	sp, sp, #28
 887              		@ sp needed
 888 010c BDE8F083 		pop	{r4, r5, r6, r7, r8, r9, pc}
 890              		.section	.text.xStreamBufferSendFromISR,"ax",%progbits
 891              		.align	2
 892              		.global	xStreamBufferSendFromISR
 893              		.thumb
 894              		.thumb_func
 896              	xStreamBufferSendFromISR:
 897              		@ args = 0, pretend = 0, frame = 0
 898              		@ frame_needed = 0, uses_anonymous_args = 0
 899 0000 41B9     		cbnz	r1, .L118
 900              		.syntax unified
 901              	@ 195 "Middlewares/Third_Party/FreeRTOS/Source/portable/GCC/ARM_CM4F/portmacro.h" 1
 902 0002 4FF05003 			mov r3, #80												
 903 0006 83F31188 		msr basepri, r3											
 904 000a BFF36F8F 		isb														
 905 000e BFF34F8F 		dsb														
 906              	
 907              	@ 0 "" 2
 908              		.thumb
 909              		.syntax unified
 910              	.L119:
 911 0012 FEE7     		b	.L119
 912              	.L118:
 913 0014 2DE9F041 		push	{r4, r5, r6, r7, r8, lr}
 914 0018 82B0     		sub	sp, sp, #8
 915 001a 0E46     		mov	r6, r1
 916 001c 40B9     		cbnz	r0, .L120
 917              		.syntax unified
 918              	@ 195 "Middlewares/Third_Party/FreeRTOS/Source/portable/GCC/ARM_CM4F/portmacro.h" 1
 919 001e 4FF05003 			mov r3, #80												
 920 0022 83F31188 		msr basepri, r3											
 921 0026 BFF36F8F 		isb														
 922 002a BFF34F8F 		dsb														
 923              	
 924              	@ 0 "" 2
 925              		.thumb
 926              		.syntax unified
 927              	.L121:
 928 002e FEE7     		b	.L121
 929              	.L120:
 930 0030 017F     		ldrb	r1, [r0, #28]	@ zero_extendqisi2
 931 0032 11F0010F 		tst	r1, #1
 932 0036 02D0     		beq	.L125
 933 0038 02F10408 		add	r8, r2, #4
 934 003c 00E0     		b	.L122
 935              	.L125:
 936 003e 9046     		mov	r8, r2
 937              	.L122:
 938 0040 1F46     		mov	r7, r3
 939 0042 1546     		mov	r5, r2
 940 0044 0446     		mov	r4, r0
 941 0046 FFF7FEFF 		bl	xStreamBufferSpacesAvailable
ARM GAS  C:\Users\xiaofei\AppData\Local\Temp\cczoDQMg.s 			page 17


 942 004a CDF80080 		str	r8, [sp]
 943 004e 0346     		mov	r3, r0
 944 0050 2A46     		mov	r2, r5
 945 0052 3146     		mov	r1, r6
 946 0054 2046     		mov	r0, r4
 947 0056 FFF7FEFF 		bl	prvWriteMessageToBuffer
 948 005a 0546     		mov	r5, r0
 949 005c E0B1     		cbz	r0, .L123
 950 005e 2046     		mov	r0, r4
 951 0060 FFF7FEFF 		bl	prvBytesInBuffer
 952 0064 E368     		ldr	r3, [r4, #12]
 953 0066 9842     		cmp	r0, r3
 954 0068 16D3     		bcc	.L123
 955              		.syntax unified
 956              	@ 211 "Middlewares/Third_Party/FreeRTOS/Source/portable/GCC/ARM_CM4F/portmacro.h" 1
 957 006a EFF31186 			mrs r6, basepri											
 958 006e 4FF05003 		mov r3, #80												
 959 0072 83F31188 		msr basepri, r3											
 960 0076 BFF36F8F 		isb														
 961 007a BFF34F8F 		dsb														
 962              	
 963              	@ 0 "" 2
 964              		.thumb
 965              		.syntax unified
 966 007e 2369     		ldr	r3, [r4, #16]
 967 0080 43B1     		cbz	r3, .L124
 968 0082 2069     		ldr	r0, [r4, #16]
 969 0084 0097     		str	r7, [sp]
 970 0086 0023     		movs	r3, #0
 971 0088 1A46     		mov	r2, r3
 972 008a 1946     		mov	r1, r3
 973 008c FFF7FEFF 		bl	xTaskGenericNotifyFromISR
 974 0090 0023     		movs	r3, #0
 975 0092 2361     		str	r3, [r4, #16]
 976              	.L124:
 977              		.syntax unified
 978              	@ 229 "Middlewares/Third_Party/FreeRTOS/Source/portable/GCC/ARM_CM4F/portmacro.h" 1
 979 0094 86F31188 			msr basepri, r6	
 980              	@ 0 "" 2
 981              		.thumb
 982              		.syntax unified
 983              	.L123:
 984 0098 2846     		mov	r0, r5
 985 009a 02B0     		add	sp, sp, #8
 986              		@ sp needed
 987 009c BDE8F081 		pop	{r4, r5, r6, r7, r8, pc}
 989              		.section	.text.xStreamBufferReceive,"ax",%progbits
 990              		.align	2
 991              		.global	xStreamBufferReceive
 992              		.thumb
 993              		.thumb_func
 995              	xStreamBufferReceive:
 996              		@ args = 0, pretend = 0, frame = 0
 997              		@ frame_needed = 0, uses_anonymous_args = 0
 998 0000 41B9     		cbnz	r1, .L128
 999              		.syntax unified
 1000              	@ 195 "Middlewares/Third_Party/FreeRTOS/Source/portable/GCC/ARM_CM4F/portmacro.h" 1
ARM GAS  C:\Users\xiaofei\AppData\Local\Temp\cczoDQMg.s 			page 18


 1001 0002 4FF05003 			mov r3, #80												
 1002 0006 83F31188 		msr basepri, r3											
 1003 000a BFF36F8F 		isb														
 1004 000e BFF34F8F 		dsb														
 1005              	
 1006              	@ 0 "" 2
 1007              		.thumb
 1008              		.syntax unified
 1009              	.L129:
 1010 0012 FEE7     		b	.L129
 1011              	.L128:
 1012 0014 2DE9F043 		push	{r4, r5, r6, r7, r8, r9, lr}
 1013 0018 83B0     		sub	sp, sp, #12
 1014 001a 8846     		mov	r8, r1
 1015 001c 40B9     		cbnz	r0, .L130
 1016              		.syntax unified
 1017              	@ 195 "Middlewares/Third_Party/FreeRTOS/Source/portable/GCC/ARM_CM4F/portmacro.h" 1
 1018 001e 4FF05003 			mov r3, #80												
 1019 0022 83F31188 		msr basepri, r3											
 1020 0026 BFF36F8F 		isb														
 1021 002a BFF34F8F 		dsb														
 1022              	
 1023              	@ 0 "" 2
 1024              		.thumb
 1025              		.syntax unified
 1026              	.L131:
 1027 002e FEE7     		b	.L131
 1028              	.L130:
 1029 0030 017F     		ldrb	r1, [r0, #28]	@ zero_extendqisi2
 1030 0032 11F0010F 		tst	r1, #1
 1031 0036 01D0     		beq	.L140
 1032 0038 0426     		movs	r6, #4
 1033 003a 00E0     		b	.L132
 1034              	.L140:
 1035 003c 0026     		movs	r6, #0
 1036              	.L132:
 1037 003e 1F46     		mov	r7, r3
 1038 0040 9146     		mov	r9, r2
 1039 0042 0446     		mov	r4, r0
 1040 0044 4BB3     		cbz	r3, .L133
 1041 0046 FFF7FEFF 		bl	vPortEnterCritical
 1042 004a 2046     		mov	r0, r4
 1043 004c FFF7FEFF 		bl	prvBytesInBuffer
 1044 0050 0546     		mov	r5, r0
 1045 0052 8642     		cmp	r6, r0
 1046 0054 10D3     		bcc	.L134
 1047 0056 0020     		movs	r0, #0
 1048 0058 FFF7FEFF 		bl	xTaskNotifyStateClear
 1049 005c 2369     		ldr	r3, [r4, #16]
 1050 005e 43B1     		cbz	r3, .L135
 1051              		.syntax unified
 1052              	@ 195 "Middlewares/Third_Party/FreeRTOS/Source/portable/GCC/ARM_CM4F/portmacro.h" 1
 1053 0060 4FF05003 			mov r3, #80												
 1054 0064 83F31188 		msr basepri, r3											
 1055 0068 BFF36F8F 		isb														
 1056 006c BFF34F8F 		dsb														
 1057              	
ARM GAS  C:\Users\xiaofei\AppData\Local\Temp\cczoDQMg.s 			page 19


 1058              	@ 0 "" 2
 1059              		.thumb
 1060              		.syntax unified
 1061              	.L136:
 1062 0070 FEE7     		b	.L136
 1063              	.L135:
 1064 0072 FFF7FEFF 		bl	xTaskGetCurrentTaskHandle
 1065 0076 2061     		str	r0, [r4, #16]
 1066              	.L134:
 1067 0078 FFF7FEFF 		bl	vPortExitCritical
 1068 007c AE42     		cmp	r6, r5
 1069 007e 0FD3     		bcc	.L137
 1070 0080 3B46     		mov	r3, r7
 1071 0082 0022     		movs	r2, #0
 1072 0084 1146     		mov	r1, r2
 1073 0086 1046     		mov	r0, r2
 1074 0088 FFF7FEFF 		bl	xTaskNotifyWait
 1075 008c 0023     		movs	r3, #0
 1076 008e 2361     		str	r3, [r4, #16]
 1077 0090 2046     		mov	r0, r4
 1078 0092 FFF7FEFF 		bl	prvBytesInBuffer
 1079 0096 0546     		mov	r5, r0
 1080 0098 02E0     		b	.L137
 1081              	.L133:
 1082 009a FFF7FEFF 		bl	prvBytesInBuffer
 1083 009e 0546     		mov	r5, r0
 1084              	.L137:
 1085 00a0 B542     		cmp	r5, r6
 1086 00a2 17D9     		bls	.L141
 1087 00a4 0096     		str	r6, [sp]
 1088 00a6 2B46     		mov	r3, r5
 1089 00a8 4A46     		mov	r2, r9
 1090 00aa 4146     		mov	r1, r8
 1091 00ac 2046     		mov	r0, r4
 1092 00ae FFF7FEFF 		bl	prvReadMessageFromBuffer
 1093 00b2 0546     		mov	r5, r0
 1094 00b4 78B1     		cbz	r0, .L138
 1095 00b6 FFF7FEFF 		bl	vTaskSuspendAll
 1096 00ba 6369     		ldr	r3, [r4, #20]
 1097 00bc 3BB1     		cbz	r3, .L139
 1098 00be 6069     		ldr	r0, [r4, #20]
 1099 00c0 0023     		movs	r3, #0
 1100 00c2 1A46     		mov	r2, r3
 1101 00c4 1946     		mov	r1, r3
 1102 00c6 FFF7FEFF 		bl	xTaskGenericNotify
 1103 00ca 0023     		movs	r3, #0
 1104 00cc 6361     		str	r3, [r4, #20]
 1105              	.L139:
 1106 00ce FFF7FEFF 		bl	xTaskResumeAll
 1107 00d2 00E0     		b	.L138
 1108              	.L141:
 1109 00d4 0025     		movs	r5, #0
 1110              	.L138:
 1111 00d6 2846     		mov	r0, r5
 1112 00d8 03B0     		add	sp, sp, #12
 1113              		@ sp needed
 1114 00da BDE8F083 		pop	{r4, r5, r6, r7, r8, r9, pc}
ARM GAS  C:\Users\xiaofei\AppData\Local\Temp\cczoDQMg.s 			page 20


 1116 00de 00BF     		.section	.text.xStreamBufferNextMessageLengthBytes,"ax",%progbits
 1117              		.align	2
 1118              		.global	xStreamBufferNextMessageLengthBytes
 1119              		.thumb
 1120              		.thumb_func
 1122              	xStreamBufferNextMessageLengthBytes:
 1123              		@ args = 0, pretend = 0, frame = 8
 1124              		@ frame_needed = 0, uses_anonymous_args = 0
 1125 0000 40B9     		cbnz	r0, .L144
 1126              		.syntax unified
 1127              	@ 195 "Middlewares/Third_Party/FreeRTOS/Source/portable/GCC/ARM_CM4F/portmacro.h" 1
 1128 0002 4FF05003 			mov r3, #80												
 1129 0006 83F31188 		msr basepri, r3											
 1130 000a BFF36F8F 		isb														
 1131 000e BFF34F8F 		dsb														
 1132              	
 1133              	@ 0 "" 2
 1134              		.thumb
 1135              		.syntax unified
 1136              	.L145:
 1137 0012 FEE7     		b	.L145
 1138              	.L144:
 1139 0014 30B5     		push	{r4, r5, lr}
 1140 0016 83B0     		sub	sp, sp, #12
 1141 0018 0446     		mov	r4, r0
 1142 001a 037F     		ldrb	r3, [r0, #28]	@ zero_extendqisi2
 1143 001c 13F0010F 		tst	r3, #1
 1144 0020 18D0     		beq	.L149
 1145 0022 FFF7FEFF 		bl	prvBytesInBuffer
 1146 0026 0346     		mov	r3, r0
 1147 0028 0428     		cmp	r0, #4
 1148 002a 09D9     		bls	.L147
 1149 002c 2568     		ldr	r5, [r4]
 1150 002e 0422     		movs	r2, #4
 1151 0030 0DEB0201 		add	r1, sp, r2
 1152 0034 2046     		mov	r0, r4
 1153 0036 FFF7FEFF 		bl	prvReadBytesFromBuffer
 1154 003a 0198     		ldr	r0, [sp, #4]
 1155 003c 2560     		str	r5, [r4]
 1156 003e 0CE0     		b	.L146
 1157              	.L147:
 1158 0040 50B1     		cbz	r0, .L150
 1159              		.syntax unified
 1160              	@ 195 "Middlewares/Third_Party/FreeRTOS/Source/portable/GCC/ARM_CM4F/portmacro.h" 1
 1161 0042 4FF05003 			mov r3, #80												
 1162 0046 83F31188 		msr basepri, r3											
 1163 004a BFF36F8F 		isb														
 1164 004e BFF34F8F 		dsb														
 1165              	
 1166              	@ 0 "" 2
 1167              		.thumb
 1168              		.syntax unified
 1169              	.L148:
 1170 0052 FEE7     		b	.L148
 1171              	.L149:
 1172 0054 0020     		movs	r0, #0
 1173 0056 00E0     		b	.L146
ARM GAS  C:\Users\xiaofei\AppData\Local\Temp\cczoDQMg.s 			page 21


 1174              	.L150:
 1175 0058 0020     		movs	r0, #0
 1176              	.L146:
 1177 005a 03B0     		add	sp, sp, #12
 1178              		@ sp needed
 1179 005c 30BD     		pop	{r4, r5, pc}
 1181 005e 00BF     		.section	.text.xStreamBufferReceiveFromISR,"ax",%progbits
 1182              		.align	2
 1183              		.global	xStreamBufferReceiveFromISR
 1184              		.thumb
 1185              		.thumb_func
 1187              	xStreamBufferReceiveFromISR:
 1188              		@ args = 0, pretend = 0, frame = 0
 1189              		@ frame_needed = 0, uses_anonymous_args = 0
 1190 0000 41B9     		cbnz	r1, .L153
 1191              		.syntax unified
 1192              	@ 195 "Middlewares/Third_Party/FreeRTOS/Source/portable/GCC/ARM_CM4F/portmacro.h" 1
 1193 0002 4FF05003 			mov r3, #80												
 1194 0006 83F31188 		msr basepri, r3											
 1195 000a BFF36F8F 		isb														
 1196 000e BFF34F8F 		dsb														
 1197              	
 1198              	@ 0 "" 2
 1199              		.thumb
 1200              		.syntax unified
 1201              	.L154:
 1202 0012 FEE7     		b	.L154
 1203              	.L153:
 1204 0014 2DE9F041 		push	{r4, r5, r6, r7, r8, lr}
 1205 0018 82B0     		sub	sp, sp, #8
 1206 001a 0D46     		mov	r5, r1
 1207 001c 40B9     		cbnz	r0, .L155
 1208              		.syntax unified
 1209              	@ 195 "Middlewares/Third_Party/FreeRTOS/Source/portable/GCC/ARM_CM4F/portmacro.h" 1
 1210 001e 4FF05003 			mov r3, #80												
 1211 0022 83F31188 		msr basepri, r3											
 1212 0026 BFF36F8F 		isb														
 1213 002a BFF34F8F 		dsb														
 1214              	
 1215              	@ 0 "" 2
 1216              		.thumb
 1217              		.syntax unified
 1218              	.L156:
 1219 002e FEE7     		b	.L156
 1220              	.L155:
 1221 0030 017F     		ldrb	r1, [r0, #28]	@ zero_extendqisi2
 1222 0032 11F0010F 		tst	r1, #1
 1223 0036 01D0     		beq	.L160
 1224 0038 0427     		movs	r7, #4
 1225 003a 00E0     		b	.L157
 1226              	.L160:
 1227 003c 0027     		movs	r7, #0
 1228              	.L157:
 1229 003e 9846     		mov	r8, r3
 1230 0040 1646     		mov	r6, r2
 1231 0042 0446     		mov	r4, r0
 1232 0044 FFF7FEFF 		bl	prvBytesInBuffer
ARM GAS  C:\Users\xiaofei\AppData\Local\Temp\cczoDQMg.s 			page 22


 1233 0048 0346     		mov	r3, r0
 1234 004a 8742     		cmp	r7, r0
 1235 004c 20D2     		bcs	.L161
 1236 004e 0097     		str	r7, [sp]
 1237 0050 3246     		mov	r2, r6
 1238 0052 2946     		mov	r1, r5
 1239 0054 2046     		mov	r0, r4
 1240 0056 FFF7FEFF 		bl	prvReadMessageFromBuffer
 1241 005a 0546     		mov	r5, r0
 1242 005c C8B1     		cbz	r0, .L158
 1243              		.syntax unified
 1244              	@ 211 "Middlewares/Third_Party/FreeRTOS/Source/portable/GCC/ARM_CM4F/portmacro.h" 1
 1245 005e EFF31186 			mrs r6, basepri											
 1246 0062 4FF05003 		mov r3, #80												
 1247 0066 83F31188 		msr basepri, r3											
 1248 006a BFF36F8F 		isb														
 1249 006e BFF34F8F 		dsb														
 1250              	
 1251              	@ 0 "" 2
 1252              		.thumb
 1253              		.syntax unified
 1254 0072 6369     		ldr	r3, [r4, #20]
 1255 0074 4BB1     		cbz	r3, .L159
 1256 0076 6069     		ldr	r0, [r4, #20]
 1257 0078 CDF80080 		str	r8, [sp]
 1258 007c 0023     		movs	r3, #0
 1259 007e 1A46     		mov	r2, r3
 1260 0080 1946     		mov	r1, r3
 1261 0082 FFF7FEFF 		bl	xTaskGenericNotifyFromISR
 1262 0086 0023     		movs	r3, #0
 1263 0088 6361     		str	r3, [r4, #20]
 1264              	.L159:
 1265              		.syntax unified
 1266              	@ 229 "Middlewares/Third_Party/FreeRTOS/Source/portable/GCC/ARM_CM4F/portmacro.h" 1
 1267 008a 86F31188 			msr basepri, r6	
 1268              	@ 0 "" 2
 1269              		.thumb
 1270              		.syntax unified
 1271 008e 00E0     		b	.L158
 1272              	.L161:
 1273 0090 0025     		movs	r5, #0
 1274              	.L158:
 1275 0092 2846     		mov	r0, r5
 1276 0094 02B0     		add	sp, sp, #8
 1277              		@ sp needed
 1278 0096 BDE8F081 		pop	{r4, r5, r6, r7, r8, pc}
 1280 009a 00BF     		.section	.text.xStreamBufferIsEmpty,"ax",%progbits
 1281              		.align	2
 1282              		.global	xStreamBufferIsEmpty
 1283              		.thumb
 1284              		.thumb_func
 1286              	xStreamBufferIsEmpty:
 1287              		@ args = 0, pretend = 0, frame = 0
 1288              		@ frame_needed = 0, uses_anonymous_args = 0
 1289              		@ link register save eliminated.
 1290 0000 40B9     		cbnz	r0, .L164
 1291              		.syntax unified
ARM GAS  C:\Users\xiaofei\AppData\Local\Temp\cczoDQMg.s 			page 23


 1292              	@ 195 "Middlewares/Third_Party/FreeRTOS/Source/portable/GCC/ARM_CM4F/portmacro.h" 1
 1293 0002 4FF05003 			mov r3, #80												
 1294 0006 83F31188 		msr basepri, r3											
 1295 000a BFF36F8F 		isb														
 1296 000e BFF34F8F 		dsb														
 1297              	
 1298              	@ 0 "" 2
 1299              		.thumb
 1300              		.syntax unified
 1301              	.L165:
 1302 0012 FEE7     		b	.L165
 1303              	.L164:
 1304 0014 0268     		ldr	r2, [r0]
 1305 0016 4368     		ldr	r3, [r0, #4]
 1306 0018 9A42     		cmp	r2, r3
 1307 001a 01D1     		bne	.L167
 1308 001c 0120     		movs	r0, #1
 1309 001e 7047     		bx	lr
 1310              	.L167:
 1311 0020 0020     		movs	r0, #0
 1312 0022 7047     		bx	lr
 1314              		.section	.text.xStreamBufferIsFull,"ax",%progbits
 1315              		.align	2
 1316              		.global	xStreamBufferIsFull
 1317              		.thumb
 1318              		.thumb_func
 1320              	xStreamBufferIsFull:
 1321              		@ args = 0, pretend = 0, frame = 0
 1322              		@ frame_needed = 0, uses_anonymous_args = 0
 1323 0000 40B9     		cbnz	r0, .L169
 1324              		.syntax unified
 1325              	@ 195 "Middlewares/Third_Party/FreeRTOS/Source/portable/GCC/ARM_CM4F/portmacro.h" 1
 1326 0002 4FF05003 			mov r3, #80												
 1327 0006 83F31188 		msr basepri, r3											
 1328 000a BFF36F8F 		isb														
 1329 000e BFF34F8F 		dsb														
 1330              	
 1331              	@ 0 "" 2
 1332              		.thumb
 1333              		.syntax unified
 1334              	.L170:
 1335 0012 FEE7     		b	.L170
 1336              	.L169:
 1337 0014 10B5     		push	{r4, lr}
 1338 0016 0346     		mov	r3, r0
 1339 0018 027F     		ldrb	r2, [r0, #28]	@ zero_extendqisi2
 1340 001a 12F0010F 		tst	r2, #1
 1341 001e 01D0     		beq	.L173
 1342 0020 0424     		movs	r4, #4
 1343 0022 00E0     		b	.L171
 1344              	.L173:
 1345 0024 0024     		movs	r4, #0
 1346              	.L171:
 1347 0026 1846     		mov	r0, r3
 1348 0028 FFF7FEFF 		bl	xStreamBufferSpacesAvailable
 1349 002c 8442     		cmp	r4, r0
 1350 002e 01D3     		bcc	.L174
ARM GAS  C:\Users\xiaofei\AppData\Local\Temp\cczoDQMg.s 			page 24


 1351 0030 0120     		movs	r0, #1
 1352 0032 10BD     		pop	{r4, pc}
 1353              	.L174:
 1354 0034 0020     		movs	r0, #0
 1355 0036 10BD     		pop	{r4, pc}
 1357              		.section	.text.xStreamBufferSendCompletedFromISR,"ax",%progbits
 1358              		.align	2
 1359              		.global	xStreamBufferSendCompletedFromISR
 1360              		.thumb
 1361              		.thumb_func
 1363              	xStreamBufferSendCompletedFromISR:
 1364              		@ args = 0, pretend = 0, frame = 0
 1365              		@ frame_needed = 0, uses_anonymous_args = 0
 1366 0000 40B9     		cbnz	r0, .L177
 1367              		.syntax unified
 1368              	@ 195 "Middlewares/Third_Party/FreeRTOS/Source/portable/GCC/ARM_CM4F/portmacro.h" 1
 1369 0002 4FF05003 			mov r3, #80												
 1370 0006 83F31188 		msr basepri, r3											
 1371 000a BFF36F8F 		isb														
 1372 000e BFF34F8F 		dsb														
 1373              	
 1374              	@ 0 "" 2
 1375              		.thumb
 1376              		.syntax unified
 1377              	.L178:
 1378 0012 FEE7     		b	.L178
 1379              	.L177:
 1380 0014 30B5     		push	{r4, r5, lr}
 1381 0016 83B0     		sub	sp, sp, #12
 1382 0018 0446     		mov	r4, r0
 1383              		.syntax unified
 1384              	@ 211 "Middlewares/Third_Party/FreeRTOS/Source/portable/GCC/ARM_CM4F/portmacro.h" 1
 1385 001a EFF31185 			mrs r5, basepri											
 1386 001e 4FF05003 		mov r3, #80												
 1387 0022 83F31188 		msr basepri, r3											
 1388 0026 BFF36F8F 		isb														
 1389 002a BFF34F8F 		dsb														
 1390              	
 1391              	@ 0 "" 2
 1392              		.thumb
 1393              		.syntax unified
 1394 002e 0369     		ldr	r3, [r0, #16]
 1395 0030 53B1     		cbz	r3, .L180
 1396 0032 0069     		ldr	r0, [r0, #16]
 1397 0034 0091     		str	r1, [sp]
 1398 0036 0023     		movs	r3, #0
 1399 0038 1A46     		mov	r2, r3
 1400 003a 1946     		mov	r1, r3
 1401 003c FFF7FEFF 		bl	xTaskGenericNotifyFromISR
 1402 0040 0023     		movs	r3, #0
 1403 0042 2361     		str	r3, [r4, #16]
 1404 0044 0120     		movs	r0, #1
 1405 0046 00E0     		b	.L179
 1406              	.L180:
 1407 0048 0020     		movs	r0, #0
 1408              	.L179:
 1409              		.syntax unified
ARM GAS  C:\Users\xiaofei\AppData\Local\Temp\cczoDQMg.s 			page 25


 1410              	@ 229 "Middlewares/Third_Party/FreeRTOS/Source/portable/GCC/ARM_CM4F/portmacro.h" 1
 1411 004a 85F31188 			msr basepri, r5	
 1412              	@ 0 "" 2
 1413              		.thumb
 1414              		.syntax unified
 1415 004e 03B0     		add	sp, sp, #12
 1416              		@ sp needed
 1417 0050 30BD     		pop	{r4, r5, pc}
 1419 0052 00BF     		.section	.text.xStreamBufferReceiveCompletedFromISR,"ax",%progbits
 1420              		.align	2
 1421              		.global	xStreamBufferReceiveCompletedFromISR
 1422              		.thumb
 1423              		.thumb_func
 1425              	xStreamBufferReceiveCompletedFromISR:
 1426              		@ args = 0, pretend = 0, frame = 0
 1427              		@ frame_needed = 0, uses_anonymous_args = 0
 1428 0000 40B9     		cbnz	r0, .L183
 1429              		.syntax unified
 1430              	@ 195 "Middlewares/Third_Party/FreeRTOS/Source/portable/GCC/ARM_CM4F/portmacro.h" 1
 1431 0002 4FF05003 			mov r3, #80												
 1432 0006 83F31188 		msr basepri, r3											
 1433 000a BFF36F8F 		isb														
 1434 000e BFF34F8F 		dsb														
 1435              	
 1436              	@ 0 "" 2
 1437              		.thumb
 1438              		.syntax unified
 1439              	.L184:
 1440 0012 FEE7     		b	.L184
 1441              	.L183:
 1442 0014 30B5     		push	{r4, r5, lr}
 1443 0016 83B0     		sub	sp, sp, #12
 1444 0018 0446     		mov	r4, r0
 1445              		.syntax unified
 1446              	@ 211 "Middlewares/Third_Party/FreeRTOS/Source/portable/GCC/ARM_CM4F/portmacro.h" 1
 1447 001a EFF31185 			mrs r5, basepri											
 1448 001e 4FF05003 		mov r3, #80												
 1449 0022 83F31188 		msr basepri, r3											
 1450 0026 BFF36F8F 		isb														
 1451 002a BFF34F8F 		dsb														
 1452              	
 1453              	@ 0 "" 2
 1454              		.thumb
 1455              		.syntax unified
 1456 002e 4369     		ldr	r3, [r0, #20]
 1457 0030 53B1     		cbz	r3, .L186
 1458 0032 4069     		ldr	r0, [r0, #20]
 1459 0034 0091     		str	r1, [sp]
 1460 0036 0023     		movs	r3, #0
 1461 0038 1A46     		mov	r2, r3
 1462 003a 1946     		mov	r1, r3
 1463 003c FFF7FEFF 		bl	xTaskGenericNotifyFromISR
 1464 0040 0023     		movs	r3, #0
 1465 0042 6361     		str	r3, [r4, #20]
 1466 0044 0120     		movs	r0, #1
 1467 0046 00E0     		b	.L185
 1468              	.L186:
ARM GAS  C:\Users\xiaofei\AppData\Local\Temp\cczoDQMg.s 			page 26


 1469 0048 0020     		movs	r0, #0
 1470              	.L185:
 1471              		.syntax unified
 1472              	@ 229 "Middlewares/Third_Party/FreeRTOS/Source/portable/GCC/ARM_CM4F/portmacro.h" 1
 1473 004a 85F31188 			msr basepri, r5	
 1474              	@ 0 "" 2
 1475              		.thumb
 1476              		.syntax unified
 1477 004e 03B0     		add	sp, sp, #12
 1478              		@ sp needed
 1479 0050 30BD     		pop	{r4, r5, pc}
 1481 0052 00BF     		.ident	"GCC: (GNU Tools for ARM Embedded Processors) 5.4.1 20160919 (release) [ARM/embedded-5-bran
ARM GAS  C:\Users\xiaofei\AppData\Local\Temp\cczoDQMg.s 			page 27

